 game

 Timestamp is 5c867681 (Mon Mar 11 11:53:53 2019)

 Preferred load address is 0000000140000000

 Start         Length     Name                   Class
 0001:00000000 0008fb10H .text$mn                CODE
 0001:0008fb10 00000020H .text$mn$00             CODE
 0001:0008fb30 00000480H .text$x                 CODE
 0002:00000000 00000598H .idata$5                DATA
 0002:00000598 00000010H .00cfg                  DATA
 0002:000005a8 00000008H .CRT$XCA                DATA
 0002:000005b0 00000008H .CRT$XCAA               DATA
 0002:000005b8 00000008H .CRT$XCZ                DATA
 0002:000005c0 00000008H .CRT$XIA                DATA
 0002:000005c8 00000008H .CRT$XIAA               DATA
 0002:000005d0 00000008H .CRT$XIAC               DATA
 0002:000005d8 00000028H .CRT$XIC                DATA
 0002:00000600 00000008H .CRT$XIZ                DATA
 0002:00000608 00000008H .CRT$XLA                DATA
 0002:00000610 00000008H .CRT$XLZ                DATA
 0002:00000618 00000008H .CRT$XPA                DATA
 0002:00000620 00000010H .CRT$XPX                DATA
 0002:00000630 00000008H .CRT$XPXA               DATA
 0002:00000638 00000008H .CRT$XPZ                DATA
 0002:00000640 00000008H .CRT$XTA                DATA
 0002:00000648 00000008H .CRT$XTZ                DATA
 0002:00000650 00000000H .gfids$y                DATA
 0002:00000650 0002f340H .rdata                  DATA
 0002:0002f990 00000028H .rdata$T                DATA
 0002:0002f9b8 0000016cH .rdata$r                DATA
 0002:0002fb24 00000374H .rdata$zzzdbg           DATA
 0002:0002fe98 00000008H .rtc$IAA                DATA
 0002:0002fea0 00000008H .rtc$IZZ                DATA
 0002:0002fea8 00000008H .rtc$TAA                DATA
 0002:0002feb0 00000008H .rtc$TZZ                DATA
 0002:0002feb8 00000004H .tls                    DATA
 0002:0002febc 00000004H .tls$                   DATA
 0002:0002fec0 00000008H .tls$ZZZ                DATA
 0002:0002fec8 000046e0H .xdata                  DATA
 0002:000345a8 00000084H .xdata$x                DATA
 0002:0003462c 00000000H .edata                  DATA
 0002:0003462c 00000050H .idata$2                DATA
 0002:0003467c 00000014H .idata$3                DATA
 0002:00034690 00000598H .idata$4                DATA
 0002:00034c28 00000cfcH .idata$6                DATA
 0003:00000000 0001f5f0H .data                   DATA
 0003:0001f5f0 00000070H .data$r                 DATA
 0003:0001f660 0000c998H .bss                    DATA
 0004:00000000 00005454H .pdata                  DATA

  Address         Publics by Value              Rva+Base               Lib:Object

 0000:00000000       __guard_iat_table          0000000000000000     <absolute>
 0000:00000000       __guard_longjmp_count      0000000000000000     <absolute>
 0000:00000000       __guard_fids_count         0000000000000000     <absolute>
 0000:00000000       __hybrid_code_map_count    0000000000000000     <absolute>
 0000:00000000       __guard_longjmp_table      0000000000000000     <absolute>
 0000:00000000       __enclave_config           0000000000000000     <absolute>
 0000:00000000       ___safe_se_handler_count   0000000000000000     <absolute>
 0000:00000000       __hybrid_code_map          0000000000000000     <absolute>
 0000:00000000       __guard_iat_count          0000000000000000     <absolute>
 0000:00000000       __volatile_metadata        0000000000000000     <absolute>
 0000:00000000       ___safe_se_handler_table   0000000000000000     <absolute>
 0000:00000000       __guard_fids_table         0000000000000000     <absolute>
 0000:00000000       __hybrid_auxiliary_iat     0000000000000000     <absolute>
 0000:00000000       __dynamic_value_reloc_table 0000000000000000     <absolute>
 0000:00000100       __guard_flags              0000000000000100     <absolute>
 0000:00000000       __ImageBase                0000000140000000     <linker-defined>
 0001:00000000       ?load_shader@@YA?AUShader@@PEBDPEAUMemory_Arena@@@Z 0000000140001000 f   asset_storage.obj
 0001:00000150       ?get_blank_shader@@YA?AUShader@@XZ 0000000140001150 f   asset_storage.obj
 0001:00000250       ?load_texture@@YA?AUTexture@@PEBD@Z 0000000140001250 f   asset_storage.obj
 0001:00000370       ?get_blank_texture@@YA?AUTexture@@XZ 0000000140001370 f   asset_storage.obj
 0001:00000430       ?load_game_textures@@YAXPEAPEADHPEAUAsset_Storage@@@Z 0000000140001430 f   asset_storage.obj
 0001:00000590       ?load_game_shaders@@YAXPEAPEADHPEAUAsset_Storage@@PEAUMemory_Arena@@@Z 0000000140001590 f   asset_storage.obj
 0001:00000700       ?get_texture@@YAPEAUTexture@@PEBDPEAUAsset_Storage@@H@Z 0000000140001700 f   asset_storage.obj
 0001:000007c0       ?get_shader@@YAPEAUShader@@PEBDPEAUAsset_Storage@@@Z 00000001400017c0 f   asset_storage.obj
 0001:00000870       ?get_texture_rect_from_index@@YA?AU?$vec@$03M$0A@@glm@@IIIPEAUTexture@@@Z 0000000140001870 f   asset_storage.obj
 0001:00000a30       stbi_load                  0000000140001a30 f   asset_storage.obj
 0001:00000ae0       stbi_load_from_memory      0000000140001ae0 f   asset_storage.obj
 0001:00000b80       stbi_load_from_callbacks   0000000140001b80 f   asset_storage.obj
 0001:00000c20       stbi_load_from_file        0000000140001c20 f   asset_storage.obj
 0001:00000cf0       stbi_loadf                 0000000140001cf0 f   asset_storage.obj
 0001:00000da0       stbi_loadf_from_memory     0000000140001da0 f   asset_storage.obj
 0001:00000e40       stbi_loadf_from_callbacks  0000000140001e40 f   asset_storage.obj
 0001:00000ee0       stbi_loadf_from_file       0000000140001ee0 f   asset_storage.obj
 0001:00000f70       stbi_hdr_to_ldr_gamma      0000000140001f70 f   asset_storage.obj
 0001:00000fa0       stbi_hdr_to_ldr_scale      0000000140001fa0 f   asset_storage.obj
 0001:00000fd0       stbi_ldr_to_hdr_gamma      0000000140001fd0 f   asset_storage.obj
 0001:00000ff0       stbi_ldr_to_hdr_scale      0000000140001ff0 f   asset_storage.obj
 0001:00001010       stbi_is_hdr_from_callbacks 0000000140002010 f   asset_storage.obj
 0001:00001080       stbi_is_hdr_from_memory    0000000140002080 f   asset_storage.obj
 0001:000010f0       stbi_is_hdr                00000001400020f0 f   asset_storage.obj
 0001:00001150       stbi_is_hdr_from_file      0000000140002150 f   asset_storage.obj
 0001:000011b0       stbi_failure_reason        00000001400021b0 f   asset_storage.obj
 0001:000011c0       stbi_image_free            00000001400021c0 f   asset_storage.obj
 0001:000011e0       stbi_info_from_memory      00000001400021e0 f   asset_storage.obj
 0001:00001270       stbi_info_from_callbacks   0000000140002270 f   asset_storage.obj
 0001:00001300       stbi_info                  0000000140002300 f   asset_storage.obj
 0001:00001380       stbi_info_from_file        0000000140002380 f   asset_storage.obj
 0001:00001430       stbi_set_unpremultiply_on_load 0000000140002430 f   asset_storage.obj
 0001:00001450       stbi_convert_iphone_png_to_rgb 0000000140002450 f   asset_storage.obj
 0001:00001470       stbi_set_flip_vertically_on_load 0000000140002470 f   asset_storage.obj
 0001:00001490       stbi_zlib_decode_malloc_guesssize 0000000140002490 f   asset_storage.obj
 0001:00001590       stbi_zlib_decode_malloc_guesssize_headerflag 0000000140002590 f   asset_storage.obj
 0001:000016a0       stbi_zlib_decode_malloc    00000001400026a0 f   asset_storage.obj
 0001:000016e0       stbi_zlib_decode_buffer    00000001400026e0 f   asset_storage.obj
 0001:000017a0       stbi_zlib_decode_noheader_malloc 00000001400027a0 f   asset_storage.obj
 0001:000018a0       stbi_zlib_decode_noheader_buffer 00000001400028a0 f   asset_storage.obj
 0001:000153f0       ?stbi__tga_read_rgb16@@YAXPEAUstbi__context@@PEAE@Z 00000001400163f0 f   asset_storage.obj
 0001:00017880       ??$?0MMII@?$vec@$03M$0A@@glm@@QEAA@MMII@Z 0000000140018880 f i asset_storage.obj
 0001:000178f0       ?floor@@YAMM@Z             00000001400188f0 f i asset_storage.obj
 0001:00017910       ?ldexp@@YAMMH@Z            0000000140018910 f i asset_storage.obj
 0001:00017940       ?pow@@YAMMM@Z              0000000140018940 f i asset_storage.obj
 0001:00017970       __local_stdio_printf_options 0000000140018970 f i asset_storage.obj
 0001:00017980       ldexpf                     0000000140018980 f i asset_storage.obj
 0001:000179b0       snprintf                   00000001400189b0 f i asset_storage.obj
 0001:00017a10       vsnprintf                  0000000140018a10 f i asset_storage.obj
 0001:00017a90       ?make_custom_mesh@@YAPEAUMesh@@PEAU?$vec@$02M$0A@@glm@@PEAU?$vec@$01M$0A@@3@PEAU?$vec@$03M$0A@@3@IPEAUMemory_Arena@@@Z 0000000140018a90 f   draw.obj
 0001:00017d20       ?make_quad@@YAPEAUMesh@@MMPEAUMemory_Arena@@@Z 0000000140018d20 f   draw.obj
 0001:000181b0       ?update_mesh@@YAXPEAUMesh@@@Z 00000001400191b0 f   draw.obj
 0001:000182c0       ?set_mesh_rect@@YAXPEAUMesh@@PEAUTexture@@HHH@Z 00000001400192c0 f   draw.obj
 0001:00018520       ?begin_game_view@@YAXII@Z  0000000140019520 f   draw.obj
 0001:000185b0       ?end_game_view@@YAXXZ      00000001400195b0 f   draw.obj
 0001:000185c0       ?set_projection@@YAXU?$mat@$03$03M$0A@@glm@@@Z 00000001400195c0 f   draw.obj
 0001:000185f0       ?draw_line@@YAXPEAUShader@@U?$vec@$02M$0A@@glm@@1U?$vec@$03M$0A@@3@M@Z 00000001400195f0 f   draw.obj
 0001:00018920       ?draw_line@@YAXPEAUShader@@U?$vec@$01M$0A@@glm@@1U?$vec@$03M$0A@@3@M@Z 0000000140019920 f   draw.obj
 0001:00018a00       ?draw_quad@@YAXPEAUShader@@U?$vec@$01M$0A@@glm@@MMU?$vec@$03M$0A@@3@@Z 0000000140019a00 f   draw.obj
 0001:00018d00       ?draw_entity_mesh@@YAXPEAUShader@@PEAUEntity@@@Z 0000000140019d00 f   draw.obj
 0001:000195b0       ?make_line@@YAXPEAI0@Z     000000014001a5b0 f   draw.obj
 0001:000198e0       ??$?0HHH@?$vec@$02M$0A@@glm@@QEAA@HHH@Z 000000014001a8e0 f i draw.obj
 0001:00019930       ??$?0HHHM@?$vec@$03M$0A@@glm@@QEAA@HHHM@Z 000000014001a930 f i draw.obj
 0001:00019990       ??$?0HHM@?$vec@$02M$0A@@glm@@QEAA@HHM@Z 000000014001a990 f i draw.obj
 0001:000199e0       ??$?0HHMH@?$vec@$03M$0A@@glm@@QEAA@HHMH@Z 000000014001a9e0 f i draw.obj
 0001:00019a40       ??$?0HMHH@?$vec@$03M$0A@@glm@@QEAA@HMHH@Z 000000014001aa40 f i draw.obj
 0001:00019aa0       ??$?0HMM@?$vec@$02M$0A@@glm@@QEAA@HMM@Z 000000014001aaa0 f i draw.obj
 0001:00019af0       ??$?0MHHH@?$vec@$03M$0A@@glm@@QEAA@MHHH@Z 000000014001aaf0 f i draw.obj
 0001:00019b50       ??$?0MHM@?$vec@$02M$0A@@glm@@QEAA@MHM@Z 000000014001ab50 f i draw.obj
 0001:00019ba0       ??$?DM$0A@@glm@@YA?AU?$vec@$02M$0A@@0@AEBU10@0@Z 000000014001aba0 f i draw.obj
 0001:00019c20       ??$?DM$0A@@glm@@YA?AU?$vec@$02M$0A@@0@AEBU10@M@Z 000000014001ac20 f i draw.obj
 0001:00019c90       ??$?DM$0A@@glm@@YA?AU?$vec@$02M$0A@@0@MAEBU10@@Z 000000014001ac90 f i draw.obj
 0001:00019d00       ??$?DM$0A@@glm@@YA?AU?$vec@$03M$0A@@0@AEBU10@AEBM@Z 000000014001ad00 f i draw.obj
 0001:00019d60       ??$?GM$0A@@glm@@YA?AU?$vec@$02M$0A@@0@AEBU10@0@Z 000000014001ad60 f i draw.obj
 0001:00019de0       ??$?HM$0A@@glm@@YA?AU?$vec@$02M$0A@@0@AEBU10@0@Z 000000014001ade0 f i draw.obj
 0001:00019e60       ??$?HM$0A@@glm@@YA?AU?$vec@$03M$0A@@0@AEBU10@0@Z 000000014001ae60 f i draw.obj
 0001:00019ec0       ??$?XM@?$vec@$03M$0A@@glm@@QEAAAEAU01@M@Z 000000014001aec0 f i draw.obj
 0001:00019f10       ??$?YM@?$vec@$03M$0A@@glm@@QEAAAEAU01@AEBU01@@Z 000000014001af10 f i draw.obj
 0001:00019f70       ??$dot@$02M$0A@@glm@@YAMAEBU?$vec@$02M$0A@@0@0@Z 000000014001af70 f i draw.obj
 0001:00019fa0       ??$inversesqrt@M@glm@@YAMM@Z 000000014001afa0 f i draw.obj
 0001:00019fd0       ??$normalize@$02M$0A@@glm@@YA?AU?$vec@$02M$0A@@0@AEBU10@@Z 000000014001afd0 f i draw.obj
 0001:0001a000       ??$radians@M@glm@@YAMM@Z   000000014001b000 f i draw.obj
 0001:0001a020       ??$rotate@M$0A@@glm@@YA?AU?$mat@$03$03M$0A@@0@AEBU10@MAEBU?$vec@$02M$0A@@0@@Z 000000014001b020 f i draw.obj
 0001:0001aa10       ??$scale@M$0A@@glm@@YA?AU?$mat@$03$03M$0A@@0@AEBU10@AEBU?$vec@$02M$0A@@0@@Z 000000014001ba10 f i draw.obj
 0001:0001abe0       ??$translate@M$0A@@glm@@YA?AU?$mat@$03$03M$0A@@0@AEBU10@AEBU?$vec@$02M$0A@@0@@Z 000000014001bbe0 f i draw.obj
 0001:0001adb0       ??0<unnamed-type-points>@?1??draw_line@@YAXPEAUShader@@U?$vec@$02M$0A@@glm@@1U?$vec@$03M$0A@@4@M@Z@QEAA@XZ 000000014001bdb0 f i draw.obj
 0001:0001add0       ??0?$mat@$03$03M$0A@@glm@@QEAA@AEBM@Z 000000014001bdd0 f i draw.obj
 0001:0001ae90       ??0?$vec@$01M$0A@@glm@@QEAA@MM@Z 000000014001be90 f i draw.obj
 0001:0001aed0       ??0?$vec@$02M$0A@@glm@@QEAA@M@Z 000000014001bed0 f i draw.obj
 0001:0001af10       ??0?$vec@$02M$0A@@glm@@QEAA@MMM@Z 000000014001bf10 f i draw.obj
 0001:0001af60       ??0?$vec@$03M$0A@@glm@@QEAA@M@Z 000000014001bf60 f i draw.obj
 0001:0001afb0       ??0?$vec@$03M$0A@@glm@@QEAA@MMMM@Z 000000014001bfb0 f i draw.obj
 0001:0001b010       ??A?$mat@$03$03M$0A@@glm@@QEAAAEAU?$vec@$03M$0A@@1@H@Z 000000014001c010 f i draw.obj
 0001:0001b060       ??A?$mat@$03$03M$0A@@glm@@QEBAAEBU?$vec@$03M$0A@@1@H@Z 000000014001c060 f i draw.obj
 0001:0001b0b0       ??A?$vec@$02M$0A@@glm@@QEAAAEAMH@Z 000000014001c0b0 f i draw.obj
 0001:0001b120       ??A?$vec@$02M$0A@@glm@@QEBAAEBMH@Z 000000014001c120 f i draw.obj
 0001:0001b190       ??A?$vec@$03M$0A@@glm@@QEAAAEAMH@Z 000000014001c190 f i draw.obj
 0001:0001b220       ?call@?$compute_dot@U?$vec@$02M$0A@@glm@@M$0A@@detail@glm@@SAMAEBU?$vec@$02M$0A@@3@0@Z 000000014001c220 f i draw.obj
 0001:0001b260       ?call@?$compute_normalize@$02M$0A@$0A@@detail@glm@@SA?AU?$vec@$02M$0A@@3@AEBU43@@Z 000000014001c260 f i draw.obj
 0001:0001b2a0       ?call@?$compute_vec4_add@M$0A@$0A@@detail@glm@@SA?AU?$vec@$03M$0A@@3@AEBU43@0@Z 000000014001c2a0 f i draw.obj
 0001:0001b330       ?call@?$compute_vec4_mul@M$0A@$0A@@detail@glm@@SA?AU?$vec@$03M$0A@@3@AEBU43@0@Z 000000014001c330 f i draw.obj
 0001:0001b3c0       ?cos@@YAMM@Z               000000014001c3c0 f i draw.obj
 0001:0001b3e0       ?length@?$mat@$03$03M$0A@@glm@@SAHXZ 000000014001c3e0 f i draw.obj
 0001:0001b3e0       ?length@?$vec@$03M$0A@@glm@@SAHXZ 000000014001c3e0 f i draw.obj
 0001:0001b3e0       ?get_entity_type@Enemy@@SAHXZ 000000014001c3e0 f i game.obj
 0001:0001b3f0       ?get_entity_type@Projectile@@SAHXZ 000000014001c3f0 f i game.obj
 0001:0001b3f0       ?length@?$vec@$02M$0A@@glm@@SAHXZ 000000014001c3f0 f i draw.obj
 0001:0001b400       ?magnitude_vector@@YAMAEBU?$vec@$02M$0A@@glm@@@Z 000000014001c400 f i draw.obj
 0001:0001b480       ?pow@@YAMMH@Z              000000014001c480 f i draw.obj
 0001:0001b4c0       ?rotate_point@@YA?AU?$vec@$02M$0A@@glm@@U12@M@Z 000000014001c4c0 f i draw.obj
 0001:0001b5c0       ?set_current_program@@YAXPEAUShader@@@Z 000000014001c5c0 f i draw.obj
 0001:0001b640       ?sin@@YAMM@Z               000000014001c640 f i draw.obj
 0001:0001b660       ?sqrt@@YAMM@Z              000000014001c660 f i draw.obj
 0001:0001b680       ?handle_enemy_movement@@YAXPEAUEntity@@PEAUEntity_Manager@@PEAUGame_Input@@@Z 000000014001c680 f   enemy_ai.obj
 0001:0001b970       ??$?0MN@?$vec@$01M$0A@@glm@@QEAA@MN@Z 000000014001c970 f i enemy_ai.obj
 0001:0001b9b0       ??$?DM$0A@@glm@@YA?AU?$vec@$01M$0A@@0@AEBU10@0@Z 000000014001c9b0 f i enemy_ai.obj
 0001:0001ba00       ??$?GM$0A@@glm@@YA?AU?$vec@$01M$0A@@0@AEBU10@0@Z 000000014001ca00 f i enemy_ai.obj
 0001:0001ba50       ??$?HM$0A@@glm@@YA?AU?$vec@$01M$0A@@0@AEBU10@0@Z 000000014001ca50 f i enemy_ai.obj
 0001:0001baa0       ??$degrees@M@glm@@YAMM@Z   000000014001caa0 f i enemy_ai.obj
 0001:0001bac0       ??$dot@$01M$0A@@glm@@YAMAEBU?$vec@$01M$0A@@0@0@Z 000000014001cac0 f i enemy_ai.obj
 0001:0001baf0       ??$length@$01M$0A@@glm@@YAMAEBU?$vec@$01M$0A@@0@@Z 000000014001caf0 f i enemy_ai.obj
 0001:0001bb10       ??0?$vec@$01M$0A@@glm@@QEAA@M@Z 000000014001cb10 f i enemy_ai.obj
 0001:0001bb40       ?atan2@@YAMMM@Z            000000014001cb40 f i enemy_ai.obj
 0001:0001bb70       ?call@?$compute_dot@U?$vec@$01M$0A@@glm@@M$0A@@detail@glm@@SAMAEBU?$vec@$01M$0A@@3@0@Z 000000014001cb70 f i enemy_ai.obj
 0001:0001bbb0       ?call@?$compute_length@$01M$0A@$0A@@detail@glm@@SAMAEBU?$vec@$01M$0A@@3@@Z 000000014001cbb0 f i enemy_ai.obj
 0001:0001bbe0       ?lerp@@YA?AU?$vec@$01M$0A@@glm@@U12@0M@Z 000000014001cbe0 f i enemy_ai.obj
 0001:0001bc50       ?lerp@@YAMMMM@Z            000000014001cc50 f i enemy_ai.obj
 0001:0001bc90       ?get_next_entity@@YAPEAUEntity@@PEAXIPEAUEntity_Manager@@@Z 000000014001cc90 f   entity_manager.obj
 0001:0001bde0       ?get_entity_by_name@@YAPEAUEntity@@PEBDPEAUEntity_Manager@@@Z 000000014001cde0 f   entity_manager.obj
 0001:0001be70       ?load_file@@YA?AUFile_Result@@PEBDPEAUMemory_Arena@@@Z 000000014001ce70 f   file_io.obj
 0001:0001bfe0       ?load_temp_file@@YA?AUFile_Result@@PEBD@Z 000000014001cfe0 f   file_io.obj
 0001:0001c040       ?get_text_file_handler@@YA?AUText_File_Handler@@PEAUFile_Result@@@Z 000000014001d040 f   file_io.obj
 0001:0001c0b0       ?is_end_of_line@@YA_ND@Z   000000014001d0b0 f   file_io.obj
 0001:0001c100       ?is_white_space@@YA_ND@Z   000000014001d100 f   file_io.obj
 0001:0001c170       ?is_alpha@@YA_ND@Z         000000014001d170 f   file_io.obj
 0001:0001c1d0       ?is_number@@YA_ND@Z        000000014001d1d0 f   file_io.obj
 0001:0001c220       ?eat_all_white_space@@YAXPEAUText_File_Handler@@@Z 000000014001d220 f   file_io.obj
 0001:0001c400       ?can_consume_lines@@YAHPEAUText_File_Handler@@@Z 000000014001d400 f   file_io.obj
 0001:0001c4a0       ?consume_line@@YAXPEAUText_File_Handler@@@Z 000000014001d4a0 f   file_io.obj
 0001:0001c550       ?consume_word@@YAXPEAUText_File_Handler@@@Z 000000014001d550 f   file_io.obj
 0001:0001c600       ?word_is@@YA_NPEAUText_File_Handler@@PEBD@Z 000000014001d600 f   file_io.obj
 0001:0001c6b0       ?is_ascii@@YA_ND@Z         000000014001d6b0 f   file_io.obj
 0001:0001c790       ?filewatch_create@@YAPEAUfilewatch_t@@PEAUassetsys_t@@PEAX@Z 000000014001d790 f   game.obj
 0001:0001c850       ?filewatch_free@@YAXPEAUfilewatch_t@@@Z 000000014001d850 f   game.obj
 0001:0001c880       ?filewatch_mount@@YAHPEAUfilewatch_t@@PEBD1@Z 000000014001d880 f   game.obj
 0001:0001c9f0       ?filewatch_dismount@@YAXPEAUfilewatch_t@@@Z 000000014001d9f0 f   game.obj
 0001:0001ca70       ?filewatch_update@@YAHPEAUfilewatch_t@@@Z 000000014001da70 f   game.obj
 0001:0001d1e0       ?filewatch_notify@@YAXPEAUfilewatch_t@@@Z 000000014001e1e0 f   game.obj
 0001:0001d280       ?filewatch_start_watching@@YAHPEAUfilewatch_t@@PEBDP6AXW4filewatch_update_t@@1PEAX@Z3@Z 000000014001e280 f   game.obj
 0001:0001d740       ?filewatch_stop_watching@@YAXPEAUfilewatch_t@@PEBD@Z 000000014001e740 f   game.obj
 0001:0001d960       ?filewatch_actual_path_to_virtual_path@@YAXPEAUfilewatch_t@@PEBDPEADH@Z 000000014001e960 f   game.obj
 0001:0001da20       ?filewatch_virtual_path_to_actual_path@@YAXPEAUfilewatch_t@@PEBDPEADH@Z 000000014001ea20 f   game.obj
 0001:0001dae0       ?game_update_and_render@@YAXPEAUGame_Memory@@PEAUGame_Input@@U?$vec@$01M$0A@@glm@@@Z 000000014001eae0 f   game.obj
 0001:0001f800       ?assetsys_create@@YAPEAUassetsys_t@@PEAX@Z 0000000140020800 f   game.obj
 0001:0001f910       ?assetsys_destroy@@YAXPEAUassetsys_t@@@Z 0000000140020910 f   game.obj
 0001:0001f9b0       ?assetsys_mount@@YA?AW4assetsys_error_t@@PEAUassetsys_t@@PEBD1@Z 00000001400209b0 f   game.obj
 0001:00020710       ?assetsys_dismount@@YA?AW4assetsys_error_t@@PEAUassetsys_t@@PEBD1@Z 0000000140021710 f   game.obj
 0001:00020a90       ?assetsys_file@@YA?AW4assetsys_error_t@@PEAUassetsys_t@@PEBDPEAUassetsys_file_t@@@Z 0000000140021a90 f   game.obj
 0001:00020c10       ?assetsys_file_load@@YA?AW4assetsys_error_t@@PEAUassetsys_t@@Uassetsys_file_t@@PEAHPEAXH@Z 0000000140021c10 f   game.obj
 0001:00020ff0       ?assetsys_file_size@@YAHPEAUassetsys_t@@Uassetsys_file_t@@@Z 0000000140021ff0 f   game.obj
 0001:00021270       ?assetsys_file_count@@YAHPEAUassetsys_t@@PEBD@Z 0000000140022270 f   game.obj
 0001:00021330       ?assetsys_file_name@@YAPEBDPEAUassetsys_t@@PEBDH@Z 0000000140022330 f   game.obj
 0001:000213a0       ?assetsys_file_path@@YAPEBDPEAUassetsys_t@@PEBDH@Z 00000001400223a0 f   game.obj
 0001:00021490       ?assetsys_subdir_count@@YAHPEAUassetsys_t@@PEBD@Z 0000000140022490 f   game.obj
 0001:00021550       ?assetsys_subdir_name@@YAPEBDPEAUassetsys_t@@PEBDH@Z 0000000140022550 f   game.obj
 0001:000215c0       ?assetsys_subdir_path@@YAPEBDPEAUassetsys_t@@PEBDH@Z 00000001400225c0 f   game.obj
 0001:000216b0       mz_free                    00000001400226b0 f   game.obj
 0001:000216d0       mz_adler32                 00000001400226d0 f   game.obj
 0001:00021970       mz_crc32                   0000000140022970 f   game.obj
 0001:00021a40       mz_version                 0000000140022a40 f   game.obj
 0001:00021a50       mz_deflateInit             0000000140022a50 f   game.obj
 0001:00021aa0       mz_deflateInit2            0000000140022aa0 f   game.obj
 0001:00021c10       mz_deflateReset            0000000140022c10 f   game.obj
 0001:00021ca0       mz_deflate                 0000000140022ca0 f   game.obj
 0001:00021ed0       mz_deflateEnd              0000000140022ed0 f   game.obj
 0001:00021f30       mz_deflateBound            0000000140022f30 f   game.obj
 0001:00021fc0       mz_compress                0000000140022fc0 f   game.obj
 0001:00022010       mz_compress2               0000000140023010 f   game.obj
 0001:00022120       mz_compressBound           0000000140023120 f   game.obj
 0001:00022140       mz_inflateInit             0000000140023140 f   game.obj
 0001:00022170       mz_inflateInit2            0000000140023170 f   game.obj
 0001:000222f0       mz_inflate                 00000001400232f0 f   game.obj
 0001:00022a40       mz_inflateEnd              0000000140023a40 f   game.obj
 0001:00022aa0       mz_uncompress              0000000140023aa0 f   game.obj
 0001:00022bb0       mz_error                   0000000140023bb0 f   game.obj
 0001:00022c10       mz_zip_reader_init         0000000140023c10 f   game.obj
 0001:00022c90       mz_zip_reader_init_mem     0000000140023c90 f   game.obj
 0001:00022d40       mz_zip_reader_init_file    0000000140023d40 f   game.obj
 0001:00022e40       mz_zip_reader_get_num_files 0000000140023e40 f   game.obj
 0001:00022e80       mz_zip_reader_file_stat    0000000140023e80 f   game.obj
 0001:000230b0       mz_zip_reader_is_file_a_directory 00000001400240b0 f   game.obj
 0001:00023140       mz_zip_reader_is_file_encrypted 0000000140024140 f   game.obj
 0001:00023190       mz_zip_reader_get_filename 0000000140024190 f   game.obj
 0001:00023260       mz_zip_reader_locate_file  0000000140024260 f   game.obj
 0001:000235a0       mz_zip_reader_extract_to_mem_no_alloc 00000001400245a0 f   game.obj
 0001:00023c50       mz_zip_reader_extract_file_to_mem_no_alloc 0000000140024c50 f   game.obj
 0001:00023ce0       mz_zip_reader_extract_to_mem 0000000140024ce0 f   game.obj
 0001:00023d40       mz_zip_reader_extract_file_to_mem 0000000140024d40 f   game.obj
 0001:00023da0       mz_zip_reader_extract_to_heap 0000000140024da0 f   game.obj
 0001:00023ef0       mz_zip_reader_extract_file_to_heap 0000000140024ef0 f   game.obj
 0001:00023f70       mz_zip_reader_extract_to_callback 0000000140024f70 f   game.obj
 0001:000247c0       mz_zip_reader_extract_file_to_callback 00000001400257c0 f   game.obj
 0001:00024830       mz_zip_reader_extract_to_file 0000000140025830 f   game.obj
 0001:00024930       mz_zip_reader_extract_file_to_file 0000000140025930 f   game.obj
 0001:000249a0       mz_zip_reader_end          00000001400259a0 f   game.obj
 0001:00024ab0       mz_zip_writer_init         0000000140025ab0 f   game.obj
 0001:00024c40       mz_zip_writer_init_heap    0000000140025c40 f   game.obj
 0001:00024d30       mz_zip_writer_init_file    0000000140025d30 f   game.obj
 0001:00024ef0       mz_zip_writer_init_from_reader 0000000140025ef0 f   game.obj
 0001:00025080       mz_zip_writer_add_mem      0000000140026080 f   game.obj
 0001:000250f0       mz_zip_writer_add_mem_ex   00000001400260f0 f   game.obj
 0001:00025a60       mz_zip_writer_add_file     0000000140026a60 f   game.obj
 0001:00026560       mz_zip_writer_add_from_zip_reader 0000000140027560 f   game.obj
 0001:00026c60       mz_zip_writer_finalize_archive 0000000140027c60 f   game.obj
 0001:00026e70       mz_zip_writer_finalize_heap_archive 0000000140027e70 f   game.obj
 0001:00026f50       mz_zip_writer_end          0000000140027f50 f   game.obj
 0001:000270a0       mz_zip_add_mem_to_archive_file_in_place 00000001400280a0 f   game.obj
 0001:000272d0       mz_zip_extract_archive_file_to_heap 00000001400282d0 f   game.obj
 0001:000273d0       tinfl_decompress_mem_to_heap 00000001400283d0 f   game.obj
 0001:00027600       tinfl_decompress_mem_to_mem 0000000140028600 f   game.obj
 0001:000276e0       tinfl_decompress_mem_to_callback 00000001400286e0 f   game.obj
 0001:000278b0       tinfl_decompress           00000001400288b0 f   game.obj
 0001:0002b040       tdefl_compress_mem_to_heap 000000014002c040 f   game.obj
 0001:0002b0e0       tdefl_compress_mem_to_mem  000000014002c0e0 f   game.obj
 0001:0002b170       tdefl_write_image_to_png_file_in_memory_ex 000000014002c170 f   game.obj
 0001:0002b6a0       tdefl_write_image_to_png_file_in_memory 000000014002c6a0 f   game.obj
 0001:0002b700       tdefl_compress_mem_to_output 000000014002c700 f   game.obj
 0001:0002b7f0       tdefl_init                 000000014002c7f0 f   game.obj
 0001:0002baf0       tdefl_compress             000000014002caf0 f   game.obj
 0001:0002bef0       tdefl_compress_buffer      000000014002cef0 f   game.obj
 0001:0002bf70       tdefl_get_prev_return_status 000000014002cf70 f   game.obj
 0001:0002bf90       tdefl_get_adler32          000000014002cf90 f   game.obj
 0001:0002bfb0       tdefl_create_comp_flags_from_zip_params 000000014002cfb0 f   game.obj
 0001:00034fc0       ?strpool_init@@YAXPEAUstrpool_t@@PEBUstrpool_config_t@@@Z 0000000140035fc0 f   game.obj
 0001:00035340       ?strpool_term@@YAXPEAUstrpool_t@@@Z 0000000140036340 f   game.obj
 0001:000353d0       ?strpool_defrag@@YAXPEAUstrpool_t@@@Z 00000001400363d0 f   game.obj
 0001:000359f0       ?strpool_inject@@YA_KPEAUstrpool_t@@PEBDH@Z 00000001400369f0 f   game.obj
 0001:000361b0       ?strpool_discard@@YAXPEAUstrpool_t@@_K@Z 00000001400371b0 f   game.obj
 0001:00036690       ?strpool_incref@@YAHPEAUstrpool_t@@_K@Z 0000000140037690 f   game.obj
 0001:000366f0       ?strpool_decref@@YAHPEAUstrpool_t@@_K@Z 00000001400376f0 f   game.obj
 0001:00036770       ?strpool_getref@@YAHPEAUstrpool_t@@_K@Z 0000000140037770 f   game.obj
 0001:000367c0       ?strpool_isvalid@@YAHPEBUstrpool_t@@_K@Z 00000001400377c0 f   game.obj
 0001:00036800       ?strpool_cstr@@YAPEBDPEBUstrpool_t@@_K@Z 0000000140037800 f   game.obj
 0001:00036850       ?strpool_length@@YAHPEBUstrpool_t@@_K@Z 0000000140037850 f   game.obj
 0001:000368a0       ?strpool_collate@@YAPEADPEBUstrpool_t@@PEAH@Z 00000001400378a0 f   game.obj
 0001:00036a30       ?strpool_free_collated@@YAXPEBUstrpool_t@@PEAD@Z 0000000140037a30 f   game.obj
 0001:000376b0       ?strpool_cstr_and_length@@YAPEBDPEBUstrpool_t@@_KPEAH@Z 00000001400386b0 f   game.obj
 0001:000396a0       ?strpool_embedded_init@@YAXPEAUstrpool_embedded_t@@PEBUstrpool_embedded_config_t@@@Z 000000014003a6a0 f   game.obj
 0001:00039a40       ?strpool_embedded_term@@YAXPEAUstrpool_embedded_t@@@Z 000000014003aa40 f   game.obj
 0001:00039a80       ?strpool_embedded_inject@@YA_KPEAUstrpool_embedded_t@@PEBDH@Z 000000014003aa80 f   game.obj
 0001:0003a240       ?strpool_embedded_cstr@@YAPEBDPEBUstrpool_embedded_t@@_K@Z 000000014003b240 f   game.obj
 0001:0003aec0       ?cf_get_ext@@YAPEBDPEAUcf_file_t@@@Z 000000014003bec0 f   game.obj
 0001:0003af80       ?cf_traverse@@YAXPEBDP6AXPEAUcf_file_t@@PEAX@Z2@Z 000000014003bf80 f   game.obj
 0001:0003b130       ?cf_read_file@@YAHPEAUcf_dir_t@@PEAUcf_file_t@@@Z 000000014003c130 f   game.obj
 0001:0003b370       ?cf_dir_next@@YAXPEAUcf_dir_t@@@Z 000000014003c370 f   game.obj
 0001:0003b420       ?cf_dir_close@@YAXPEAUcf_dir_t@@@Z 000000014003c420 f   game.obj
 0001:0003b480       ?cf_dir_open@@YAHPEAUcf_dir_t@@PEBD@Z 000000014003c480 f   game.obj
 0001:0003b5b0       ?cf_compare_file_times_by_path@@YAHPEBD0@Z 000000014003c5b0 f   game.obj
 0001:0003b660       ?cf_get_file_time@@YAHPEBDPEAUcf_time_t@@@Z 000000014003c660 f   game.obj
 0001:0003b6f0       ?cf_compare_file_times@@YAHPEAUcf_time_t@@0@Z 000000014003c6f0 f   game.obj
 0001:0003b720       ?cf_file_exists@@YAHPEBD@Z 000000014003c720 f   game.obj
 0001:0003b770       ?cf_match_ext@@YAHPEAUcf_file_t@@PEBD@Z 000000014003c770 f   game.obj
 0001:0003b8c0       ?hashtable_init@@YAXPEAUhashtable_t@@HHPEAX@Z 000000014003c8c0 f   game.obj
 0001:0003baa0       ?hashtable_term@@YAXPEAUhashtable_t@@@Z 000000014003caa0 f   game.obj
 0001:0003bab0       ?hashtable_insert@@YAPEAXPEAUhashtable_t@@_KPEBX@Z 000000014003cab0 f   game.obj
 0001:0003bda0       ?hashtable_remove@@YAXPEAUhashtable_t@@_K@Z 000000014003cda0 f   game.obj
 0001:0003bfa0       ?hashtable_clear@@YAXPEAUhashtable_t@@@Z 000000014003cfa0 f   game.obj
 0001:0003bff0       ?hashtable_find@@YAPEAXPEBUhashtable_t@@_K@Z 000000014003cff0 f   game.obj
 0001:0003c070       ?hashtable_count@@YAHPEBUhashtable_t@@@Z 000000014003d070 f   game.obj
 0001:0003c090       ?hashtable_items@@YAPEAXPEBUhashtable_t@@@Z 000000014003d090 f   game.obj
 0001:0003c0b0       ?hashtable_keys@@YAPEB_KPEBUhashtable_t@@@Z 000000014003d0b0 f   game.obj
 0001:0003c0d0       ?hashtable_swap@@YAXPEAUhashtable_t@@HH@Z 000000014003d0d0 f   game.obj
 0001:0003c920       ?filewatch_path_concat_internal@@YAXPEBD0PEADH@Z 000000014003d920 f   game.obj
 0001:0003c9b0       ?filewatch_build_path_internal@@YA?AUfilewatch_path_t@@PEAUfilewatch_t@@PEAUfilewatch_watched_dir_internal_t@@PEBD2@Z 000000014003d9b0 f   game.obj
 0001:0003cb00       ?filewatch_add_notification_internal@@YAHPEAUfilewatch_t@@PEAUfilewatch_watched_dir_internal_t@@Ufilewatch_path_t@@W4filewatch_update_t@@@Z 000000014003db00 f   game.obj
 0001:0003ccb0       ?filewatch_add_entry_internal@@YAXPEAUfilewatch_watched_dir_internal_t@@Ufilewatch_path_t@@_KPEBDH@Z 000000014003dcb0 f   game.obj
 0001:0003cd50       ?watch_callback@@YAXW4filewatch_update_t@@PEBDPEAX@Z 000000014003dd50 f   game.obj
 0001:0003ce60       ?get_game_variables@@YAXPEBDPEAUGame_State@@@Z 000000014003de60 f   game.obj
 0001:0003d040       ?load_level@@YAXPEBDPEAUTile_Map@@PEAUGame_State@@@Z 000000014003e040 f   game.obj
 0001:0003d7c0       ??$?0HH@?$vec@$01M$0A@@glm@@QEAA@HH@Z 000000014003e7c0 f i game.obj
 0001:0003d800       ??$?0HHHH@?$vec@$03M$0A@@glm@@QEAA@HHHH@Z 000000014003e800 f i game.obj
 0001:0003d860       ??$?0II@?$vec@$01M$0A@@glm@@QEAA@II@Z 000000014003e860 f i game.obj
 0001:0003d8a0       ??$?0IM@?$vec@$01M$0A@@glm@@QEAA@IM@Z 000000014003e8a0 f i game.obj
 0001:0003d8e0       ??$?DM$0A@@glm@@YA?AU?$mat@$03$03M$0A@@0@AEBU10@0@Z 000000014003e8e0 f i game.obj
 0001:0003df10       ??$?DM$0A@@glm@@YA?AU?$vec@$01M$0A@@0@AEBU10@M@Z 000000014003ef10 f i game.obj
 0001:0003df60       ??$?YM@?$vec@$01M$0A@@glm@@QEAAAEAU01@AEBU01@@Z 000000014003ef60 f i game.obj
 0001:0003dfb0       ??$?ZM@?$vec@$01M$0A@@glm@@QEAAAEAU01@AEBU01@@Z 000000014003efb0 f i game.obj
 0001:0003e000       ??$?_0M@?$vec@$01M$0A@@glm@@QEAAAEAU01@AEBU01@@Z 000000014003f000 f i game.obj
 0001:0003e050       ??$?_0M@?$vec@$01M$0A@@glm@@QEAAAEAU01@M@Z 000000014003f050 f i game.obj
 0001:0003e0a0       ??$clamp@M@glm@@YAMMMM@Z   000000014003f0a0 f i game.obj
 0001:0003e0e0       ??$max@M@glm@@YAMMM@Z      000000014003f0e0 f i game.obj
 0001:0003e120       ??$min@M@glm@@YAMMM@Z      000000014003f120 f i game.obj
 0001:0003e160       ??$new_entity@UCannon@@@@YAPEAUCannon@@PEAUEntity_Manager@@PEAUMemory_Arena@@@Z 000000014003f160 f i game.obj
 0001:0003e1b0       ??$new_entity@UEnemy@@@@YAPEAUEnemy@@PEAUEntity_Manager@@PEAUMemory_Arena@@@Z 000000014003f1b0 f i game.obj
 0001:0003e200       ??$new_entity@UPlayer@@@@YAPEAUPlayer@@PEAUEntity_Manager@@PEAUMemory_Arena@@@Z 000000014003f200 f i game.obj
 0001:0003e250       ??$new_entity@UProjectile@@@@YAPEAUProjectile@@PEAUEntity_Manager@@PEAUMemory_Arena@@@Z 000000014003f250 f i game.obj
 0001:0003e2a0       ??$new_entity@UTile_Map@@@@YAPEAUTile_Map@@PEAUEntity_Manager@@PEAUMemory_Arena@@@Z 000000014003f2a0 f i game.obj
 0001:0003e2f0       ??$ortho@M@glm@@YA?AU?$mat@$03$03M$0A@@0@MMMMMM@Z 000000014003f2f0 f i game.obj
 0001:0003e470       ??$orthoLH_NO@M@glm@@YA?AU?$mat@$03$03M$0A@@0@MMMMMM@Z 000000014003f470 f i game.obj
 0001:0003e6f0       ??$orthoLH_ZO@M@glm@@YA?AU?$mat@$03$03M$0A@@0@MMMMMM@Z 000000014003f6f0 f i game.obj
 0001:0003e960       ??$orthoRH_NO@M@glm@@YA?AU?$mat@$03$03M$0A@@0@MMMMMM@Z 000000014003f960 f i game.obj
 0001:0003ebe0       ??$orthoRH_ZO@M@glm@@YA?AU?$mat@$03$03M$0A@@0@MMMMMM@Z 000000014003fbe0 f i game.obj
 0001:0003ee50       ??A?$vec@$03M$0A@@glm@@QEBAAEBMH@Z 000000014003fe50 f i game.obj
 0001:0003eee0       ?ceil@@YAMM@Z              000000014003fee0 f i game.obj
 0001:0003ef00       ?get_entity_type@Cannon@@SAHXZ 000000014003ff00 f i game.obj
 0001:0003ef00       _get_startup_argv_mode     000000014003ff00 f i LIBCMT:argv_mode.obj
 0001:0003ef10       __scrt_initialize_winrt    000000014003ff10 f i LIBCMT:utility_desktop.obj
 0001:0003ef10       _get_startup_thread_locale_mode 000000014003ff10 f i LIBCMT:thread_locale.obj
 0001:0003ef10       _get_startup_commit_mode   000000014003ff10 f i LIBCMT:commit_mode.obj
 0001:0003ef10       ?get_entity_type@Player@@SAHXZ 000000014003ff10 f i game.obj
 0001:0003ef10       _matherr                   000000014003ff10 f i LIBCMT:matherr.obj
 0001:0003ef10       _get_startup_new_mode      000000014003ff10 f i LIBCMT:new_mode.obj
 0001:0003ef10       __scrt_stub_for_initialize_mta 000000014003ff10 f i LIBCMT:utility_desktop.obj
 0001:0003ef10       __scrt_exe_initialize_mta  000000014003ff10 f i LIBCMT:utility_desktop.obj
 0001:0003ef20       ?get_entity_type@Tile_Map@@SAHXZ 000000014003ff20 f i game.obj
 0001:0003ef30       ?point_overlap_rect@@YA_NAEBU?$vec@$01M$0A@@glm@@AEBU?$vec@$03M$0A@@2@@Z 000000014003ff30 f i game.obj
 0001:0003efc0       ?rect_overlap_rect@@YA_NAEBU?$vec@$03M$0A@@glm@@0@Z 000000014003ffc0 f i game.obj
 0001:0003f110       ?screen_to_world_coord@@YA?AU?$vec@$01M$0A@@glm@@PEAUCamera@@U12@@Z 0000000140040110 f i game.obj
 0001:0003f1c0       ?strrchr@@YAPEADQEADH@Z    00000001400401c0 f i game.obj
 0001:0003f1e0       ?value_in_range@@YA_NMMM@Z 00000001400401e0 f i game.obj
 0001:0003f230       _vfprintf_l                0000000140040230 f i game.obj
 0001:0003f280       printf                     0000000140040280 f i game.obj
 0001:0003f2e0       ?error_callback@@YAXHPEBD@Z 00000001400402e0 f   glfw_main.obj
 0001:0003f320       ?key_callback@@YAXPEAUGLFWwindow@@HHHH@Z 0000000140040320 f   glfw_main.obj
 0001:0003f410       ?cursor_position_callback@@YAXPEAUGLFWwindow@@NN@Z 0000000140040410 f   glfw_main.obj
 0001:0003f4b0       ?mouse_button_callback@@YAXPEAUGLFWwindow@@HHH@Z 00000001400404b0 f   glfw_main.obj
 0001:0003f5b0       main                       00000001400405b0 f   glfw_main.obj
 0001:0003f990       ??$?0NN@?$vec@$01M$0A@@glm@@QEAA@NN@Z 0000000140040990 f i glfw_main.obj
 0001:0003f9d0       fprintf                    00000001400409d0 f i glfw_main.obj
 0001:0003fa20       ?set_logger@@YAXPEAULogger@@@Z 0000000140040a20 f   logger.obj
 0001:0003fa50       ?log_info@@YAXPEBDZZ       0000000140040a50 f   logger.obj
 0001:0003faa0       ?log_warning@@YAXPEBDZZ    0000000140040aa0 f   logger.obj
 0001:0003faf0       ?log_error@@YAXPEBDZZ      0000000140040af0 f   logger.obj
 0001:0003fc90       ?map_deinit_@@YAXPEAUmap_base_t@@@Z 0000000140040c90 f   map.obj
 0001:0003fd20       ?map_get_@@YAPEAXPEAUmap_base_t@@PEBD@Z 0000000140040d20 f   map.obj
 0001:0003fd80       ?map_set_@@YAHPEAUmap_base_t@@PEBDPEAXH@Z 0000000140040d80 f   map.obj
 0001:0003feb0       ?map_remove_@@YAXPEAUmap_base_t@@PEBD@Z 0000000140040eb0 f   map.obj
 0001:0003ff30       ?map_iter_@@YA?AUmap_iter_t@@XZ 0000000140040f30 f   map.obj
 0001:0003ff70       ?map_next_@@YAPEBDPEAUmap_base_t@@PEAUmap_iter_t@@@Z 0000000140040f70 f   map.obj
 0001:00040440       ?initialize_arena@@YAXPEAUMemory_Arena@@_KPEAE@Z 0000000140041440 f   memory_arena.obj
 0001:00040480       ?log_arena@@YAXPEAUMemory_Arena@@@Z 0000000140041480 f   memory_arena.obj
 0001:000404e0       ?push_memory@@YAPEAXPEAUMemory_Arena@@_K@Z 00000001400414e0 f   memory_arena.obj
 0001:00040550       ?check_gl_error@@YAHPEADH@Z 0000000140041550 f   opengl.obj
 0001:00040670       ?init_renderer@@YAXPEAX@Z  0000000140041670 f   opengl.obj
 0001:00040730       ?handle_player_movement@@YAXPEAUEntity@@PEAUEntity_Manager@@PEAUGame_Input@@@Z 0000000140041730 f   player_control.obj
 0001:00040cc0       ?init_tilemap@@YAXPEAUTile_Map@@PEAUMemory_Arena@@@Z 0000000140041cc0 f   tilemap.obj
 0001:00040f50       ?add_tile@@YAXIU?$vec@$01M$0A@@glm@@U?$vec@$03M$0A@@2@PEAUTile_Map@@@Z 0000000140041f50 f   tilemap.obj
 0001:00041610       ?add_tile@@YAXIU?$vec@$01M$0A@@glm@@IPEAUTile_Map@@@Z 0000000140042610 f   tilemap.obj
 0001:000416a0       ?remove_tile@@YAXU?$vec@$01M$0A@@glm@@PEAUTile_Map@@@Z 00000001400426a0 f   tilemap.obj
 0001:00041930       gladLoadGL                 0000000140042930 f   glad.obj
 0001:00041970       gladLoadGLLoader           0000000140042970 f   glad.obj
 0001:00042610       gladLoadGLES2Loader        0000000140043610 f   glad.obj
 0001:00042b50       gladLoadGLES1Loader        0000000140043b50 f   glad.obj
 0001:0005cc70       __local_stdio_scanf_options 000000014005dc70 f i glad.obj
 0001:0005cc80       _vsscanf_s_l               000000014005dc80 f i glad.obj
 0001:0005cce0       sscanf_s                   000000014005dce0 f i glad.obj
 0001:0005cd30       vsscanf_s                  000000014005dd30 f i glad.obj
 0001:0005cd60       _glfwInputError            000000014005dd60 f   glfw3:init.obj
 0001:0005d0a0       _glfw_strdup               000000014005e0a0 f   glfw3:init.obj
 0001:0005d0f0       glfwInit                   000000014005e0f0 f   glfw3:init.obj
 0001:0005d220       glfwSetErrorCallback       000000014005e220 f   glfw3:init.obj
 0001:0005d230       glfwTerminate              000000014005e230 f   glfw3:init.obj
 0001:0005d3c0       _glfwInputFramebufferSize  000000014005e3c0 f   glfw3:window.obj
 0001:0005d3d0       _glfwInputWindowCloseRequest 000000014005e3d0 f   glfw3:window.obj
 0001:0005d3f0       _glfwInputWindowContentScale 000000014005e3f0 f   glfw3:window.obj
 0001:0005d400       _glfwInputWindowDamage     000000014005e400 f   glfw3:window.obj
 0001:0005d410       _glfwInputWindowFocus      000000014005e410 f   glfw3:window.obj
 0001:0005d4b0       _glfwInputWindowIconify    000000014005e4b0 f   glfw3:window.obj
 0001:0005d4c0       _glfwInputWindowMaximize   000000014005e4c0 f   glfw3:window.obj
 0001:0005d4d0       _glfwInputWindowMonitor    000000014005e4d0 f   glfw3:window.obj
 0001:0005d4e0       _glfwInputWindowPos        000000014005e4e0 f   glfw3:window.obj
 0001:0005d4f0       _glfwInputWindowSize       000000014005e4f0 f   glfw3:window.obj
 0001:0005d500       glfwCreateWindow           000000014005e500 f   glfw3:window.obj
 0001:0005d820       glfwDefaultWindowHints     000000014005e820 f   glfw3:window.obj
 0001:0005d930       glfwDestroyWindow          000000014005e930 f   glfw3:window.obj
 0001:0005d9d0       glfwGetWindowSize          000000014005e9d0 f   glfw3:window.obj
 0001:0005da00       glfwGetWindowUserPointer   000000014005ea00 f   glfw3:window.obj
 0001:0005da30       glfwPollEvents             000000014005ea30 f   glfw3:window.obj
 0001:0005da50       glfwSetWindowTitle         000000014005ea50 f   glfw3:window.obj
 0001:0005da70       glfwSetWindowUserPointer   000000014005ea70 f   glfw3:window.obj
 0001:0005da90       glfwWindowHint             000000014005ea90 f   glfw3:window.obj
 0001:0005dda0       glfwWindowShouldClose      000000014005eda0 f   glfw3:window.obj
 0001:0005ddd0       _glfwAllocJoystick         000000014005edd0 f   glfw3:input.obj
 0001:0005e040       _glfwFreeJoystick          000000014005f040 f   glfw3:input.obj
 0001:0005e090       _glfwInputChar             000000014005f090 f   glfw3:input.obj
 0001:0005e100       _glfwInputCursorEnter      000000014005f100 f   glfw3:input.obj
 0001:0005e110       _glfwInputCursorPos        000000014005f110 f   glfw3:input.obj
 0001:0005e150       _glfwInputDrop             000000014005f150 f   glfw3:input.obj
 0001:0005e160       _glfwInputJoystick         000000014005f160 f   glfw3:input.obj
 0001:0005e1b0       _glfwInputKey              000000014005f1b0 f   glfw3:input.obj
 0001:0005e240       _glfwInputMouseClick       000000014005f240 f   glfw3:input.obj
 0001:0005e290       _glfwInputScroll           000000014005f290 f   glfw3:input.obj
 0001:0005e420       glfwDestroyCursor          000000014005f420 f   glfw3:input.obj
 0001:0005e4f0       glfwGetTime                000000014005f4f0 f   glfw3:input.obj
 0001:0005e560       glfwSetCursorPosCallback   000000014005f560 f   glfw3:input.obj
 0001:0005e5a0       glfwSetKeyCallback         000000014005f5a0 f   glfw3:input.obj
 0001:0005e5e0       glfwSetMouseButtonCallback 000000014005f5e0 f   glfw3:input.obj
 0001:0005e620       glfwUpdateGamepadMappings  000000014005f620 f   glfw3:input.obj
 0001:0005f060       _glfwChooseFBConfig        0000000140060060 f   glfw3:context.obj
 0001:0005f260       _glfwIsValidContextConfig  0000000140060260 f   glfw3:context.obj
 0001:0005f470       _glfwRefreshContextAttribs 0000000140060470 f   glfw3:context.obj
 0001:0005f850       _glfwStringInExtensionString 0000000140060850 f   glfw3:context.obj
 0001:0005f8c0       glfwExtensionSupported     00000001400608c0 f   glfw3:context.obj
 0001:0005fa70       glfwGetProcAddress         0000000140060a70 f   glfw3:context.obj
 0001:0005fad0       glfwMakeContextCurrent     0000000140060ad0 f   glfw3:context.obj
 0001:0005fb70       glfwSwapBuffers            0000000140060b70 f   glfw3:context.obj
 0001:0005fbb0       glfwSwapInterval           0000000140060bb0 f   glfw3:context.obj
 0001:0005fc10       sscanf                     0000000140060c10 f i glfw3:context.obj
 0001:0005fc70       _glfwCreateUTF8FromWideStringWin32 0000000140060c70 f   glfw3:win32_init.obj
 0001:0005fd50       _glfwCreateWideStringFromUTF8Win32 0000000140060d50 f   glfw3:win32_init.obj
 0001:0005fe20       _glfwInputErrorWin32       0000000140060e20 f   glfw3:win32_init.obj
 0001:0005ff20       _glfwIsWindows10BuildOrGreaterWin32 0000000140060f20 f   glfw3:win32_init.obj
 0001:0005ffd0       _glfwIsWindowsVersionOrGreaterWin32 0000000140060fd0 f   glfw3:win32_init.obj
 0001:000600b0       _glfwPlatformInit          00000001400610b0 f   glfw3:win32_init.obj
 0001:00060550       _glfwPlatformTerminate     0000000140061550 f   glfw3:win32_init.obj
 0001:00060650       _glfwUpdateKeyNamesWin32   0000000140061650 f   glfw3:win32_init.obj
 0001:00060e40       _glfwGetMonitorContentScaleWin32 0000000140061e40 f   glfw3:win32_monitor.obj
 0001:00060f10       _glfwPlatformFreeMonitor   0000000140061f10 f   glfw3:win32_monitor.obj
 0001:00060f20       _glfwPlatformGetMonitorPos 0000000140061f20 f   glfw3:win32_monitor.obj
 0001:00060fc0       _glfwPlatformGetVideoMode  0000000140061fc0 f   glfw3:win32_monitor.obj
 0001:00061080       _glfwPlatformGetVideoModes 0000000140062080 f   glfw3:win32_monitor.obj
 0001:000612a0       _glfwPlatformSetGammaRamp  00000001400622a0 f   glfw3:win32_monitor.obj
 0001:00061480       _glfwPollMonitorsWin32     0000000140062480 f   glfw3:win32_monitor.obj
 0001:00061790       _glfwRestoreVideoModeWin32 0000000140062790 f   glfw3:win32_monitor.obj
 0001:000617e0       _glfwSetVideoModeWin32     00000001400627e0 f   glfw3:win32_monitor.obj
 0001:00061d00       _glfwInitTimerWin32        0000000140062d00 f   glfw3:win32_time.obj
 0001:00061d50       _glfwPlatformGetTimerFrequency 0000000140062d50 f   glfw3:win32_time.obj
 0001:00061d60       _glfwPlatformGetTimerValue 0000000140062d60 f   glfw3:win32_time.obj
 0001:00061d90       _glfwPlatformCreateMutex   0000000140062d90 f   glfw3:win32_thread.obj
 0001:00061dc0       _glfwPlatformCreateTls     0000000140062dc0 f   glfw3:win32_thread.obj
 0001:00061e10       _glfwPlatformDestroyMutex  0000000140062e10 f   glfw3:win32_thread.obj
 0001:00061e50       _glfwPlatformDestroyTls    0000000140062e50 f   glfw3:win32_thread.obj
 0001:00061e80       _glfwPlatformGetTls        0000000140062e80 f   glfw3:win32_thread.obj
 0001:00061e90       _glfwPlatformLockMutex     0000000140062e90 f   glfw3:win32_thread.obj
 0001:00061ea0       _glfwPlatformSetTls        0000000140062ea0 f   glfw3:win32_thread.obj
 0001:00061eb0       _glfwPlatformUnlockMutex   0000000140062eb0 f   glfw3:win32_thread.obj
 0001:00061ec0       _glfwAllocMonitor          0000000140062ec0 f   glfw3:monitor.obj
 0001:00061f20       _glfwChooseVideoMode       0000000140062f20 f   glfw3:monitor.obj
 0001:00062050       _glfwCompareVideoModes     0000000140063050 f   glfw3:monitor.obj
 0001:00062090       _glfwFreeMonitor           0000000140063090 f   glfw3:monitor.obj
 0001:00062130       _glfwInputMonitor          0000000140063130 f   glfw3:monitor.obj
 0001:00062370       _glfwInputMonitorWindow    0000000140063370 f   glfw3:monitor.obj
 0001:00062380       _glfwSplitBPP              0000000140063380 f   glfw3:monitor.obj
 0001:000624a0       _glfwTerminateVulkan       00000001400634a0 f   glfw3:vulkan.obj
 0001:000624c0       _glfwPlatformCreateWindow  00000001400634c0 f   glfw3:win32_window.obj
 0001:000625d0       _glfwPlatformDestroyCursor 00000001400635d0 f   glfw3:win32_window.obj
 0001:000625f0       _glfwPlatformDestroyWindow 00000001400635f0 f   glfw3:win32_window.obj
 0001:00062690       _glfwPlatformFocusWindow   0000000140063690 f   glfw3:win32_window.obj
 0001:000626d0       _glfwPlatformGetWindowSize 00000001400636d0 f   glfw3:win32_window.obj
 0001:000626d0       _glfwPlatformGetFramebufferSize 00000001400636d0 f   glfw3:win32_window.obj
 0001:00062730       _glfwPlatformGetKeyScancode 0000000140063730 f   glfw3:win32_window.obj
 0001:00062740       _glfwPlatformGetWindowFrameSize 0000000140063740 f   glfw3:win32_window.obj
 0001:00062900       _glfwPlatformPollEvents    0000000140063900 f   glfw3:win32_window.obj
 0001:00062ae0       _glfwPlatformSetCursor     0000000140063ae0 f   glfw3:win32_window.obj
 0001:00062b50       _glfwPlatformSetCursorPos  0000000140063b50 f   glfw3:win32_window.obj
 0001:00062ba0       _glfwPlatformSetWindowMonitor 0000000140063ba0 f   glfw3:win32_window.obj
 0001:00062fb0       _glfwPlatformSetWindowPos  0000000140063fb0 f   glfw3:win32_window.obj
 0001:000630e0       _glfwPlatformSetWindowTitle 00000001400640e0 f   glfw3:win32_window.obj
 0001:00063120       _glfwPlatformShowWindow    0000000140064120 f   glfw3:win32_window.obj
 0001:00063140       _glfwRegisterWindowClassWin32 0000000140064140 f   glfw3:win32_window.obj
 0001:00063240       _glfwUnregisterWindowClassWin32 0000000140064240 f   glfw3:win32_window.obj
 0001:00064e70       _glfwDetectJoystickConnectionWin32 0000000140065e70 f   glfw3:win32_joystick.obj
 0001:00065070       _glfwDetectJoystickDisconnectionWin32 0000000140066070 f   glfw3:win32_joystick.obj
 0001:00065190       _glfwInitJoysticksWin32    0000000140066190 f   glfw3:win32_joystick.obj
 0001:000653f0       _glfwPlatformUpdateGamepadGUID 00000001400663f0 f   glfw3:win32_joystick.obj
 0001:00065470       _glfwTerminateJoysticksWin32 0000000140066470 f   glfw3:win32_joystick.obj
 0001:00065c50       sprintf                    0000000140066c50 f i glfw3:win32_joystick.obj
 0001:00065cb0       _glfwCreateContextWGL      0000000140066cb0 f   glfw3:wgl_context.obj
 0001:00066110       _glfwInitWGL               0000000140067110 f   glfw3:wgl_context.obj
 0001:000664d0       _glfwTerminateWGL          00000001400674d0 f   glfw3:wgl_context.obj
 0001:00066c50       _glfwCreateContextEGL      0000000140067c50 f   glfw3:egl_context.obj
 0001:00067120       _glfwInitEGL               0000000140068120 f   glfw3:egl_context.obj
 0001:00067660       _glfwTerminateEGL          0000000140068660 f   glfw3:egl_context.obj
 0001:00067ce0       _glfwCreateContextOSMesa   0000000140068ce0 f   glfw3:osmesa_context.obj
 0001:00067f10       _glfwInitOSMesa            0000000140068f10 f   glfw3:osmesa_context.obj
 0001:0006822c       __GSHandlerCheck           000000014006922c f   LIBCMT:gshandler.obj
 0001:0006824c       __GSHandlerCheckCommon     000000014006924c f   LIBCMT:gshandler.obj
 0001:000682c0       _alloca_probe              00000001400692c0 f   LIBCMT:chkstk.obj
 0001:000682c0       __chkstk                   00000001400692c0 f   LIBCMT:chkstk.obj
 0001:00068330       __security_check_cookie    0000000140069330 f   LIBCMT:amdsecgs.obj
 0001:000684dc       _Init_thread_footer        00000001400694dc f   LIBCMT:thread_safe_statics.obj
 0001:0006853c       _Init_thread_header        000000014006953c f   LIBCMT:thread_safe_statics.obj
 0001:000685a4       _Init_thread_notify        00000001400695a4 f   LIBCMT:thread_safe_statics.obj
 0001:000685f4       _Init_thread_wait          00000001400695f4 f   LIBCMT:thread_safe_statics.obj
 0001:0006866c       __raise_securityfailure    000000014006966c f   LIBCMT:gs_report.obj
 0001:000686a0       __report_gsfailure         00000001400696a0 f   LIBCMT:gs_report.obj
 0001:00068774       __report_rangecheckfailure 0000000140069774 f   LIBCMT:gs_report.obj
 0001:00068788       __report_securityfailure   0000000140069788 f   LIBCMT:gs_report.obj
 0001:00068b68       mainCRTStartup             0000000140069b68 f   LIBCMT:exe_main.obj
 0001:00068b7c       __scrt_acquire_startup_lock 0000000140069b7c f   LIBCMT:utility.obj
 0001:00068bb8       __scrt_initialize_crt      0000000140069bb8 f   LIBCMT:utility.obj
 0001:00068c04       __scrt_initialize_onexit_tables 0000000140069c04 f   LIBCMT:utility.obj
 0001:00068cdc       __scrt_is_nonwritable_in_current_image 0000000140069cdc f   LIBCMT:utility.obj
 0001:00068d78       __scrt_release_startup_lock 0000000140069d78 f   LIBCMT:utility.obj
 0001:00068d9c       __scrt_uninitialize_crt    0000000140069d9c f   LIBCMT:utility.obj
 0001:00068dc8       _onexit                    0000000140069dc8 f   LIBCMT:utility.obj
 0001:00068e18       atexit                     0000000140069e18 f   LIBCMT:utility.obj
 0001:00068e30       __crt_debugger_hook        0000000140069e30 f   LIBCMT:utility_desktop.obj
 0001:00068e38       __scrt_fastfail            0000000140069e38 f   LIBCMT:utility_desktop.obj
 0001:00068f84       __scrt_initialize_mta      0000000140069f84 f   LIBCMT:utility_desktop.obj
 0001:00068f8c       __scrt_is_managed_app      0000000140069f8c f   LIBCMT:utility_desktop.obj
 0001:00068fe0       __scrt_set_unhandled_exception_filter 0000000140069fe0 f   LIBCMT:utility_desktop.obj
 0001:00068ff0       __scrt_unhandled_exception_filter 0000000140069ff0 f   LIBCMT:utility_desktop.obj
 0001:00069028       _guard_check_icall_nop     000000014006a028 f i LIBCMT:guard_support.obj
 0001:00069028       _initialize_denormal_control 000000014006a028 f i LIBCMT:denormal_control.obj
 0001:00069028       _initialize_invalid_parameter_handler 000000014006a028 f i LIBCMT:invalid_parameter_handler.obj
 0001:0006902c       __security_init_cookie     000000014006a02c f   LIBCMT:gs_support.obj
 0001:000690d8       _get_startup_file_mode     000000014006a0d8 f   LIBCMT:file_mode.obj
 0001:000690e0       ?__scrt_initialize_type_info@@YAXXZ 000000014006a0e0 f   LIBCMT:tncleanup.obj
 0001:000690f0       _should_initialize_environment 000000014006a0f0 f   LIBCMT:env_mode.obj
 0001:000690f0       __acrt_uninitialize_command_line 000000014006a0f0 f   libucrt:argv_data.obj
 0001:000690f4       __scrt_initialize_default_local_stdio_options 000000014006a0f4 f   LIBCMT:default_local_stdio_options.obj
 0001:00069110       __scrt_is_user_matherr_present 000000014006a110 f   LIBCMT:matherr_detection.obj
 0001:0006911c       __scrt_get_dyn_tls_init_callback 000000014006a11c f   LIBCMT:dyn_tls_init.obj
 0001:00069124       __scrt_get_dyn_tls_dtor_callback 000000014006a124 f   LIBCMT:dyn_tls_dtor.obj
 0001:0006912c       _RTC_Initialize            000000014006a12c f   LIBCMT:initsect.obj
 0001:00069168       _RTC_Terminate             000000014006a168 f   LIBCMT:initsect.obj
 0001:000691a4       __isa_available_init       000000014006a1a4 f   LIBCMT:cpu_disp.obj
 0001:00069360       __scrt_is_ucrt_dll_in_use  000000014006a360 f   LIBCMT:ucrt_detection.obj
 0001:00069370       IsProcessorFeaturePresent  000000014006a370 f   kernel32:KERNEL32.dll
 0001:00069378       strchr                     000000014006a378 f   libvcruntime:strchr.obj
 0001:00069404       strrchr                    000000014006a404 f   libvcruntime:strrchr.obj
 0001:00069560       memcmp                     000000014006a560 f   libvcruntime:memcmp.obj
 0001:00069628       strstr                     000000014006a628 f   libvcruntime:strstr.obj
 0001:00069840       memset_repmovs             000000014006a840 f   libvcruntime:memset.obj
 0001:00069860       memset                     000000014006a860 f   libvcruntime:memset.obj
 0001:00069a00       memcpy_repmovs             000000014006aa00 f   libvcruntime:memcpy.obj
 0001:00069a20       memcpy                     000000014006aa20 f   libvcruntime:memcpy.obj
 0001:00069a20       memmove                    000000014006aa20 f   libvcruntime:memcpy.obj
 0001:00069e58       __DestructExceptionObject  000000014006ae58 f   libvcruntime:ehhelpers.obj
 0001:00069ecc       ?_CallMemberFunction0@@YAXQEAX0@Z 000000014006aecc f i libvcruntime:ehhelpers.obj
 0001:00069ed0       _IsExceptionObjectToBeDestroyed 000000014006aed0 f   libvcruntime:ehhelpers.obj
 0001:00069f00       __AdjustPointer            000000014006af00 f   libvcruntime:ehhelpers.obj
 0001:00069f24       __FrameUnwindFilter        000000014006af24 f   libvcruntime:ehhelpers.obj
 0001:00069f70       __std_terminate            000000014006af70 f   libvcruntime:ehhelpers.obj
 0001:00069f7c       ??$_CallSETranslator@V__FrameHandler3@@@@YAHPEAUEHExceptionRecord@@PEA_KPEAU_CONTEXT@@PEAU_xDISPATCHER_CONTEXT@@PEBU_s_FuncInfo@@K1@Z 000000014006af7c f i libvcruntime:risctrnsctrl.obj
 0001:00069fd0       ?CatchTryBlock@__FrameHandler3@@SAPEBU_s_TryBlockMapEntry@@PEBU_s_FuncInfo@@H@Z 000000014006afd0 f   libvcruntime:risctrnsctrl.obj
 0001:0006a028       ?ExecutionInCatch@__FrameHandler3@@SA_NPEAU_xDISPATCHER_CONTEXT@@PEBU_s_FuncInfo@@@Z 000000014006b028 f   libvcruntime:risctrnsctrl.obj
 0001:0006a054       ?FrameUnwindToEmptyState@__FrameHandler3@@SAXPEA_KPEAU_xDISPATCHER_CONTEXT@@PEBU_s_FuncInfo@@@Z 000000014006b054 f   libvcruntime:risctrnsctrl.obj
 0001:0006a0b8       ?GetEstablisherFrame@__FrameHandler3@@SAPEA_KPEA_KPEAU_xDISPATCHER_CONTEXT@@PEBU_s_FuncInfo@@0@Z 000000014006b0b8 f   libvcruntime:risctrnsctrl.obj
 0001:0006a184       ?GetRangeOfTrysToCheck@__FrameHandler3@@SA?AU?$pair@Viterator@TryBlockMap@__FrameHandler3@@V123@@std@@AEAVTryBlockMap@1@HH@Z 000000014006b184 f   libvcruntime:risctrnsctrl.obj
 0001:0006a2e0       ?UnwindNestedFrames@__FrameHandler3@@SAXPEA_KPEAUEHExceptionRecord@@PEAU_CONTEXT@@0PEAXPEBU_s_FuncInfo@@HHPEBU_s_HandlerType@@PEAU_xDISPATCHER_CONTEXT@@E@Z 000000014006b2e0 f   libvcruntime:risctrnsctrl.obj
 0001:0006a404       _CreateFrameInfo           000000014006b404 f   libvcruntime:risctrnsctrl.obj
 0001:0006a440       _FindAndUnlinkFrame        000000014006b440 f   libvcruntime:risctrnsctrl.obj
 0001:0006a494       _GetImageBase              000000014006b494 f   libvcruntime:risctrnsctrl.obj
 0001:0006a4a8       _GetThrowImageBase         000000014006b4a8 f   libvcruntime:risctrnsctrl.obj
 0001:0006a4bc       _SetImageBase              000000014006b4bc f   libvcruntime:risctrnsctrl.obj
 0001:0006a4d4       _SetThrowImageBase         000000014006b4d4 f   libvcruntime:risctrnsctrl.obj
 0001:0006a4ec       __CxxFrameHandler3         000000014006b4ec f   libvcruntime:risctrnsctrl.obj
 0001:0006a56c       __C_specific_handler       000000014006b56c f   libvcruntime:riscchandler.obj
 0001:0006a778       __vcrt_initialize          000000014006b778 f   libvcruntime:initialization.obj
 0001:0006a7ac       __vcrt_uninitialize        000000014006b7ac f   libvcruntime:initialization.obj
 0001:0006a7cc       __std_type_info_compare    000000014006b7cc f   libvcruntime:std_type_info.obj
 0001:0006a7f4       __vcrt_freefls             000000014006b7f4 f   libvcruntime:per_thread_data.obj
 0001:0006a814       __vcrt_getptd              000000014006b814 f   libvcruntime:per_thread_data.obj
 0001:0006a830       __vcrt_getptd_noexit       000000014006b830 f   libvcruntime:per_thread_data.obj
 0001:0006a8fc       __vcrt_initialize_ptd      000000014006b8fc f   libvcruntime:per_thread_data.obj
 0001:0006a950       __vcrt_uninitialize_ptd    000000014006b950 f   libvcruntime:per_thread_data.obj
 0001:0006a974       ?GetCurrentState@__FrameHandler3@@SAHPEA_KPEAU_xDISPATCHER_CONTEXT@@PEBU_s_FuncInfo@@@Z 000000014006b974 f   libvcruntime:ehstate.obj
 0001:0006a99c       ?GetUnwindTryBlock@__FrameHandler3@@SAHPEA_KPEAU_xDISPATCHER_CONTEXT@@PEBU_s_FuncInfo@@@Z 000000014006b99c f   libvcruntime:ehstate.obj
 0001:0006a9c8       ?SetState@__FrameHandler3@@SAXPEA_KPEBU_s_FuncInfo@@H@Z 000000014006b9c8 f   libvcruntime:ehstate.obj
 0001:0006a9d4       ?SetUnwindTryBlock@__FrameHandler3@@SAXPEA_KPEAU_xDISPATCHER_CONTEXT@@PEBU_s_FuncInfo@@H@Z 000000014006b9d4 f   libvcruntime:ehstate.obj
 0001:0006aa10       ?StateFromControlPc@__FrameHandler3@@SAHPEBU_s_FuncInfo@@PEAU_xDISPATCHER_CONTEXT@@@Z 000000014006ba10 f   libvcruntime:ehstate.obj
 0001:0006aa18       ?StateFromIp@__FrameHandler3@@SAHPEBU_s_FuncInfo@@PEAU_xDISPATCHER_CONTEXT@@_K@Z 000000014006ba18 f   libvcruntime:ehstate.obj
 0001:0006b4a4       ??$TypeMatchHelper@V__FrameHandler3@@@@YAHPEBU_s_HandlerType@@PEBU_s_CatchableType@@PEBU_s_ThrowInfo@@@Z 000000014006c4a4 f i libvcruntime:frame.obj
 0001:0006b5e8       ??$__InternalCxxFrameHandler@V__FrameHandler3@@@@YA?AW4_EXCEPTION_DISPOSITION@@PEAUEHExceptionRecord@@PEA_KPEAU_CONTEXT@@PEAU_xDISPATCHER_CONTEXT@@PEBU_s_FuncInfo@@H1E@Z 000000014006c5e8 f i libvcruntime:frame.obj
 0001:0006b830       ??0bad_exception@std@@QEAA@AEBV01@@Z 000000014006c830 f i libvcruntime:frame.obj
 0001:0006b870       ??0bad_exception@std@@QEAA@XZ 000000014006c870 f i libvcruntime:frame.obj
 0001:0006b890       ??0exception@std@@QEAA@AEBV01@@Z 000000014006c890 f i libvcruntime:frame.obj
 0001:0006b8c8       ??1bad_exception@std@@UEAA@XZ 000000014006c8c8 f i libvcruntime:frame.obj
 0001:0006b8dc       ??_Ebad_exception@std@@UEAAPEAXI@Z 000000014006c8dc f i libvcruntime:frame.obj
 0001:0006b8dc       ??_Gexception@std@@UEAAPEAXI@Z 000000014006c8dc f i libvcruntime:frame.obj
 0001:0006b8dc       ??_Eexception@std@@UEAAPEAXI@Z 000000014006c8dc f i libvcruntime:frame.obj
 0001:0006b8dc       ??_Gbad_exception@std@@UEAAPEAXI@Z 000000014006c8dc f i libvcruntime:frame.obj
 0001:0006b920       ?CxxCallCatchBlock@__FrameHandler3@@SAPEAXPEAU_EXCEPTION_RECORD@@@Z 000000014006c920 f   libvcruntime:frame.obj
 0001:0006bb94       ?FrameUnwindToState@__FrameHandler3@@SAXPEA_KPEAU_xDISPATCHER_CONTEXT@@PEBU_s_FuncInfo@@H@Z 000000014006cb94 f   libvcruntime:frame.obj
 0001:0006bd28       ?GetHandlerSearchState@__FrameHandler3@@SAHPEA_KPEAU_xDISPATCHER_CONTEXT@@PEBU_s_FuncInfo@@@Z 000000014006cd28 f i libvcruntime:frame.obj
 0001:0006bf2c       ?_CallMemberFunction1@@YAXQEAX00@Z 000000014006cf2c f i libvcruntime:frame.obj
 0001:0006bf38       ?_CallMemberFunction2@@YAXQEAX00H@Z 000000014006cf38 f i libvcruntime:frame.obj
 0001:0006bf48       ?what@exception@std@@UEBAPEBDXZ 000000014006cf48 f i libvcruntime:frame.obj
 0001:0006bf70       _NLG_Notify                000000014006cf70 f   libvcruntime:notify.obj
 0001:0006bf90       __NLG_Dispatch2            000000014006cf90 f   libvcruntime:notify.obj
 0001:0006bfa0       __NLG_Return2              000000014006cfa0 f   libvcruntime:notify.obj
 0001:0006bfa4       __except_validate_context_record 000000014006cfa4 f   libvcruntime:jbcxrval.obj
 0001:0006bfdc       __vcrt_initialize_locks    000000014006cfdc f   libvcruntime:locks.obj
 0001:0006c024       __vcrt_uninitialize_locks  000000014006d024 f   libvcruntime:locks.obj
 0001:0006c234       __vcrt_FlsAlloc            000000014006d234 f   libvcruntime:winapi_downlevel.obj
 0001:0006c27c       __vcrt_FlsFree             000000014006d27c f   libvcruntime:winapi_downlevel.obj
 0001:0006c2c4       __vcrt_FlsGetValue         000000014006d2c4 f   libvcruntime:winapi_downlevel.obj
 0001:0006c30c       __vcrt_FlsSetValue         000000014006d30c f   libvcruntime:winapi_downlevel.obj
 0001:0006c360       __vcrt_InitializeCriticalSectionEx 000000014006d360 f   libvcruntime:winapi_downlevel.obj
 0001:0006c3c4       __vcrt_initialize_winapi_thunks 000000014006d3c4 f   libvcruntime:winapi_downlevel.obj
 0001:0006c3f4       __vcrt_uninitialize_winapi_thunks 000000014006d3f4 f   libvcruntime:winapi_downlevel.obj
 0001:0006c434       __vcrt_initialize_pure_virtual_call_handler 000000014006d434 f   libvcruntime:purevirt_data.obj
 0001:0006c460       _CallSettingFrame          000000014006d460 f   libvcruntime:handlers.obj
 0001:0006c4b0       _CallSettingFrameEncoded   000000014006d4b0 f   libvcruntime:handlers.obj
 0001:0006c4f8       __std_exception_copy       000000014006d4f8 f   libvcruntime:std_exception.obj
 0001:0006c588       __std_exception_destroy    000000014006d588 f   libvcruntime:std_exception.obj
 0001:0006c5b0       _CxxThrowException         000000014006d5b0 f   libvcruntime:throw.obj
 0001:0006cd88       ??$ftprintf@PEAU_iobuf@@PEB_WAEBQEB_WAEBQEB_WAEBI@?$__crt_char_traits@_W@@SAH$$QEAPEAU_iobuf@@$$QEAPEB_WAEBQEB_W2AEBI@Z 000000014006dd88 f i libucrt:assert.obj
 0001:0006cdb0       _wassert                   000000014006ddb0 f   libucrt:assert.obj
 0001:0006ce24       fwprintf                   000000014006de24 f i libucrt:assert.obj
 0001:0006ce68       swprintf                   000000014006de68 f i libucrt:assert.obj
 0001:0006cebc       free                       000000014006debc f   libucrt:free.obj
 0001:0006ced0       malloc                     000000014006ded0 f   libucrt:malloc.obj
 0001:0006ced8       realloc                    000000014006ded8 f   libucrt:realloc.obj
 0001:0006cee0       ??$is_overflow_condition@_K@__crt_strtox@@YA_NI_K@Z 000000014006dee0 f i libucrt:strtox.obj
 0001:0006cf10       ??$parse_integer@KV?$c_string_character_source@D@__crt_strtox@@@__crt_strtox@@YAKQEAU__crt_locale_pointers@@V?$c_string_character_source@D@0@H_N@Z 000000014006df10 f i libucrt:strtox.obj
 0001:0006d24c       ??$parse_integer@KV?$c_string_character_source@_W@__crt_strtox@@@__crt_strtox@@YAKQEAU__crt_locale_pointers@@V?$c_string_character_source@_W@0@H_N@Z 000000014006e24c f i libucrt:strtox.obj
 0001:0006d900       ??$parse_integer@_KV?$c_string_character_source@D@__crt_strtox@@@__crt_strtox@@YA_KQEAU__crt_locale_pointers@@V?$c_string_character_source@D@0@H_N@Z 000000014006e900 f i libucrt:strtox.obj
 0001:0006dc30       ??0_LocaleUpdate@@QEAA@QEAU__crt_locale_pointers@@@Z 000000014006ec30 f i libucrt:strtox.obj
 0001:0006dccc       strtol                     000000014006eccc f   libucrt:strtox.obj
 0001:0006dcf8       strtoul                    000000014006ecf8 f   libucrt:strtox.obj
 0001:0006dd24       strtoull                   000000014006ed24 f   libucrt:strtox.obj
 0001:0006dd50       wcstol                     000000014006ed50 f   libucrt:strtox.obj
 0001:0006dd7c       ldexp                      000000014006ed7c f   libucrt:ldexp.obj
 0001:0006df00       strncmp                    000000014006ef00 f   libucrt:strncmp.obj
 0001:0006e03c       fopen                      000000014006f03c f   libucrt:fopen.obj
 0001:0006e048       fopen_s                    000000014006f048 f   libucrt:fopen.obj
 0001:0006e0a0       _fclose_nolock             000000014006f0a0 f   libucrt:fclose.obj
 0001:0006e124       fclose                     000000014006f124 f   libucrt:fclose.obj
 0001:0006e188       feof                       000000014006f188 f   libucrt:feoferr.obj
 0001:0006e1b4       _fread_nolock_s            000000014006f1b4 f   libucrt:fread.obj
 0001:0006e444       fread                      000000014006f444 f   libucrt:fread.obj
 0001:0006e464       fread_s                    000000014006f464 f   libucrt:fread.obj
 0001:0006e714       _fseeki64                  000000014006f714 f   libucrt:fseek.obj
 0001:0006e71c       fseek                      000000014006f71c f   libucrt:fseek.obj
 0001:0006ec64       _ftelli64                  000000014006fc64 f   libucrt:ftell.obj
 0001:0006ec6c       _ftelli64_nolock           000000014006fc6c f   libucrt:ftell.obj
 0001:0006ec74       ftell                      000000014006fc74 f   libucrt:ftell.obj
 0001:0006f09c       ??$ensure_buffer_is_big_enough@D@formatting_buffer@__crt_stdio_output@@QEAA_N_K@Z 000000014007009c f i libucrt:output.obj
 0001:0006f144       ??$ensure_buffer_is_big_enough@_W@formatting_buffer@__crt_stdio_output@@QEAA_N_K@Z 0000000140070144 f i libucrt:output.obj
 0001:0006f1f0       ??$is_wide_character_specifier@_W@__crt_stdio_output@@YA_N_K_WW4length_modifier@0@@Z 00000001400701f0 f i libucrt:output.obj
 0001:0006f230       ??$type_case_integer_parse_into_buffer@I@?$output_processor@DV?$stream_output_adapter@D@__crt_stdio_output@@V?$standard_base@DV?$stream_output_adapter@D@__crt_stdio_output@@@2@@__crt_stdio_output@@AEAAXII_N@Z 0000000140070230 f i libucrt:output.obj
 0001:0006f230       ??$type_case_integer_parse_into_buffer@I@?$output_processor@DV?$string_output_adapter@D@__crt_stdio_output@@V?$standard_base@DV?$string_output_adapter@D@__crt_stdio_output@@@2@@__crt_stdio_output@@AEAAXII_N@Z 0000000140070230 f i libucrt:output.obj
 0001:0006f2c0       ??$type_case_integer_parse_into_buffer@I@?$output_processor@_WV?$string_output_adapter@_W@__crt_stdio_output@@V?$standard_base@_WV?$string_output_adapter@_W@__crt_stdio_output@@@2@@__crt_stdio_output@@AEAAXII_N@Z 00000001400702c0 f i libucrt:output.obj
 0001:0006f2c0       ??$type_case_integer_parse_into_buffer@I@?$output_processor@_WV?$stream_output_adapter@_W@__crt_stdio_output@@V?$standard_base@_WV?$stream_output_adapter@_W@__crt_stdio_output@@@2@@__crt_stdio_output@@AEAAXII_N@Z 00000001400702c0 f i libucrt:output.obj
 0001:0006f364       ??$type_case_integer_parse_into_buffer@_K@?$output_processor@DV?$stream_output_adapter@D@__crt_stdio_output@@V?$standard_base@DV?$stream_output_adapter@D@__crt_stdio_output@@@2@@__crt_stdio_output@@AEAAX_KI_N@Z 0000000140070364 f i libucrt:output.obj
 0001:0006f364       ??$type_case_integer_parse_into_buffer@_K@?$output_processor@DV?$string_output_adapter@D@__crt_stdio_output@@V?$standard_base@DV?$string_output_adapter@D@__crt_stdio_output@@@2@@__crt_stdio_output@@AEAAX_KI_N@Z 0000000140070364 f i libucrt:output.obj
 0001:0006f3f8       ??$type_case_integer_parse_into_buffer@_K@?$output_processor@_WV?$string_output_adapter@_W@__crt_stdio_output@@V?$standard_base@_WV?$string_output_adapter@_W@__crt_stdio_output@@@2@@__crt_stdio_output@@AEAAX_KI_N@Z 00000001400703f8 f i libucrt:output.obj
 0001:0006f3f8       ??$type_case_integer_parse_into_buffer@_K@?$output_processor@_WV?$stream_output_adapter@_W@__crt_stdio_output@@V?$standard_base@_WV?$stream_output_adapter@_W@__crt_stdio_output@@@2@@__crt_stdio_output@@AEAAX_KI_N@Z 00000001400703f8 f i libucrt:output.obj
 0001:0006f49c       ??$write_multiple_characters@V?$stream_output_adapter@D@__crt_stdio_output@@D@__crt_stdio_output@@YAXAEBV?$stream_output_adapter@D@0@DHQEAH@Z 000000014007049c f i libucrt:output.obj
 0001:0006f528       ??$write_multiple_characters@V?$stream_output_adapter@_W@__crt_stdio_output@@D@__crt_stdio_output@@YAXAEBV?$stream_output_adapter@_W@0@DHQEAH@Z 0000000140070528 f i libucrt:output.obj
 0001:0006f5bc       ??$write_multiple_characters@V?$string_output_adapter@D@__crt_stdio_output@@D@__crt_stdio_output@@YAXAEBV?$string_output_adapter@D@0@DHQEAH@Z 00000001400705bc f i libucrt:output.obj
 0001:0006f634       ??$write_multiple_characters@V?$string_output_adapter@_W@__crt_stdio_output@@D@__crt_stdio_output@@YAXAEBV?$string_output_adapter@_W@0@DHQEAH@Z 0000000140070634 f i libucrt:output.obj
 0001:0006f914       ?crop_zeroes@__crt_stdio_output@@YAXPEADQEAU__crt_locale_pointers@@@Z 0000000140070914 f i libucrt:output.obj
 0001:0006f980       ?force_decimal_point@__crt_stdio_output@@YAXPEADQEAU__crt_locale_pointers@@@Z 0000000140070980 f i libucrt:output.obj
 0001:0006f9f0       ?parse_int_from_format_string@?$output_processor@DV?$stream_output_adapter@D@__crt_stdio_output@@V?$standard_base@DV?$stream_output_adapter@D@__crt_stdio_output@@@2@@__crt_stdio_output@@AEAA_NQEAH@Z 00000001400709f0 f i libucrt:output.obj
 0001:0006f9f0       ?parse_int_from_format_string@?$output_processor@DV?$string_output_adapter@D@__crt_stdio_output@@V?$standard_base@DV?$string_output_adapter@D@__crt_stdio_output@@@2@@__crt_stdio_output@@AEAA_NQEAH@Z 00000001400709f0 f i libucrt:output.obj
 0001:0006fa94       ?parse_int_from_format_string@?$output_processor@_WV?$stream_output_adapter@_W@__crt_stdio_output@@V?$standard_base@_WV?$stream_output_adapter@_W@__crt_stdio_output@@@2@@__crt_stdio_output@@AEAA_NQEAH@Z 0000000140070a94 f i libucrt:output.obj
 0001:0006fa94       ?parse_int_from_format_string@?$output_processor@_WV?$string_output_adapter@_W@__crt_stdio_output@@V?$standard_base@_WV?$string_output_adapter@_W@__crt_stdio_output@@@2@@__crt_stdio_output@@AEAA_NQEAH@Z 0000000140070a94 f i libucrt:output.obj
 0001:0006fb38       ?process@?$output_processor@DV?$stream_output_adapter@D@__crt_stdio_output@@V?$standard_base@DV?$stream_output_adapter@D@__crt_stdio_output@@@2@@__crt_stdio_output@@QEAAHXZ 0000000140070b38 f i libucrt:output.obj
 0001:0006fd50       ?process@?$output_processor@DV?$string_output_adapter@D@__crt_stdio_output@@V?$standard_base@DV?$string_output_adapter@D@__crt_stdio_output@@@2@@__crt_stdio_output@@QEAAHXZ 0000000140070d50 f i libucrt:output.obj
 0001:0006ff5c       ?process@?$output_processor@_WV?$stream_output_adapter@_W@__crt_stdio_output@@V?$standard_base@_WV?$stream_output_adapter@_W@__crt_stdio_output@@@2@@__crt_stdio_output@@QEAAHXZ 0000000140070f5c f i libucrt:output.obj
 0001:000701c8       ?process@?$output_processor@_WV?$string_output_adapter@_W@__crt_stdio_output@@V?$standard_base@_WV?$string_output_adapter@_W@__crt_stdio_output@@@2@@__crt_stdio_output@@QEAAHXZ 00000001400711c8 f i libucrt:output.obj
 0001:00070444       ?state_case_normal@?$output_processor@DV?$stream_output_adapter@D@__crt_stdio_output@@V?$standard_base@DV?$stream_output_adapter@D@__crt_stdio_output@@@2@@__crt_stdio_output@@AEAA_NXZ 0000000140071444 f i libucrt:output.obj
 0001:000704b4       ?state_case_normal@?$output_processor@DV?$string_output_adapter@D@__crt_stdio_output@@V?$standard_base@DV?$string_output_adapter@D@__crt_stdio_output@@@2@@__crt_stdio_output@@AEAA_NXZ 00000001400714b4 f i libucrt:output.obj
 0001:00070528       ?state_case_normal_tchar@?$output_processor@DV?$stream_output_adapter@D@__crt_stdio_output@@V?$standard_base@DV?$stream_output_adapter@D@__crt_stdio_output@@@2@@__crt_stdio_output@@AEAA_ND@Z 0000000140071528 f i libucrt:output.obj
 0001:000705cc       ?state_case_normal_tchar@?$output_processor@DV?$string_output_adapter@D@__crt_stdio_output@@V?$standard_base@DV?$string_output_adapter@D@__crt_stdio_output@@@2@@__crt_stdio_output@@AEAA_ND@Z 00000001400715cc f i libucrt:output.obj
 0001:00070674       ?state_case_size@?$output_processor@DV?$stream_output_adapter@D@__crt_stdio_output@@V?$standard_base@DV?$stream_output_adapter@D@__crt_stdio_output@@@2@@__crt_stdio_output@@AEAA_NXZ 0000000140071674 f i libucrt:output.obj
 0001:000707e8       ?state_case_size@?$output_processor@DV?$string_output_adapter@D@__crt_stdio_output@@V?$standard_base@DV?$string_output_adapter@D@__crt_stdio_output@@@2@@__crt_stdio_output@@AEAA_NXZ 00000001400717e8 f i libucrt:output.obj
 0001:0007095c       ?state_case_size@?$output_processor@_WV?$stream_output_adapter@_W@__crt_stdio_output@@V?$standard_base@_WV?$stream_output_adapter@_W@__crt_stdio_output@@@2@@__crt_stdio_output@@AEAA_NXZ 000000014007195c f i libucrt:output.obj
 0001:00070af4       ?state_case_size@?$output_processor@_WV?$string_output_adapter@_W@__crt_stdio_output@@V?$standard_base@_WV?$string_output_adapter@_W@__crt_stdio_output@@@2@@__crt_stdio_output@@AEAA_NXZ 0000000140071af4 f i libucrt:output.obj
 0001:00070c8c       ?state_case_type@?$output_processor@DV?$stream_output_adapter@D@__crt_stdio_output@@V?$standard_base@DV?$stream_output_adapter@D@__crt_stdio_output@@@2@@__crt_stdio_output@@AEAA_NXZ 0000000140071c8c f i libucrt:output.obj
 0001:00070f10       ?state_case_type@?$output_processor@DV?$string_output_adapter@D@__crt_stdio_output@@V?$standard_base@DV?$string_output_adapter@D@__crt_stdio_output@@@2@@__crt_stdio_output@@AEAA_NXZ 0000000140071f10 f i libucrt:output.obj
 0001:00071178       ?state_case_type@?$output_processor@_WV?$stream_output_adapter@_W@__crt_stdio_output@@V?$standard_base@_WV?$stream_output_adapter@_W@__crt_stdio_output@@@2@@__crt_stdio_output@@AEAA_NXZ 0000000140072178 f i libucrt:output.obj
 0001:00071458       ?state_case_type@?$output_processor@_WV?$string_output_adapter@_W@__crt_stdio_output@@V?$standard_base@_WV?$string_output_adapter@_W@__crt_stdio_output@@@2@@__crt_stdio_output@@AEAA_NXZ 0000000140072458 f i libucrt:output.obj
 0001:00071724       ?type_case_Z@?$output_processor@DV?$string_output_adapter@D@__crt_stdio_output@@V?$standard_base@DV?$string_output_adapter@D@__crt_stdio_output@@@2@@__crt_stdio_output@@AEAA_NXZ 0000000140072724 f i libucrt:output.obj
 0001:00071724       ?type_case_Z@?$output_processor@DV?$stream_output_adapter@D@__crt_stdio_output@@V?$standard_base@DV?$stream_output_adapter@D@__crt_stdio_output@@@2@@__crt_stdio_output@@AEAA_NXZ 0000000140072724 f i libucrt:output.obj
 0001:0007179c       ?type_case_Z@?$output_processor@_WV?$string_output_adapter@_W@__crt_stdio_output@@V?$standard_base@_WV?$string_output_adapter@_W@__crt_stdio_output@@@2@@__crt_stdio_output@@AEAA_NXZ 000000014007279c f i libucrt:output.obj
 0001:0007179c       ?type_case_Z@?$output_processor@_WV?$stream_output_adapter@_W@__crt_stdio_output@@V?$standard_base@_WV?$stream_output_adapter@_W@__crt_stdio_output@@@2@@__crt_stdio_output@@AEAA_NXZ 000000014007279c f i libucrt:output.obj
 0001:00071818       ?type_case_a@?$output_processor@DV?$string_output_adapter@D@__crt_stdio_output@@V?$standard_base@DV?$string_output_adapter@D@__crt_stdio_output@@@2@@__crt_stdio_output@@AEAA_NXZ 0000000140072818 f i libucrt:output.obj
 0001:00071818       ?type_case_a@?$output_processor@DV?$stream_output_adapter@D@__crt_stdio_output@@V?$standard_base@DV?$stream_output_adapter@D@__crt_stdio_output@@@2@@__crt_stdio_output@@AEAA_NXZ 0000000140072818 f i libucrt:output.obj
 0001:000719d4       ?type_case_a@?$output_processor@_WV?$stream_output_adapter@_W@__crt_stdio_output@@V?$standard_base@_WV?$stream_output_adapter@_W@__crt_stdio_output@@@2@@__crt_stdio_output@@AEAA_NXZ 00000001400729d4 f i libucrt:output.obj
 0001:000719d4       ?type_case_a@?$output_processor@_WV?$string_output_adapter@_W@__crt_stdio_output@@V?$standard_base@_WV?$string_output_adapter@_W@__crt_stdio_output@@@2@@__crt_stdio_output@@AEAA_NXZ 00000001400729d4 f i libucrt:output.obj
 0001:00071bb4       ?type_case_c_tchar@?$output_processor@DV?$stream_output_adapter@D@__crt_stdio_output@@V?$standard_base@DV?$stream_output_adapter@D@__crt_stdio_output@@@2@@__crt_stdio_output@@AEAA_ND@Z 0000000140072bb4 f i libucrt:output.obj
 0001:00071bb4       ?type_case_c_tchar@?$output_processor@DV?$string_output_adapter@D@__crt_stdio_output@@V?$standard_base@DV?$string_output_adapter@D@__crt_stdio_output@@@2@@__crt_stdio_output@@AEAA_ND@Z 0000000140072bb4 f i libucrt:output.obj
 0001:00071c70       ?type_case_c_tchar@?$output_processor@_WV?$string_output_adapter@_W@__crt_stdio_output@@V?$standard_base@_WV?$string_output_adapter@_W@__crt_stdio_output@@@2@@__crt_stdio_output@@AEAA_N_W@Z 0000000140072c70 f i libucrt:output.obj
 0001:00071c70       ?type_case_c_tchar@?$output_processor@_WV?$stream_output_adapter@_W@__crt_stdio_output@@V?$standard_base@_WV?$stream_output_adapter@_W@__crt_stdio_output@@@2@@__crt_stdio_output@@AEAA_N_W@Z 0000000140072c70 f i libucrt:output.obj
 0001:00071d18       ?type_case_integer@?$output_processor@DV?$stream_output_adapter@D@__crt_stdio_output@@V?$standard_base@DV?$stream_output_adapter@D@__crt_stdio_output@@@2@@__crt_stdio_output@@AEAA_NI_N@Z 0000000140072d18 f i libucrt:output.obj
 0001:00071d18       ?type_case_integer@?$output_processor@DV?$string_output_adapter@D@__crt_stdio_output@@V?$standard_base@DV?$string_output_adapter@D@__crt_stdio_output@@@2@@__crt_stdio_output@@AEAA_NI_N@Z 0000000140072d18 f i libucrt:output.obj
 0001:00071ee0       ?type_case_integer@?$output_processor@_WV?$stream_output_adapter@_W@__crt_stdio_output@@V?$standard_base@_WV?$stream_output_adapter@_W@__crt_stdio_output@@@2@@__crt_stdio_output@@AEAA_NI_N@Z 0000000140072ee0 f i libucrt:output.obj
 0001:00071ee0       ?type_case_integer@?$output_processor@_WV?$string_output_adapter@_W@__crt_stdio_output@@V?$standard_base@_WV?$string_output_adapter@_W@__crt_stdio_output@@@2@@__crt_stdio_output@@AEAA_NI_N@Z 0000000140072ee0 f i libucrt:output.obj
 0001:000720ac       ?type_case_n@?$output_processor@_WV?$stream_output_adapter@_W@__crt_stdio_output@@V?$standard_base@_WV?$stream_output_adapter@_W@__crt_stdio_output@@@2@@__crt_stdio_output@@AEAA_NXZ 00000001400730ac f i libucrt:output.obj
 0001:000720ac       ?type_case_n@?$output_processor@DV?$string_output_adapter@D@__crt_stdio_output@@V?$standard_base@DV?$string_output_adapter@D@__crt_stdio_output@@@2@@__crt_stdio_output@@AEAA_NXZ 00000001400730ac f i libucrt:output.obj
 0001:000720ac       ?type_case_n@?$output_processor@_WV?$string_output_adapter@_W@__crt_stdio_output@@V?$standard_base@_WV?$string_output_adapter@_W@__crt_stdio_output@@@2@@__crt_stdio_output@@AEAA_NXZ 00000001400730ac f i libucrt:output.obj
 0001:000720ac       ?type_case_n@?$output_processor@DV?$stream_output_adapter@D@__crt_stdio_output@@V?$standard_base@DV?$stream_output_adapter@D@__crt_stdio_output@@@2@@__crt_stdio_output@@AEAA_NXZ 00000001400730ac f i libucrt:output.obj
 0001:00072188       ?type_case_s@?$output_processor@DV?$stream_output_adapter@D@__crt_stdio_output@@V?$standard_base@DV?$stream_output_adapter@D@__crt_stdio_output@@@2@@__crt_stdio_output@@AEAA_NXZ 0000000140073188 f i libucrt:output.obj
 0001:00072188       ?type_case_s@?$output_processor@DV?$string_output_adapter@D@__crt_stdio_output@@V?$standard_base@DV?$string_output_adapter@D@__crt_stdio_output@@@2@@__crt_stdio_output@@AEAA_NXZ 0000000140073188 f i libucrt:output.obj
 0001:00072220       ?type_case_s@?$output_processor@_WV?$stream_output_adapter@_W@__crt_stdio_output@@V?$standard_base@_WV?$stream_output_adapter@_W@__crt_stdio_output@@@2@@__crt_stdio_output@@AEAA_NXZ 0000000140073220 f i libucrt:output.obj
 0001:00072220       ?type_case_s@?$output_processor@_WV?$string_output_adapter@_W@__crt_stdio_output@@V?$standard_base@_WV?$string_output_adapter@_W@__crt_stdio_output@@@2@@__crt_stdio_output@@AEAA_NXZ 0000000140073220 f i libucrt:output.obj
 0001:000722e8       ?validate_stream_is_ansi_if_required@?$__acrt_stdio_char_traits@D@@SA_NQEAU_iobuf@@@Z 00000001400732e8 f i libucrt:output.obj
 0001:00072384       ?write_stored_string_tchar@?$output_processor@DV?$stream_output_adapter@D@__crt_stdio_output@@V?$standard_base@DV?$stream_output_adapter@D@__crt_stdio_output@@@2@@__crt_stdio_output@@AEAA_ND@Z 0000000140073384 f i libucrt:output.obj
 0001:000724a8       ?write_stored_string_tchar@?$output_processor@DV?$string_output_adapter@D@__crt_stdio_output@@V?$standard_base@DV?$string_output_adapter@D@__crt_stdio_output@@@2@@__crt_stdio_output@@AEAA_ND@Z 00000001400734a8 f i libucrt:output.obj
 0001:00072580       ?write_stored_string_tchar@?$output_processor@_WV?$stream_output_adapter@_W@__crt_stdio_output@@V?$standard_base@_WV?$stream_output_adapter@_W@__crt_stdio_output@@@2@@__crt_stdio_output@@AEAA_N_W@Z 0000000140073580 f i libucrt:output.obj
 0001:00072688       ?write_stored_string_tchar@?$output_processor@_WV?$string_output_adapter@_W@__crt_stdio_output@@V?$standard_base@_WV?$string_output_adapter@_W@__crt_stdio_output@@@2@@__crt_stdio_output@@AEAA_N_W@Z 0000000140073688 f i libucrt:output.obj
 0001:00072774       ?write_string@?$string_output_adapter@D@__crt_stdio_output@@QEBAXQEBDHQEAHAEAV__crt_deferred_errno_cache@@@Z 0000000140073774 f i libucrt:output.obj
 0001:00072818       ?write_string@?$string_output_adapter@_W@__crt_stdio_output@@QEBAXQEB_WHQEAHAEAV__crt_deferred_errno_cache@@@Z 0000000140073818 f i libucrt:output.obj
 0001:000728c0       ?write_string_impl@?$output_adapter_common@DV?$stream_output_adapter@D@__crt_stdio_output@@@__crt_stdio_output@@IEBAXQEBDHQEAHAEAV__crt_deferred_errno_cache@@@Z 00000001400738c0 f i libucrt:output.obj
 0001:000729b8       ?write_string_impl@?$output_adapter_common@_WV?$stream_output_adapter@_W@__crt_stdio_output@@@__crt_stdio_output@@IEBAXQEB_WHQEAHAEAV__crt_deferred_errno_cache@@@Z 00000001400739b8 f i libucrt:output.obj
 0001:00072abc       __stdio_common_vfprintf    0000000140073abc f   libucrt:output.obj
 0001:00072b48       __stdio_common_vfwprintf   0000000140073b48 f   libucrt:output.obj
 0001:00072bd4       __stdio_common_vsprintf    0000000140073bd4 f   libucrt:output.obj
 0001:00072bdc       __stdio_common_vswprintf   0000000140073bdc f   libucrt:output.obj
 0001:00072be4       floorf                     0000000140073be4 f   libucrt:floorf.obj
 0001:00072c60       powf                       0000000140073c60 f   libucrt:powf.obj
 0001:00073b28       atan2f                     0000000140074b28 f   libucrt:atan2f.obj
 0001:00073f40       cosf                       0000000140074f40 f   libucrt:cosf.obj
 0001:00074440       sinf                       0000000140075440 f   libucrt:sinf.obj
 0001:00074b38       sqrtf                      0000000140075b38 f   libucrt:sqrtf.obj
 0001:00074be4       __acrt_errno_from_os_error 0000000140075be4 f   libucrt:errno.obj
 0001:00074c2c       __acrt_errno_map_os_error  0000000140075c2c f   libucrt:errno.obj
 0001:00074c7c       __doserrno                 0000000140075c7c f   libucrt:errno.obj
 0001:00074c9c       _errno                     0000000140075c9c f   libucrt:errno.obj
 0001:00074d30       ??$parse_floating_point@V?$c_string_character_source@D@__crt_strtox@@N@__crt_strtox@@YA?AW4SLD_STATUS@@QEAU__crt_locale_pointers@@V?$c_string_character_source@D@0@QEAN@Z 0000000140075d30 f i libucrt:atof.obj
 0001:00074dd0       ??$parse_floating_point_from_source@V?$c_string_character_source@D@__crt_strtox@@@__crt_strtox@@YA?AW4floating_point_parse_result@0@QEAU__crt_locale_pointers@@AEAV?$c_string_character_source@D@0@AEAUfloating_point_string@0@@Z 0000000140075dd0 f i libucrt:atof.obj
 0001:000752b8       ??$parse_floating_point_possible_infinity@DV?$c_string_character_source@D@__crt_strtox@@PEBD@__crt_strtox@@YA?AW4floating_point_parse_result@0@AEADAEAV?$c_string_character_source@D@0@PEBD@Z 00000001400762b8 f i libucrt:atof.obj
 0001:00075414       ??$parse_floating_point_possible_nan@DV?$c_string_character_source@D@__crt_strtox@@PEBD@__crt_strtox@@YA?AW4floating_point_parse_result@0@AEADAEAV?$c_string_character_source@D@0@PEBD@Z 0000000140076414 f i libucrt:atof.obj
 0001:00075600       ??$parse_floating_point_possible_nan_is_ind@DV?$c_string_character_source@D@__crt_strtox@@@__crt_strtox@@YA_NAEADAEAV?$c_string_character_source@D@0@@Z 0000000140076600 f i libucrt:atof.obj
 0001:00075644       ??$parse_floating_point_possible_nan_is_snan@DV?$c_string_character_source@D@__crt_strtox@@@__crt_strtox@@YA_NAEADAEAV?$c_string_character_source@D@0@@Z 0000000140076644 f i libucrt:atof.obj
 0001:00075688       ??$parse_floating_point_write_result@M@__crt_strtox@@YA?AW4SLD_STATUS@@W4floating_point_parse_result@0@AEBUfloating_point_string@0@QEAM@Z 0000000140076688 f i libucrt:atof.obj
 0001:000757f8       ??$parse_floating_point_write_result@N@__crt_strtox@@YA?AW4SLD_STATUS@@W4floating_point_parse_result@0@AEBUfloating_point_string@0@QEAN@Z 00000001400767f8 f i libucrt:atof.obj
 0001:000759d8       ?as_double@floating_point_value@__crt_strtox@@QEBAAEANXZ 00000001400769d8 f i libucrt:atof.obj
 0001:00075a14       ?as_float@floating_point_value@__crt_strtox@@QEBAAEAMXZ 0000000140076a14 f i libucrt:atof.obj
 0001:00075a50       ?assemble_floating_point_value@__crt_strtox@@YA?AW4SLD_STATUS@@_KH_N1AEBVfloating_point_value@1@@Z 0000000140076a50 f i libucrt:atof.obj
 0001:00075df8       ?assemble_floating_point_value_from_big_integer@__crt_strtox@@YA?AW4SLD_STATUS@@AEBUbig_integer@1@I_N1AEBVfloating_point_value@1@@Z 0000000140076df8 f i libucrt:atof.obj
 0001:00075f5c       ?convert_decimal_string_to_floating_type_common@__crt_strtox@@YA?AW4SLD_STATUS@@AEBUfloating_point_string@1@AEBVfloating_point_value@1@@Z 0000000140076f5c f i libucrt:atof.obj
 0001:00077cdc       ?convert_hexadecimal_string_to_floating_type_common@__crt_strtox@@YA?AW4SLD_STATUS@@AEBUfloating_point_string@1@AEBVfloating_point_value@1@@Z 0000000140078cdc f i libucrt:atof.obj
 0001:00077d90       ?divide@__crt_strtox@@YA_KAEAUbig_integer@1@AEBU21@@Z 0000000140078d90 f i libucrt:atof.obj
 0001:000781bc       atof                       00000001400791bc f   libucrt:atof.obj
 0001:00078544       _localtime64_s             0000000140079544 f   libucrt:localtime.obj
 0001:0007854c       ??$__crt_time_is_leap_year@_J@@YA_N_J@Z 000000014007954c f i libucrt:mktime.obj
 0001:00078918       _mktime64                  0000000140079918 f   libucrt:mktime.obj
 0001:000789b8       _time64                    00000001400799b8 f   libucrt:time.obj
 0001:000789f8       __acrt_initialize_stdio    00000001400799f8 f   libucrt:_file.obj
 0001:00078b18       __acrt_iob_func            0000000140079b18 f   libucrt:_file.obj
 0001:00078b2c       __acrt_uninitialize_stdio  0000000140079b2c f   libucrt:_file.obj
 0001:00078b88       _lock_file                 0000000140079b88 f   libucrt:_file.obj
 0001:00078b94       _unlock_file               0000000140079b94 f   libucrt:_file.obj
 0001:00078ba0       ??$__acrt_mbs_to_wcs_cp@U__crt_win32_buffer_internal_dynamic_resizing@@@@YAHQEBDAEAV?$__crt_win32_buffer@_WU__crt_win32_buffer_internal_dynamic_resizing@@@@I@Z 0000000140079ba0 f i libucrt:stat.obj
 0001:0007978c       _stat64                    000000014007a78c f   libucrt:stat.obj
 0001:0007988c       _stat64i32                 000000014007a88c f   libucrt:stat.obj
 0001:0007998c       strerror                   000000014007a98c f   libucrt:strerror.obj
 0001:00079a50       strncpy                    000000014007aa50 f   libucrt:strncpy.obj
 0001:00079ca8       freopen_s                  000000014007aca8 f   libucrt:freopen.obj
 0001:00079edc       __acrt_stdio_flush_nolock  000000014007aedc f   libucrt:fflush.obj
 0001:00079f58       _fflush_nolock             000000014007af58 f   libucrt:fflush.obj
 0001:00079fa4       _flushall                  000000014007afa4 f   libucrt:fflush.obj
 0001:00079fac       fflush                     000000014007afac f   libucrt:fflush.obj
 0001:0007a0b8       _fwrite_nolock             000000014007b0b8 f   libucrt:fwrite.obj
 0001:0007a264       fwrite                     000000014007b264 f   libucrt:fwrite.obj
 0001:0007a2e8       remove                     000000014007b2e8 f   libucrt:unlink.obj
 0001:0007a5c4       _utime64                   000000014007b5c4 f   libucrt:utime.obj
 0001:0007a658       ceilf                      000000014007b658 f   libucrt:ceilf.obj
 0001:0007a94c       __acrt_initialize_thread_local_exit_callback 000000014007b94c f   libucrt:exit.obj
 0001:0007a954       _c_exit                    000000014007b954 f   libucrt:exit.obj
 0001:0007a964       _cexit                     000000014007b964 f   libucrt:exit.obj
 0001:0007a974       _exit                      000000014007b974 f   libucrt:exit.obj
 0001:0007a980       _register_thread_local_exe_atexit_callback 000000014007b980 f   libucrt:exit.obj
 0001:0007a9bc       exit                       000000014007b9bc f   libucrt:exit.obj
 0001:0007a9c8       perror                     000000014007b9c8 f   libucrt:perror.obj
 0001:0007aa88       ??$parse_floating_point@V?$input_adapter_character_source@V?$string_input_adapter@D@__crt_stdio_input@@@__crt_strtox@@M@__crt_strtox@@YA?AW4SLD_STATUS@@QEAU__crt_locale_pointers@@V?$input_adapter_character_source@V?$string_input_adapter@D@__crt_stdio_input@@@0@QEAM@Z 000000014007ba88 f i libucrt:input.obj
 0001:0007ab30       ??$parse_floating_point@V?$input_adapter_character_source@V?$string_input_adapter@D@__crt_stdio_input@@@__crt_strtox@@N@__crt_strtox@@YA?AW4SLD_STATUS@@QEAU__crt_locale_pointers@@V?$input_adapter_character_source@V?$string_input_adapter@D@__crt_stdio_input@@@0@QEAN@Z 000000014007bb30 f i libucrt:input.obj
 0001:0007abd8       ??$parse_floating_point_from_source@V?$input_adapter_character_source@V?$string_input_adapter@D@__crt_stdio_input@@@__crt_strtox@@@__crt_strtox@@YA?AW4floating_point_parse_result@0@QEAU__crt_locale_pointers@@AEAV?$input_adapter_character_source@V?$string_input_adapter@D@__crt_stdio_input@@@0@AEAUfloating_point_string@0@@Z 000000014007bbd8 f i libucrt:input.obj
 0001:0007b444       ??$parse_floating_point_possible_infinity@DV?$input_adapter_character_source@V?$string_input_adapter@D@__crt_stdio_input@@@__crt_strtox@@_K@__crt_strtox@@YA?AW4floating_point_parse_result@0@AEADAEAV?$input_adapter_character_source@V?$string_input_adapter@D@__crt_stdio_input@@@0@_K@Z 000000014007c444 f i libucrt:input.obj
 0001:0007b67c       ??$parse_floating_point_possible_nan@DV?$input_adapter_character_source@V?$string_input_adapter@D@__crt_stdio_input@@@__crt_strtox@@_K@__crt_strtox@@YA?AW4floating_point_parse_result@0@AEADAEAV?$input_adapter_character_source@V?$string_input_adapter@D@__crt_stdio_input@@@0@_K@Z 000000014007c67c f i libucrt:input.obj
 0001:0007b99c       ??$parse_floating_point_possible_nan_is_ind@DV?$input_adapter_character_source@V?$string_input_adapter@D@__crt_stdio_input@@@__crt_strtox@@@__crt_strtox@@YA_NAEADAEAV?$input_adapter_character_source@V?$string_input_adapter@D@__crt_stdio_input@@@0@@Z 000000014007c99c f i libucrt:input.obj
 0001:0007ba14       ??$parse_floating_point_possible_nan_is_snan@DV?$input_adapter_character_source@V?$string_input_adapter@D@__crt_stdio_input@@@__crt_strtox@@@__crt_strtox@@YA_NAEADAEAV?$input_adapter_character_source@V?$string_input_adapter@D@__crt_stdio_input@@@0@@Z 000000014007ca14 f i libucrt:input.obj
 0001:0007ba8c       ??$parse_integer@_KV?$input_adapter_character_source@V?$string_input_adapter@D@__crt_stdio_input@@@__crt_strtox@@@__crt_strtox@@YA_KQEAU__crt_locale_pointers@@V?$input_adapter_character_source@V?$string_input_adapter@D@__crt_stdio_input@@@0@H_N@Z 000000014007ca8c f i libucrt:input.obj
 0001:0007beb0       ??$process_floating_point_specifier_t@M@?$input_processor@DV?$string_input_adapter@D@__crt_stdio_input@@@__crt_stdio_input@@AEAA_NXZ 000000014007ceb0 f i libucrt:input.obj
 0001:0007bf54       ??$process_floating_point_specifier_t@N@?$input_processor@DV?$string_input_adapter@D@__crt_stdio_input@@@__crt_stdio_input@@AEAA_NXZ 000000014007cf54 f i libucrt:input.obj
 0001:0007bffc       ??$process_string_specifier_tchar@D@?$input_processor@DV?$string_input_adapter@D@__crt_stdio_input@@@__crt_stdio_input@@AEAA_NW4conversion_mode@1@D@Z 000000014007cffc f i libucrt:input.obj
 0001:0007c1b8       ??$process_string_specifier_tchar@_W@?$input_processor@DV?$string_input_adapter@D@__crt_stdio_input@@@__crt_stdio_input@@AEAA_NW4conversion_mode@1@_W@Z 000000014007d1b8 f i libucrt:input.obj
 0001:0007c3a4       ??$skip_whitespace@Vstring_input_adapter@__crt_stdio_input@@D@__crt_stdio_input@@YAHAEAV?$string_input_adapter@D@0@QEAU__crt_locale_pointers@@@Z 000000014007d3a4 f i libucrt:input.obj
 0001:0007c418       ?advance@?$format_string_parser@D@__crt_stdio_input@@QEAA_NXZ 000000014007d418 f i libucrt:input.obj
 0001:0007c5e0       ?length@?$format_string_parser@D@__crt_stdio_input@@QEBA_KXZ 000000014007d5e0 f i libucrt:input.obj
 0001:0007c67c       ?process@?$input_processor@DV?$string_input_adapter@D@__crt_stdio_input@@@__crt_stdio_input@@QEAAHXZ 000000014007d67c f i libucrt:input.obj
 0001:0007c768       ?process_conversion_specifier@?$input_processor@DV?$string_input_adapter@D@__crt_stdio_input@@@__crt_stdio_input@@AEAA_NXZ 000000014007d768 f i libucrt:input.obj
 0001:0007c888       ?process_floating_point_specifier@?$input_processor@DV?$string_input_adapter@D@__crt_stdio_input@@@__crt_stdio_input@@AEAA_NXZ 000000014007d888 f i libucrt:input.obj
 0001:0007c8f8       ?process_integer_specifier@?$input_processor@DV?$string_input_adapter@D@__crt_stdio_input@@@__crt_stdio_input@@AEAA_NI_N@Z 000000014007d8f8 f i libucrt:input.obj
 0001:0007c9b0       ?process_literal_character_tchar@?$input_processor@DV?$string_input_adapter@D@__crt_stdio_input@@@__crt_stdio_input@@AEAA_ND@Z 000000014007d9b0 f i libucrt:input.obj
 0001:0007ca34       ?process_state@?$input_processor@DV?$string_input_adapter@D@__crt_stdio_input@@@__crt_stdio_input@@AEAA_NXZ 000000014007da34 f i libucrt:input.obj
 0001:0007caec       ?process_string_specifier@?$input_processor@DV?$string_input_adapter@D@__crt_stdio_input@@@__crt_stdio_input@@AEAA_NW4conversion_mode@2@@Z 000000014007daec f i libucrt:input.obj
 0001:0007cb78       ?scan_conversion_specifier@?$format_string_parser@D@__crt_stdio_input@@AEAA_NXZ 000000014007db78 f i libucrt:input.obj
 0001:0007cd1c       ?scan_optional_field_width@?$format_string_parser@D@__crt_stdio_input@@AEAA_NXZ 000000014007dd1c f i libucrt:input.obj
 0001:0007cdc4       ?scan_optional_length_modifier@?$format_string_parser@D@__crt_stdio_input@@AEAAXXZ 000000014007ddc4 f i libucrt:input.obj
 0001:0007cf00       ?scan_scanset_range@?$format_string_parser@D@__crt_stdio_input@@AEAA_NXZ 000000014007df00 f i libucrt:input.obj
 0001:0007d0b4       ?write_character@?$input_processor@DV?$string_input_adapter@D@__crt_stdio_input@@@__crt_stdio_input@@AEAA_NQEFA_W_KAEAPEFA_WAEA_KD@Z 000000014007e0b4 f i libucrt:input.obj
 0001:0007d14c       ?write_integer@?$input_processor@DV?$string_input_adapter@D@__crt_stdio_input@@@__crt_stdio_input@@AEAA_N_K@Z 000000014007e14c f i libucrt:input.obj
 0001:0007d1c4       __stdio_common_vsscanf     000000014007e1c4 f   libucrt:input.obj
 0001:0007d2ec       strncpy_s                  000000014007e2ec f   libucrt:strncpy_s.obj
 0001:0007d3c0       calloc                     000000014007e3c0 f   libucrt:calloc.obj
 0001:0007d470       strcspn                    000000014007e470 f   libucrt:strcspn.obj
 0001:0007d900       strspn                     000000014007e900 f   libucrt:strspn.obj
 0001:0007dcd0       qsort                      000000014007ecd0 f   libucrt:qsort.obj
 0001:0007e0a0       strcmp                     000000014007f0a0 f   libucrt:strcmp.obj
 0001:0007e108       _seh_filter_exe            000000014007f108 f   libucrt:exception_filter.obj
 0001:0007e28c       _query_app_type            000000014007f28c f   libucrt:report_runtime_error.obj
 0001:0007e294       _set_app_type              000000014007f294 f   libucrt:report_runtime_error.obj
 0001:0007e29c       __acrt_has_user_matherr    000000014007f29c f   libucrt:matherr.obj
 0001:0007e2bc       __acrt_initialize_user_matherr 000000014007f2bc f   libucrt:matherr.obj
 0001:0007e2c4       __acrt_invoke_user_matherr 000000014007f2c4 f   libucrt:matherr.obj
 0001:0007e2f4       __setusermatherr           000000014007f2f4 f   libucrt:matherr.obj
 0001:0007e4e0       __acrt_allocate_buffer_for_argv 000000014007f4e0 f   libucrt:argv_parsing.obj
 0001:0007e540       _configure_narrow_argv     000000014007f540 f   libucrt:argv_parsing.obj
 0001:0007e98c       __dcrt_get_or_create_narrow_environment_nolock 000000014007f98c f   libucrt:environment_initialization.obj
 0001:0007e9c8       __dcrt_uninitialize_environments_nolock 000000014007f9c8 f   libucrt:environment_initialization.obj
 0001:0007ea00       _get_initial_narrow_environment 000000014007fa00 f   libucrt:environment_initialization.obj
 0001:0007ea50       _initialize_narrow_environment 000000014007fa50 f   libucrt:environment_initialization.obj
 0001:0007ea58       _initterm                  000000014007fa58 f   libucrt:initterm.obj
 0001:0007eabc       _initterm_e                000000014007fabc f   libucrt:initterm.obj
 0001:0007eafc       _get_fmode                 000000014007fafc f   libucrt:setmode.obj
 0001:0007eb2c       _set_fmode                 000000014007fb2c f   libucrt:setmode.obj
 0001:0007eb6c       _setmode_nolock            000000014007fb6c f   libucrt:setmode.obj
 0001:0007ec4c       __acrt_initialize_command_line 000000014007fc4c f   libucrt:argv_data.obj
 0001:0007ec74       __p___argc                 000000014007fc74 f   libucrt:argv_data.obj
 0001:0007ec7c       __p___argv                 000000014007fc7c f   libucrt:argv_data.obj
 0001:0007ecf4       __acrt_set_locale_changed  000000014007fcf4 f   libucrt:wsetlocale.obj
 0001:0007ed00       __acrt_uninitialize_locale 000000014007fd00 f   libucrt:wsetlocale.obj
 0001:0007ed30       _configthreadlocale        000000014007fd30 f   libucrt:wsetlocale.obj
 0001:0007ed9c       _query_new_mode            000000014007fd9c f   libucrt:new_mode.obj
 0001:0007eda4       _set_new_mode              000000014007fda4 f   libucrt:new_mode.obj
 0001:0007edd0       __p__commode               000000014007fdd0 f   libucrt:ncommode.obj
 0001:0007f118       _crt_atexit                0000000140080118 f   libucrt:onexit.obj
 0001:0007f128       _execute_onexit_table      0000000140080128 f   libucrt:onexit.obj
 0001:0007f164       _initialize_onexit_table   0000000140080164 f   libucrt:onexit.obj
 0001:0007f18c       _register_onexit_function  000000014008018c f   libucrt:onexit.obj
 0001:0007f300       __acrt_initialize          0000000140080300 f   libucrt:initialization.obj
 0001:0007f314       __acrt_uninitialize        0000000140080314 f   libucrt:initialization.obj
 0001:0007f34c       terminate                  000000014008034c f   libucrt:terminate.obj
 0001:0007f36c       __ascii_strnicmp           000000014008036c f   libucrt:strnicmp.obj
 0001:0007f3c8       strnicmp                   00000001400803c8 f   libucrt:strnicmp.obj
 0001:0007f3c8       _strnicmp                  00000001400803c8 f   libucrt:strnicmp.obj
 0001:0007f418       _strnicmp_l                0000000140080418 f   libucrt:strnicmp.obj
 0001:0007f4f4       strcpy_s                   00000001400804f4 f   libucrt:strcpy_s.obj
 0001:0007f554       abort                      0000000140080554 f   libucrt:abort.obj
 0001:0007f5ac       wcsncmp                    00000001400805ac f   libucrt:wcsncmp.obj
 0001:0007f5d8       atol                       00000001400805d8 f   libucrt:atox.obj
 0001:0007f604       __acrt_call_reportfault    0000000140080604 f   libucrt:invalid_parameter.obj
 0001:0007f760       __acrt_initialize_invalid_parameter_handler 0000000140080760 f   libucrt:invalid_parameter.obj
 0001:0007f768       _invalid_parameter         0000000140080768 f   libucrt:invalid_parameter.obj
 0001:0007f818       _invalid_parameter_noinfo  0000000140080818 f   libucrt:invalid_parameter.obj
 0001:0007f838       _invoke_watson             0000000140080838 f   libucrt:invalid_parameter.obj
 0001:0007f9c0       _itow_s                    00000001400809c0 f   libucrt:xtoa.obj
 0001:0007f9e0       _set_error_mode            00000001400809e0 f   libucrt:set_error_mode.obj
 0001:0007fa20       wcscat_s                   0000000140080a20 f   libucrt:wcscat_s.obj
 0001:0007faa0       wcscpy_s                   0000000140080aa0 f   libucrt:wcscpy_s.obj
 0001:0007fb08       wcsncat_s                  0000000140080b08 f   libucrt:wcsncat_s.obj
 0001:0007fc08       ??$__acrt_wcs_to_mbs_cp@U__crt_win32_buffer_no_resizing@@@@YAHQEB_WAEAV?$__crt_win32_buffer@DU__crt_win32_buffer_no_resizing@@@@I@Z 0000000140080c08 f i libucrt:getmodulefilenamea.obj
 0001:0007fd1c       __acrt_GetModuleFileNameA  0000000140080d1c f   libucrt:getmodulefilenamea.obj
 0001:0007fe3c       __acrt_show_wide_message_box 0000000140080e3c f   libucrt:crtmbox.obj
 0001:00080000       setvbuf                    0000000140081000 f   libucrt:setvbuf.obj
 0001:000800e4       __acrt_get_sigabrt_handler 00000001400810e4 f   libucrt:signal.obj
 0001:00080114       __acrt_initialize_signal_handlers 0000000140081114 f   libucrt:signal.obj
 0001:00080134       raise                      0000000140081134 f   libucrt:signal.obj
 0001:000803a0       _free_base                 00000001400813a0 f   libucrt:free_base.obj
 0001:000803e0       _malloc_base               00000001400813e0 f   libucrt:malloc_base.obj
 0001:00080440       _realloc_base              0000000140081440 f   libucrt:realloc_base.obj
 0001:000804bc       __pctype_func              00000001400814bc f   libucrt:ctype.obj
 0001:000804ec       iswctype                   00000001400814ec f   libucrt:iswctype.obj
 0001:0008055c       _isctype_l                 000000014008155c f   libucrt:isctype.obj
 0001:000809e4       __acrt_getptd              00000001400819e4 f   libucrt:per_thread_data.obj
 0001:00080ab8       __acrt_getptd_head         0000000140081ab8 f   libucrt:per_thread_data.obj
 0001:00080b60       __acrt_getptd_noexit       0000000140081b60 f   libucrt:per_thread_data.obj
 0001:00080c2c       __acrt_initialize_ptd      0000000140081c2c f   libucrt:per_thread_data.obj
 0001:00080c68       __acrt_uninitialize_ptd    0000000140081c68 f   libucrt:per_thread_data.obj
 0001:00080c8c       __acrt_update_locale_info  0000000140081c8c f   libucrt:locale_update.obj
 0001:00080cc0       __acrt_update_multibyte_info 0000000140081cc0 f   libucrt:locale_update.obj
 0001:00080cf4       _copysign                  0000000140081cf4 f   libucrt:_copysign.obj
 0001:00080d28       _decomp                    0000000140081d28 f   libucrt:util.obj
 0001:00080e60       _set_exp                   0000000140081e60 f   libucrt:util.obj
 0001:00080e98       _sptype                    0000000140081e98 f   libucrt:util.obj
 0001:00080f0c       _errcode                   0000000140081f0c f   libucrt:fpexcept.obj
 0001:00080f50       _except2                   0000000140081f50 f   libucrt:fpexcept.obj
 0001:00081058       _handle_exc                0000000140082058 f   libucrt:fpexcept.obj
 0001:000812c0       _handle_qnan2              00000001400822c0 f   libucrt:fpexcept.obj
 0001:000812c8       _raise_exc                 00000001400822c8 f   libucrt:fpexcept.obj
 0001:000812f0       _raise_exc_ex              00000001400822f0 f   libucrt:fpexcept.obj
 0001:00081600       _raise_excf                0000000140082600 f   libucrt:fpexcept.obj
 0001:0008162c       _set_errno_from_matherr    000000014008262c f   libucrt:fpexcept.obj
 0001:0008165c       _umatherr                  000000014008265c f   libucrt:fpexcept.obj
 0001:00081730       _clrfp                     0000000140082730 f   libucrt:fpctrl.obj
 0001:00081750       _ctrlfp                    0000000140082750 f   libucrt:fpctrl.obj
 0001:000817cc       _set_statfp                00000001400827cc f   libucrt:fpctrl.obj
 0001:000817ec       _statfp                    00000001400827ec f   libucrt:fpctrl.obj
 0001:00081800       ?__acrt_stdio_allocate_stream@@YA?AV__crt_stdio_stream@@XZ 0000000140082800 f   libucrt:stream.obj
 0001:00081858       ?__acrt_stdio_free_stream@@YAXV__crt_stdio_stream@@@Z 0000000140082858 f   libucrt:stream.obj
 0001:00081960       ??$__acrt_stdio_parse_mode@D@@YA?AU__acrt_stdio_stream_mode@@QEBD@Z 0000000140082960 f i libucrt:openfile.obj
 0001:00081c24       _openfile                  0000000140082c24 f   libucrt:openfile.obj
 0001:00081d34       _close                     0000000140082d34 f   libucrt:close.obj
 0001:00081dd8       _close_nolock              0000000140082dd8 f   libucrt:close.obj
 0001:00081e98       _fileno                    0000000140082e98 f   libucrt:fileno.obj
 0001:00081ec0       __acrt_stdio_free_buffer_nolock 0000000140082ec0 f   libucrt:_freebuf.obj
 0001:000824d4       _read                      00000001400834d4 f   libucrt:read.obj
 0001:000825f0       _read_nolock               00000001400835f0 f   libucrt:read.obj
 0001:00082a48       __acrt_stdio_refill_and_read_narrow_nolock 0000000140083a48 f   libucrt:_filbuf.obj
 0001:00082d40       _lseeki64                  0000000140083d40 f   libucrt:lseek.obj
 0001:00082d48       _lseeki64_nolock           0000000140083d48 f   libucrt:lseek.obj
 0001:00082f4c       __acrt_initialize_lowio    0000000140083f4c f   libucrt:ioinit.obj
 0001:00082f88       __acrt_uninitialize_lowio  0000000140083f88 f   libucrt:ioinit.obj
 0001:00082fc8       isdigit                    0000000140083fc8 f i libucrt:_ctype.obj
 0001:0008305c       isspace                    000000014008405c f i libucrt:_ctype.obj
 0001:00083150       _tolower_l                 0000000140084150 f   libucrt:tolower_toupper.obj
 0001:00083290       tolower                    0000000140084290 f   libucrt:tolower_toupper.obj
 0001:000832bc       _mbtowc_l                  00000001400842bc f   libucrt:mbtowc.obj
 0001:00083438       mbtowc                     0000000140084438 f   libucrt:mbtowc.obj
 0001:00083440       _wctomb_s_l                0000000140084440 f   libucrt:wctomb.obj
 0001:000835e0       wctomb_s                   00000001400845e0 f   libucrt:wctomb.obj
 0001:000835f4       strnlen                    00000001400845f4 f   libucrt:strnlen.obj
 0001:00083744       wcsnlen                    0000000140084744 f   libucrt:strnlen.obj
 0001:000842f0       __acrt_fp_format           00000001400852f0 f   libucrt:cvt.obj
 0001:00084578       _fputwc_nolock             0000000140085578 f   libucrt:fputwc.obj
 0001:000846f4       _fputc_nolock              00000001400856f4 f   libucrt:fputc.obj
 0001:0008470c       _get_printf_count_output   000000014008570c f   libucrt:printf_count_output.obj
 0001:00084724       __acrt_stdio_begin_temporary_buffering_nolock 0000000140085724 f   libucrt:_sftbuf.obj
 0001:000847f4       __acrt_stdio_end_temporary_buffering_nolock 00000001400857f4 f   libucrt:_sftbuf.obj
 0001:00084954       _handle_error              0000000140085954 f   libucrt:libm_error.obj
 0001:00084a7c       _handle_errorf             0000000140085a7c f   libucrt:libm_error.obj
 0001:00084bb0       _handle_nan                0000000140085bb0 f   libucrt:libm_error.obj
 0001:00084bcc       _handle_nanf               0000000140085bcc f   libucrt:libm_error.obj
 0001:00084be0       _powf_special              0000000140085be0 f   libucrt:pow_special.obj
 0001:00084d6c       __acrt_initialize_fma3     0000000140085d6c f   libucrt:fma3_available.obj
 0001:00084de0       __remainder_piby2d2f_forAsm 0000000140085de0 f   libucrt:remainder_piby2f_forasm.obj
 0001:00084f30       __remainder_piby2_fma3     0000000140085f30 f   libucrt:remainder_piby2_forfma3.obj
 0001:00085120       __remainder_piby2_fma3_bdl 0000000140086120 f   libucrt:remainder_piby2_forfma3.obj
 0001:00085198       _cosf_special              0000000140086198 f   libucrt:sincos_special.obj
 0001:00085238       _sinf_special              0000000140086238 f   libucrt:sincos_special.obj
 0001:00085250       __remainder_piby2d2f_forC  0000000140086250 f   libucrt:remainder_piby2f_forc.obj
 0001:000853dc       fegetround                 00000001400863dc f   libucrt:fegetround.obj
 0001:000853f0       __acrt_initialize_timeset  00000001400863f0 f   libucrt:timeset.obj
 0001:00085434       __daylight                 0000000140086434 f   libucrt:timeset.obj
 0001:0008543c       __dstbias                  000000014008643c f   libucrt:timeset.obj
 0001:00085444       __timezone                 0000000140086444 f   libucrt:timeset.obj
 0001:0008544c       __tzname                   000000014008644c f   libucrt:timeset.obj
 0001:00085454       _get_daylight              0000000140086454 f   libucrt:timeset.obj
 0001:00085484       _get_dstbias               0000000140086484 f   libucrt:timeset.obj
 0001:000854b4       _get_timezone              00000001400864b4 f   libucrt:timeset.obj
 0001:000854e4       ??$__crt_time_is_leap_year@H@@YA_NH@Z 00000001400864e4 f i libucrt:gmtime.obj
 0001:000857c8       _gmtime64_s                00000001400867c8 f   libucrt:gmtime.obj
 0001:00086174       __tzset                    0000000140087174 f   libucrt:tzset.obj
 0001:000861b4       _isindst                   00000001400871b4 f   libucrt:tzset.obj
 0001:000863bc       __acrt_AppPolicyGetProcessTerminationMethodInternal 00000001400873bc f   libucrt:winapi_thunks.obj
 0001:0008640c       __acrt_AppPolicyGetShowDeveloperDiagnosticInternal 000000014008740c f   libucrt:winapi_thunks.obj
 0001:0008645c       __acrt_AppPolicyGetWindowingModelInternal 000000014008745c f   libucrt:winapi_thunks.obj
 0001:000864ac       __acrt_AreFileApisANSI     00000001400874ac f   libucrt:winapi_thunks.obj
 0001:000864e8       __acrt_CompareStringEx     00000001400874e8 f   libucrt:winapi_thunks.obj
 0001:000865c4       __acrt_FlsAlloc            00000001400875c4 f   libucrt:winapi_thunks.obj
 0001:0008660c       __acrt_FlsFree             000000014008760c f   libucrt:winapi_thunks.obj
 0001:00086654       __acrt_FlsGetValue         0000000140087654 f   libucrt:winapi_thunks.obj
 0001:0008669c       __acrt_FlsSetValue         000000014008769c f   libucrt:winapi_thunks.obj
 0001:000866f0       __acrt_GetSystemTimePreciseAsFileTime 00000001400876f0 f   libucrt:winapi_thunks.obj
 0001:00086738       __acrt_InitializeCriticalSectionEx 0000000140087738 f   libucrt:winapi_thunks.obj
 0001:0008679c       __acrt_LCMapStringEx       000000014008779c f   libucrt:winapi_thunks.obj
 0001:00086878       __acrt_LocaleNameToLCID    0000000140087878 f   libucrt:winapi_thunks.obj
 0001:000868c8       __acrt_MessageBoxW         00000001400878c8 f   libucrt:winapi_thunks.obj
 0001:0008693c       __acrt_can_show_message_box 000000014008793c f   libucrt:winapi_thunks.obj
 0001:000869ac       __acrt_get_parent_window   00000001400879ac f   libucrt:winapi_thunks.obj
 0001:00086a24       __acrt_initialize_winapi_thunks 0000000140087a24 f   libucrt:winapi_thunks.obj
 0001:00086a58       __acrt_is_interactive      0000000140087a58 f   libucrt:winapi_thunks.obj
 0001:00086b20       __acrt_uninitialize_winapi_thunks 0000000140087b20 f   libucrt:winapi_thunks.obj
 0001:00086b64       _calloc_base               0000000140087b64 f   libucrt:calloc_base.obj
 0001:00086bdc       _fcloseall                 0000000140087bdc f   libucrt:closeall.obj
 0001:00086c90       _getdrive                  0000000140087c90 f   libucrt:drive.obj
 0001:00086d8c       ??$__acrt_get_full_path_name_wide@U__crt_win32_buffer_no_resizing@@@@YAHQEB_WAEAV?$__crt_win32_buffer@_WU__crt_win32_buffer_no_resizing@@@@@Z 0000000140087d8c f i libucrt:fullpath.obj
 0001:00086e00       ??$__acrt_get_full_path_name_wide@U__crt_win32_buffer_public_dynamic_resizing@@@@YAHQEB_WAEAV?$__crt_win32_buffer@_WU__crt_win32_buffer_public_dynamic_resizing@@@@@Z 0000000140087e00 f i libucrt:fullpath.obj
 0001:00086ee0       ?detach@?$__crt_win32_buffer@_WU__crt_win32_buffer_public_dynamic_resizing@@@@QEAAPEA_WXZ 0000000140087ee0 f i libucrt:fullpath.obj
 0001:00086fc8       _wfullpath                 0000000140087fc8 f   libucrt:fullpath.obj
 0001:0008707c       wcspbrk                    000000014008807c f   libucrt:wcspbrk.obj
 0001:000870b0       _wcsicmp                   00000001400880b0 f   libucrt:wcsicmp.obj
 0001:00087148       _wcsicmp_l                 0000000140088148 f   libucrt:wcsicmp.obj
 0001:00087248       __acrt_MultiByteToWideChar 0000000140088248 f   libucrt:multibytetowidechar.obj
 0001:000872a4       __acrt_lowio_create_handle_array 00000001400882a4 f   libucrt:osfinfo.obj
 0001:0008734c       __acrt_lowio_destroy_handle_array 000000014008834c f   libucrt:osfinfo.obj
 0001:0008739c       __acrt_lowio_ensure_fh_exists 000000014008839c f   libucrt:osfinfo.obj
 0001:00087444       __acrt_lowio_lock_fh       0000000140088444 f   libucrt:osfinfo.obj
 0001:0008746c       __acrt_lowio_set_os_handle 000000014008846c f   libucrt:osfinfo.obj
 0001:0008752c       __acrt_lowio_unlock_fh     000000014008852c f   libucrt:osfinfo.obj
 0001:00087554       _alloc_osfhnd              0000000140088554 f   libucrt:osfinfo.obj
 0001:00087694       _free_osfhnd               0000000140088694 f   libucrt:osfinfo.obj
 0001:00087750       _get_osfhandle             0000000140088750 f   libucrt:osfinfo.obj
 0001:000879f4       __loctotime64_t            00000001400889f4 f   libucrt:loctotime.obj
 0001:000879fc       __sys_errlist              00000001400889fc f   libucrt:syserr.obj
 0001:00087a04       __sys_nerr                 0000000140088a04 f   libucrt:syserr.obj
 0001:00087a0c       __acrt_initialize_locks    0000000140088a0c f   libucrt:locks.obj
 0001:00087a54       __acrt_lock                0000000140088a54 f   libucrt:locks.obj
 0001:00087a70       __acrt_uninitialize_locks  0000000140088a70 f   libucrt:locks.obj
 0001:00087aa8       __acrt_unlock              0000000140088aa8 f   libucrt:locks.obj
 0001:00087b50       _commit                    0000000140088b50 f   libucrt:commit.obj
 0001:00088450       _write                     0000000140089450 f   libucrt:write.obj
 0001:0008853c       _write_nolock              000000014008953c f   libucrt:write.obj
 0001:00088a5c       __acrt_stdio_flush_and_write_narrow_nolock 0000000140089a5c f   libucrt:_flsbuf.obj
 0001:00088b48       __acrt_stdio_flush_and_write_wide_nolock 0000000140089b48 f   libucrt:_flsbuf.obj
 0001:00088c34       _wremove                   0000000140089c34 f   libucrt:wunlink.obj
 0001:00089284       _sopen_nolock              000000014008a284 f   libucrt:open.obj
 0001:0008939c       _sopen_s                   000000014008a39c f   libucrt:open.obj
 0001:000893d0       _wsopen_nolock             000000014008a3d0 f   libucrt:open.obj
 0001:000897b8       __acrt_get_developer_information_policy 000000014008a7b8 f   libucrt:win_policies.obj
 0001:0008980c       __acrt_get_process_end_policy 000000014008a80c f   libucrt:win_policies.obj
 0001:00089848       __acrt_get_windowing_model_policy 000000014008a848 f   libucrt:win_policies.obj
 0001:000898c8       ??$__acrt_wcs_to_mbs_cp@U__crt_win32_buffer_internal_dynamic_resizing@@@@YAHQEB_WAEAV?$__crt_win32_buffer@DU__crt_win32_buffer_internal_dynamic_resizing@@@@I@Z 000000014008a8c8 f i libucrt:argv_wildcards.obj
 0001:0008a0f8       __acrt_expand_narrow_argv_wildcards 000000014008b0f8 f   libucrt:argv_wildcards.obj
 0001:0008a82c       __acrt_initialize_multibyte 000000014008b82c f   libucrt:mbctype.obj
 0001:0008a88c       __acrt_update_thread_multibyte_data 000000014008b88c f   libucrt:mbctype.obj
 0001:0008a8a8       _setmbcp_nolock            000000014008b8a8 f   libucrt:mbctype.obj
 0001:0008abdc       _ismbblead                 000000014008bbdc f   libucrt:ismbbyte.obj
 0001:0008abf0       __acrt_WideCharToMultiByte 000000014008bbf0 f   libucrt:widechartomultibyte.obj
 0001:0008ac88       __dcrt_get_narrow_environment_from_os 000000014008bc88 f   libucrt:get_environment_from_os.obj
 0001:0008b194       __dcrt_set_variable_in_narrow_environment_nolock 000000014008c194 f   libucrt:setenv.obj
 0001:0008b19c       ___lc_codepage_func        000000014008c19c f   libucrt:initctype.obj
 0001:0008b1cc       __acrt_locale_free_monetary 000000014008c1cc f   libucrt:initmon.obj
 0001:0008b2d8       __acrt_locale_free_numeric 000000014008c2d8 f   libucrt:initnum.obj
 0001:0008b39c       __acrt_locale_free_time    000000014008c39c f   libucrt:inittime.obj
 0001:0008b4a4       __acrt_GetStringTypeA      000000014008c4a4 f   libucrt:getstringtypea.obj
 0001:0008b634       __acrt_add_locale_ref      000000014008c634 f   libucrt:locale_refcounting.obj
 0001:0008b6c0       __acrt_free_locale         000000014008c6c0 f   libucrt:locale_refcounting.obj
 0001:0008b838       __acrt_locale_add_lc_time_reference 000000014008c838 f   libucrt:locale_refcounting.obj
 0001:0008b860       __acrt_locale_free_lc_time_if_unreferenced 000000014008c860 f   libucrt:locale_refcounting.obj
 0001:0008b898       __acrt_locale_release_lc_time_reference 000000014008c898 f   libucrt:locale_refcounting.obj
 0001:0008b8c0       __acrt_release_locale_ref  000000014008c8c0 f   libucrt:locale_refcounting.obj
 0001:0008b968       __acrt_update_thread_locale_data 000000014008c968 f   libucrt:locale_refcounting.obj
 0001:0008b9d8       _updatetlocinfoEx_nolock   000000014008c9d8 f   libucrt:locale_refcounting.obj
 0001:0008ba40       _recalloc_base             000000014008ca40 f   libucrt:recalloc.obj
 0001:0008bad8       __acrt_initialize_heap     000000014008cad8 f   libucrt:heap_handle.obj
 0001:0008baf4       __acrt_uninitialize_heap   000000014008caf4 f   libucrt:heap_handle.obj
 0001:0008bb00       __acrt_execute_initializers 000000014008cb00 f   libucrt:shared_initialization.obj
 0001:0008bb80       __acrt_execute_uninitializers 000000014008cb80 f   libucrt:shared_initialization.obj
 0001:0008bbbc       __acrt_initialize_new_handler 000000014008cbbc f   libucrt:new_handler.obj
 0001:0008bbc4       _callnewh                  000000014008cbc4 f   libucrt:new_handler.obj
 0001:0008bbf4       _query_new_handler         000000014008cbf4 f   libucrt:new_handler.obj
 0001:0008bc28       __acrt_GetStringTypeW      000000014008cc28 f   libucrt:getstringtypew.obj
 0001:0008bc30       _isleadbyte_l              000000014008cc30 f i libucrt:_wctype.obj
 0001:0008bc90       _get_fpsr                  000000014008cc90 f   libucrt:fpsr.obj
 0001:0008bca0       _set_fpsr                  000000014008cca0 f   libucrt:fpsr.obj
 0001:0008bcaa       _fclrf                     000000014008ccaa f   libucrt:fpsr.obj
 0001:0008bcbe       _frnd                      000000014008ccbe f   libucrt:fpsr.obj
 0001:0008bce0       _isatty                    000000014008cce0 f   libucrt:isatty.obj
 0001:0008bd40       __acrt_stdio_allocate_buffer_nolock 000000014008cd40 f   libucrt:_getbuf.obj
 0001:0008c0c0       __acrt_LCMapStringA        000000014008d0c0 f   libucrt:lcmapstringa.obj
 0001:0008c158       ?__mbrtowc_utf8@__crt_mbstring@@YA_KPEA_WPEBD_KPEAU_Mbstatet@@@Z 000000014008d158 f   libucrt:mbrtowc.obj
 0001:0008c194       ?__mbsrtowcs_utf8@__crt_mbstring@@YA_KPEA_WPEAPEBD_KPEAU_Mbstatet@@@Z 000000014008d194 f   libucrt:mbrtowc.obj
 0001:0008c30c       ?__c32rtomb_utf8@__crt_mbstring@@YA_KPEAD_UPEAU_Mbstatet@@@Z 000000014008d30c f   libucrt:c32rtomb.obj
 0001:0008c3c4       __acrt_fp_strflt_to_string 000000014008d3c4 f   libucrt:_fptostr.obj
 0001:0008c4a8       __acrt_fltout              000000014008d4a8 f   libucrt:cfout.obj
 0001:0008d6dc       __acrt_fenv_get_common_round_control 000000014008e6dc f   libucrt:_fenvutils.obj
 0001:0008d6e8       __acrt_fenv_get_control    000000014008e6e8 f   libucrt:_fenvutils.obj
 0001:0008d7dc       __acrt_fenv_get_status     000000014008e7dc f   libucrt:_fenvutils.obj
 0001:0008d830       __acrt_fenv_set_control    000000014008e830 f   libucrt:_fenvutils.obj
 0001:0008d978       __acrt_fenv_set_status     000000014008e978 f   libucrt:_fenvutils.obj
 0001:0008db80       getenv_s                   000000014008eb80 f   libucrt:getenv.obj
 0001:0008dc70       __acrt_DownlevelLocaleNameToLCID 000000014008ec70 f   libucrt:lcidtoname_downlevel.obj
 0001:0008de8c       _wgetcwd                   000000014008ee8c f   libucrt:getcwd.obj
 0001:0008deb4       _towlower_l                000000014008eeb4 f   libucrt:towlower.obj
 0001:0008df78       _putwch_nolock             000000014008ef78 f   libucrt:putwch.obj
 0001:0008dfb4       _chsize_nolock             000000014008efb4 f   libucrt:chsize.obj
 0001:0008e1c0       strpbrk                    000000014008f1c0 f   libucrt:strpbrk.obj
 0001:0008e5a0       _mbsdec                    000000014008f5a0 f   libucrt:mbsdec.obj
 0001:0008e5a8       _mbsdec_l                  000000014008f5a8 f   libucrt:mbsdec.obj
 0001:0008e654       _strnicoll                 000000014008f654 f   libucrt:strnicol.obj
 0001:0008e66c       _strnicoll_l               000000014008f66c f   libucrt:strnicol.obj
 0001:0008e76c       __acrt_SetEnvironmentVariableA 000000014008f76c f   libucrt:setenvironmentvariablea.obj
 0001:0008e904       _msize_base                000000014008f904 f   libucrt:msize.obj
 0001:0008e940       __strncnt                  000000014008f940 f   libucrt:strncnt.obj
 0001:0008e958       ?__mbrtoc32_utf8@__crt_mbstring@@YA_KPEA_UPEBD_KPEAU_Mbstatet@@@Z 000000014008f958 f   libucrt:mbrtoc32.obj
 0001:0008eb34       fegetenv                   000000014008fb34 f   libucrt:fegetenv.obj
 0001:0008eb54       fesetenv                   000000014008fb54 f   libucrt:fesetenv.obj
 0001:0008eba4       feholdexcept               000000014008fba4 f   libucrt:feholdexcept.obj
 0001:0008ebf4       ceil                       000000014008fbf4 f   libucrt:ceil.obj
 0001:0008ecc0       log10                      000000014008fcc0 f   libucrt:log10.obj
 0001:0008f26c       __acrt_LCMapStringW        000000014009026c f   libucrt:lcmapstringw.obj
 0001:0008f2f4       __dcrt_lowio_ensure_console_output_initialized 00000001400902f4 f   libucrt:initcon.obj
 0001:0008f348       __dcrt_terminate_console_output 0000000140090348 f   libucrt:initcon.obj
 0001:0008f364       __dcrt_write_console       0000000140090364 f   libucrt:initcon.obj
 0001:0008f784       __acrt_CompareStringA      0000000140090784 f   libucrt:comparestringa.obj
 0001:0008f810       _clearfp                   0000000140090810 f   libucrt:ieee.obj
 0001:0008f880       _log10_special             0000000140090880 f   libucrt:log_special.obj
 0001:0008f938       ??_Etype_info@@UEAAPEAXI@Z 0000000140090938 f i LIBCMT:std_type_info_static.obj
 0001:0008f938       ??_Gtype_info@@UEAAPEAXI@Z 0000000140090938 f i LIBCMT:std_type_info_static.obj
 0001:0008f970       _FindPESection             0000000140090970 f   LIBCMT:pesect.obj
 0001:0008f9c0       _IsNonwritableInCurrentImage 00000001400909c0 f   LIBCMT:pesect.obj
 0001:0008fa10       _ValidateImageBase         0000000140090a10 f   LIBCMT:pesect.obj
 0001:0008fa40       ??3@YAXPEAX_K@Z            0000000140090a40 f   LIBCMT:delete_scalar_size.obj
 0001:0008fa48       ??3@YAXPEAX@Z              0000000140090a48 f   LIBCMT:delete_scalar.obj
 0001:0008fa50       wcsrchr                    0000000140090a50 f   libvcruntime:wcsrchr.obj
 0001:0008fb20       _guard_dispatch_icall_nop  0000000140090b20 f   LIBCMT:guard_dispatch.obj
 0002:00000000       __imp_CreateDCW            0000000140091000     gdi32:GDI32.dll
 0002:00000008       __imp_GetDeviceCaps        0000000140091008     gdi32:GDI32.dll
 0002:00000010       __imp_SetDeviceGammaRamp   0000000140091010     gdi32:GDI32.dll
 0002:00000018       __imp_CreateRectRgn        0000000140091018     gdi32:GDI32.dll
 0002:00000020       __imp_DeleteObject         0000000140091020     gdi32:GDI32.dll
 0002:00000028       __imp_ChoosePixelFormat    0000000140091028     gdi32:GDI32.dll
 0002:00000030       __imp_DescribePixelFormat  0000000140091030     gdi32:GDI32.dll
 0002:00000038       __imp_SetPixelFormat       0000000140091038     gdi32:GDI32.dll
 0002:00000040       __imp_SwapBuffers          0000000140091040     gdi32:GDI32.dll
 0002:00000048       __imp_DeleteDC             0000000140091048     gdi32:GDI32.dll
 0002:00000050       \177GDI32_NULL_THUNK_DATA  0000000140091050     gdi32:GDI32.dll
 0002:00000058       __imp_WideCharToMultiByte  0000000140091058     kernel32:KERNEL32.dll
 0002:00000060       __imp_QueryPerformanceCounter 0000000140091060     kernel32:KERNEL32.dll
 0002:00000068       __imp_QueryPerformanceFrequency 0000000140091068     kernel32:KERNEL32.dll
 0002:00000070       __imp_InitializeCriticalSection 0000000140091070     kernel32:KERNEL32.dll
 0002:00000078       __imp_EnterCriticalSection 0000000140091078     kernel32:KERNEL32.dll
 0002:00000080       __imp_LeaveCriticalSection 0000000140091080     kernel32:KERNEL32.dll
 0002:00000088       __imp_DeleteCriticalSection 0000000140091088     kernel32:KERNEL32.dll
 0002:00000090       __imp_TlsAlloc             0000000140091090     kernel32:KERNEL32.dll
 0002:00000098       __imp_TlsGetValue          0000000140091098     kernel32:KERNEL32.dll
 0002:000000a0       __imp_TlsSetValue          00000001400910a0     kernel32:KERNEL32.dll
 0002:000000a8       __imp_TlsFree              00000001400910a8     kernel32:KERNEL32.dll
 0002:000000b0       __imp_SetThreadExecutionState 00000001400910b0     kernel32:KERNEL32.dll
 0002:000000b8       __imp_CloseHandle          00000001400910b8     kernel32:KERNEL32.dll
 0002:000000c0       __imp_InitializeCriticalSectionAndSpinCount 00000001400910c0     kernel32:KERNEL32.dll
 0002:000000c8       __imp_SetEvent             00000001400910c8     kernel32:KERNEL32.dll
 0002:000000d0       __imp_ResetEvent           00000001400910d0     kernel32:KERNEL32.dll
 0002:000000d8       __imp_WaitForSingleObjectEx 00000001400910d8     kernel32:KERNEL32.dll
 0002:000000e0       __imp_CreateEventW         00000001400910e0     kernel32:KERNEL32.dll
 0002:000000e8       __imp_RtlCaptureContext    00000001400910e8     kernel32:KERNEL32.dll
 0002:000000f0       __imp_RtlLookupFunctionEntry 00000001400910f0     kernel32:KERNEL32.dll
 0002:000000f8       __imp_RtlVirtualUnwind     00000001400910f8     kernel32:KERNEL32.dll
 0002:00000100       __imp_UnhandledExceptionFilter 0000000140091100     kernel32:KERNEL32.dll
 0002:00000108       __imp_SetUnhandledExceptionFilter 0000000140091108     kernel32:KERNEL32.dll
 0002:00000110       __imp_GetCurrentProcess    0000000140091110     kernel32:KERNEL32.dll
 0002:00000118       __imp_TerminateProcess     0000000140091118     kernel32:KERNEL32.dll
 0002:00000120       __imp_IsProcessorFeaturePresent 0000000140091120     kernel32:KERNEL32.dll
 0002:00000128       __imp_IsDebuggerPresent    0000000140091128     kernel32:KERNEL32.dll
 0002:00000130       __imp_GetStartupInfoW      0000000140091130     kernel32:KERNEL32.dll
 0002:00000138       __imp_GetCurrentProcessId  0000000140091138     kernel32:KERNEL32.dll
 0002:00000140       __imp_GetCurrentThreadId   0000000140091140     kernel32:KERNEL32.dll
 0002:00000148       __imp_GetSystemTimeAsFileTime 0000000140091148     kernel32:KERNEL32.dll
 0002:00000150       __imp_InitializeSListHead  0000000140091150     kernel32:KERNEL32.dll
 0002:00000158       __imp_HeapSize             0000000140091158     kernel32:KERNEL32.dll
 0002:00000160       __imp_SetEndOfFile         0000000140091160     kernel32:KERNEL32.dll
 0002:00000168       __imp_GetProcessHeap       0000000140091168     kernel32:KERNEL32.dll
 0002:00000170       __imp_GetStringTypeW       0000000140091170     kernel32:KERNEL32.dll
 0002:00000178       __imp_SetEnvironmentVariableW 0000000140091178     kernel32:KERNEL32.dll
 0002:00000180       __imp_FreeEnvironmentStringsW 0000000140091180     kernel32:KERNEL32.dll
 0002:00000188       __imp_GetEnvironmentStringsW 0000000140091188     kernel32:KERNEL32.dll
 0002:00000190       __imp_GetCPInfo            0000000140091190     kernel32:KERNEL32.dll
 0002:00000198       __imp_GetOEMCP             0000000140091198     kernel32:KERNEL32.dll
 0002:000001a0       __imp_GetACP               00000001400911a0     kernel32:KERNEL32.dll
 0002:000001a8       __imp_IsValidCodePage      00000001400911a8     kernel32:KERNEL32.dll
 0002:000001b0       __imp_FindNextFileW        00000001400911b0     kernel32:KERNEL32.dll
 0002:000001b8       __imp_FindFirstFileExW     00000001400911b8     kernel32:KERNEL32.dll
 0002:000001c0       __imp_DeleteFileW          00000001400911c0     kernel32:KERNEL32.dll
 0002:000001c8       __imp_GetFileSizeEx        00000001400911c8     kernel32:KERNEL32.dll
 0002:000001d0       __imp_FormatMessageW       00000001400911d0     kernel32:KERNEL32.dll
 0002:000001d8       __imp_FlushFileBuffers     00000001400911d8     kernel32:KERNEL32.dll
 0002:000001e0       __imp_SetStdHandle         00000001400911e0     kernel32:KERNEL32.dll
 0002:000001e8       __imp_GetFullPathNameW     00000001400911e8     kernel32:KERNEL32.dll
 0002:000001f0       __imp_GetCurrentDirectoryW 00000001400911f0     kernel32:KERNEL32.dll
 0002:000001f8       __imp_LCMapStringW         00000001400911f8     kernel32:KERNEL32.dll
 0002:00000200       __imp_CompareStringW       0000000140091200     kernel32:KERNEL32.dll
 0002:00000208       __imp_GetTimeZoneInformation 0000000140091208     kernel32:KERNEL32.dll
 0002:00000210       __imp_SetFilePointerEx     0000000140091210     kernel32:KERNEL32.dll
 0002:00000218       __imp_ReadConsoleW         0000000140091218     kernel32:KERNEL32.dll
 0002:00000220       __imp_GetConsoleMode       0000000140091220     kernel32:KERNEL32.dll
 0002:00000228       __imp_HeapReAlloc          0000000140091228     kernel32:KERNEL32.dll
 0002:00000230       __imp_HeapAlloc            0000000140091230     kernel32:KERNEL32.dll
 0002:00000238       __imp_HeapFree             0000000140091238     kernel32:KERNEL32.dll
 0002:00000240       __imp_OutputDebugStringW   0000000140091240     kernel32:KERNEL32.dll
 0002:00000248       __imp_GetCommandLineW      0000000140091248     kernel32:KERNEL32.dll
 0002:00000250       __imp_GetCommandLineA      0000000140091250     kernel32:KERNEL32.dll
 0002:00000258       __imp_WriteFile            0000000140091258     kernel32:KERNEL32.dll
 0002:00000260       __imp_ExitProcess          0000000140091260     kernel32:KERNEL32.dll
 0002:00000268       __imp_SystemTimeToFileTime 0000000140091268     kernel32:KERNEL32.dll
 0002:00000270       __imp_TzSpecificLocalTimeToSystemTime 0000000140091270     kernel32:KERNEL32.dll
 0002:00000278       __imp_SetFileTime          0000000140091278     kernel32:KERNEL32.dll
 0002:00000280       __imp_FileTimeToSystemTime 0000000140091280     kernel32:KERNEL32.dll
 0002:00000288       __imp_SystemTimeToTzSpecificLocalTime 0000000140091288     kernel32:KERNEL32.dll
 0002:00000290       __imp_PeekNamedPipe        0000000140091290     kernel32:KERNEL32.dll
 0002:00000298       __imp_GetFileInformationByHandle 0000000140091298     kernel32:KERNEL32.dll
 0002:000002a0       __imp_GetDriveTypeW        00000001400912a0     kernel32:KERNEL32.dll
 0002:000002a8       __imp_CreateFileW          00000001400912a8     kernel32:KERNEL32.dll
 0002:000002b0       __imp_ReadFile             00000001400912b0     kernel32:KERNEL32.dll
 0002:000002b8       __imp_WriteConsoleW        00000001400912b8     kernel32:KERNEL32.dll
 0002:000002c0       __imp_GetModuleHandleExW   00000001400912c0     kernel32:KERNEL32.dll
 0002:000002c8       __imp_GetModuleFileNameW   00000001400912c8     kernel32:KERNEL32.dll
 0002:000002d0       __imp_GetFileType          00000001400912d0     kernel32:KERNEL32.dll
 0002:000002d8       __imp_GetStdHandle         00000001400912d8     kernel32:KERNEL32.dll
 0002:000002e0       __imp_RtlPcToFileHeader    00000001400912e0     kernel32:KERNEL32.dll
 0002:000002e8       __imp_LoadLibraryExW       00000001400912e8     kernel32:KERNEL32.dll
 0002:000002f0       __imp_RaiseException       00000001400912f0     kernel32:KERNEL32.dll
 0002:000002f8       __imp_EncodePointer        00000001400912f8     kernel32:KERNEL32.dll
 0002:00000300       __imp_SetLastError         0000000140091300     kernel32:KERNEL32.dll
 0002:00000308       __imp_RtlUnwindEx          0000000140091308     kernel32:KERNEL32.dll
 0002:00000310       __imp_MultiByteToWideChar  0000000140091310     kernel32:KERNEL32.dll
 0002:00000318       __imp_LoadLibraryA         0000000140091318     kernel32:KERNEL32.dll
 0002:00000320       __imp_GetModuleHandleW     0000000140091320     kernel32:KERNEL32.dll
 0002:00000328       __imp_VerSetConditionMask  0000000140091328     kernel32:KERNEL32.dll
 0002:00000330       __imp_LoadLibraryW         0000000140091330     kernel32:KERNEL32.dll
 0002:00000338       __imp_GetProcAddress       0000000140091338     kernel32:KERNEL32.dll
 0002:00000340       __imp_FreeLibrary          0000000140091340     kernel32:KERNEL32.dll
 0002:00000348       __imp_GetLastError         0000000140091348     kernel32:KERNEL32.dll
 0002:00000350       __imp_GetFileAttributesExA 0000000140091350     kernel32:KERNEL32.dll
 0002:00000358       __imp_FindNextFileA        0000000140091358     kernel32:KERNEL32.dll
 0002:00000360       __imp_FindFirstFileA       0000000140091360     kernel32:KERNEL32.dll
 0002:00000368       __imp_FindClose            0000000140091368     kernel32:KERNEL32.dll
 0002:00000370       __imp_GetConsoleCP         0000000140091370     kernel32:KERNEL32.dll
 0002:00000378       __imp_CompareFileTime      0000000140091378     kernel32:KERNEL32.dll
 0002:00000380       \177KERNEL32_NULL_THUNK_DATA 0000000140091380     kernel32:KERNEL32.dll
 0002:00000388       __imp_DragQueryPoint       0000000140091388     shell32:SHELL32.dll
 0002:00000390       __imp_DragFinish           0000000140091390     shell32:SHELL32.dll
 0002:00000398       __imp_DragAcceptFiles      0000000140091398     shell32:SHELL32.dll
 0002:000003a0       __imp_DragQueryFileW       00000001400913a0     shell32:SHELL32.dll
 0002:000003a8       \177SHELL32_NULL_THUNK_DATA 00000001400913a8     shell32:SHELL32.dll
 0002:000003b0       __imp_GetRawInputDeviceList 00000001400913b0     user32:USER32.dll
 0002:000003b8       __imp_GetRawInputDeviceInfoA 00000001400913b8     user32:USER32.dll
 0002:000003c0       __imp_RegisterRawInputDevices 00000001400913c0     user32:USER32.dll
 0002:000003c8       __imp_GetRawInputData      00000001400913c8     user32:USER32.dll
 0002:000003d0       __imp_MonitorFromWindow    00000001400913d0     user32:USER32.dll
 0002:000003d8       __imp_LoadImageW           00000001400913d8     user32:USER32.dll
 0002:000003e0       __imp_DestroyIcon          00000001400913e0     user32:USER32.dll
 0002:000003e8       __imp_LoadCursorW          00000001400913e8     user32:USER32.dll
 0002:000003f0       __imp_SetWindowLongW       00000001400913f0     user32:USER32.dll
 0002:000003f8       __imp_GetWindowLongW       00000001400913f8     user32:USER32.dll
 0002:00000400       __imp_PtInRect             0000000140091400     user32:USER32.dll
 0002:00000408       __imp_SetRect              0000000140091408     user32:USER32.dll
 0002:00000410       __imp_ClipCursor           0000000140091410     user32:USER32.dll
 0002:00000418       __imp_WindowFromPoint      0000000140091418     user32:USER32.dll
 0002:00000420       __imp_ScreenToClient       0000000140091420     user32:USER32.dll
 0002:00000428       __imp_ClientToScreen       0000000140091428     user32:USER32.dll
 0002:00000430       __imp_GetCursorPos         0000000140091430     user32:USER32.dll
 0002:00000438       __imp_SetCursor            0000000140091438     user32:USER32.dll
 0002:00000440       __imp_AdjustWindowRectEx   0000000140091440     user32:USER32.dll
 0002:00000448       __imp_GetClientRect        0000000140091448     user32:USER32.dll
 0002:00000450       __imp_SetWindowTextW       0000000140091450     user32:USER32.dll
 0002:00000458       __imp_RemovePropW          0000000140091458     user32:USER32.dll
 0002:00000460       __imp_GetPropW             0000000140091460     user32:USER32.dll
 0002:00000468       __imp_SetPropW             0000000140091468     user32:USER32.dll
 0002:00000470       __imp_RedrawWindow         0000000140091470     user32:USER32.dll
 0002:00000478       __imp_SetForegroundWindow  0000000140091478     user32:USER32.dll
 0002:00000480       __imp_ReleaseCapture       0000000140091480     user32:USER32.dll
 0002:00000488       __imp_SetCapture           0000000140091488     user32:USER32.dll
 0002:00000490       __imp_GetAsyncKeyState     0000000140091490     user32:USER32.dll
 0002:00000498       __imp_GetKeyState          0000000140091498     user32:USER32.dll
 0002:000004a0       __imp_GetActiveWindow      00000001400914a0     user32:USER32.dll
 0002:000004a8       __imp_SetCursorPos         00000001400914a8     user32:USER32.dll
 0002:000004b0       __imp_BringWindowToTop     00000001400914b0     user32:USER32.dll
 0002:000004b8       __imp_SetWindowPos         00000001400914b8     user32:USER32.dll
 0002:000004c0       __imp_SetLayeredWindowAttributes 00000001400914c0     user32:USER32.dll
 0002:000004c8       __imp_RegisterClassExW     00000001400914c8     user32:USER32.dll
 0002:000004d0       __imp_UnregisterClassW     00000001400914d0     user32:USER32.dll
 0002:000004d8       __imp_DefWindowProcW       00000001400914d8     user32:USER32.dll
 0002:000004e0       __imp_GetMessageTime       00000001400914e0     user32:USER32.dll
 0002:000004e8       __imp_TrackMouseEvent      00000001400914e8     user32:USER32.dll
 0002:000004f0       __imp_EnumDisplayMonitors  00000001400914f0     user32:USER32.dll
 0002:000004f8       __imp_GetMonitorInfoW      00000001400914f8     user32:USER32.dll
 0002:00000500       __imp_EnumDisplayDevicesW  0000000140091500     user32:USER32.dll
 0002:00000508       __imp_EnumDisplaySettingsExW 0000000140091508     user32:USER32.dll
 0002:00000510       __imp_EnumDisplaySettingsW 0000000140091510     user32:USER32.dll
 0002:00000518       __imp_ChangeDisplaySettingsExW 0000000140091518     user32:USER32.dll
 0002:00000520       __imp_ReleaseDC            0000000140091520     user32:USER32.dll
 0002:00000528       __imp_GetDC                0000000140091528     user32:USER32.dll
 0002:00000530       __imp_SystemParametersInfoW 0000000140091530     user32:USER32.dll
 0002:00000538       __imp_MapVirtualKeyW       0000000140091538     user32:USER32.dll
 0002:00000540       __imp_ToUnicode            0000000140091540     user32:USER32.dll
 0002:00000548       __imp_ShowWindow           0000000140091548     user32:USER32.dll
 0002:00000550       __imp_DestroyWindow        0000000140091550     user32:USER32.dll
 0002:00000558       __imp_CreateWindowExW      0000000140091558     user32:USER32.dll
 0002:00000560       __imp_UnregisterDeviceNotification 0000000140091560     user32:USER32.dll
 0002:00000568       __imp_RegisterDeviceNotificationW 0000000140091568     user32:USER32.dll
 0002:00000570       __imp_PeekMessageW         0000000140091570     user32:USER32.dll
 0002:00000578       __imp_DispatchMessageW     0000000140091578     user32:USER32.dll
 0002:00000580       __imp_TranslateMessage     0000000140091580     user32:USER32.dll
 0002:00000588       __imp_SetFocus             0000000140091588     user32:USER32.dll
 0002:00000590       \177USER32_NULL_THUNK_DATA 0000000140091590     user32:USER32.dll
 0002:00000598       __guard_check_icall_fptr   0000000140091598     LIBCMT:guard_support.obj
 0002:000005a0       __guard_dispatch_icall_fptr 00000001400915a0     LIBCMT:guard_support.obj
 0002:000005a8       __xc_a                     00000001400915a8     LIBCMT:initializers.obj
 0002:000005b8       __xc_z                     00000001400915b8     LIBCMT:initializers.obj
 0002:000005c0       __xi_a                     00000001400915c0     LIBCMT:initializers.obj
 0002:000005e0       __acrt_stdio_initializer   00000001400915e0     libucrt:stdio_initializer.obj
 0002:000005e8       __acrt_tran_fma3_initializer 00000001400915e8     libucrt:fma3_initializer.obj
 0002:000005f0       __acrt_timeset_initializer 00000001400915f0     libucrt:timeset_initializer.obj
 0002:000005f8       __acrt_multibyte_initializer 00000001400915f8     libucrt:multibyte_initializer.obj
 0002:00000600       __xi_z                     0000000140091600     LIBCMT:initializers.obj
 0002:00000608       __xl_a                     0000000140091608     LIBCMT:tlssup.obj
 0002:00000610       __xl_z                     0000000140091610     LIBCMT:tlssup.obj
 0002:00000618       __xp_a                     0000000140091618     LIBCMT:initializers.obj
 0002:00000620       __acrt_locale_terminator   0000000140091620     libucrt:locale_initializer.obj
 0002:00000628       __dcrt_console_output_terminator 0000000140091628     libucrt:console_output_initializer.obj
 0002:00000630       __acrt_stdio_terminator    0000000140091630     libucrt:stdio_initializer.obj
 0002:00000638       __xp_z                     0000000140091638     LIBCMT:initializers.obj
 0002:00000640       __xt_a                     0000000140091640     LIBCMT:initializers.obj
 0002:00000648       __xt_z                     0000000140091648     LIBCMT:initializers.obj
 0002:00001db8       __real@3f000000            0000000140092db8     asset_storage.obj
 0002:00001dbc       __real@3f800000            0000000140092dbc     asset_storage.obj
 0002:00001dc0       __real@40400000            0000000140092dc0     asset_storage.obj
 0002:00001dc4       __real@437f0000            0000000140092dc4     asset_storage.obj
 0002:00001dd0       __xmm@00000200000002000000020000000200 0000000140092dd0     asset_storage.obj
 0002:00001de0       __xmm@00080008000800080008000800080008 0000000140092de0     asset_storage.obj
 0002:00001df0       __xmm@00ff00ff00ff00ff00ff00ff00ff00ff 0000000140092df0     asset_storage.obj
 0002:00001e00       __xmm@01010000010100000101000001010000 0000000140092e00     asset_storage.obj
 0002:00001e10       __xmm@08a914e808a914e808a914e808a914e8 0000000140092e10     asset_storage.obj
 0002:00001e20       __xmm@11c8e09e11c8e09e11c8e09e11c8e09e 0000000140092e20     asset_storage.obj
 0002:00001e30       __xmm@11c8f9c311c8f9c311c8f9c311c8f9c3 0000000140092e30     asset_storage.obj
 0002:00001e40       __xmm@12d0046b12d0046b12d0046b12d0046b 0000000140092e40     asset_storage.obj
 0002:00001e50       __xmm@166f166f166f166f166f166f166f166f 0000000140092e50     asset_storage.obj
 0002:00001e60       __xmm@1c5a1c5a1c5a1c5a1c5a1c5a1c5a1c5a 0000000140092e60     asset_storage.obj
 0002:00001e70       __xmm@80808080808080808080808080808080 0000000140092e70     asset_storage.obj
 0002:00001e80       __xmm@e09ee565e09ee565e09ee565e09ee565 0000000140092e80     asset_storage.obj
 0002:00001e90       __xmm@e9cf12d0e9cf12d0e9cf12d0e9cf12d0 0000000140092e90     asset_storage.obj
 0002:00001ea0       __xmm@eb1a08a9eb1a08a9eb1a08a9eb1a08a9 0000000140092ea0     asset_storage.obj
 0002:00001eb0       __xmm@f493f493f493f493f493f493f493f493 0000000140092eb0     asset_storage.obj
 0002:00001ec0       __xmm@f9c31a9df9c31a9df9c31a9df9c31a9d 0000000140092ec0     asset_storage.obj
 0002:00001ed0       __xmm@fa7efa7efa7efa7efa7efa7efa7efa7e 0000000140092ed0     asset_storage.obj
 0002:000020f0       ??_C@_0BK@NJPOJGHK@w?3?2game_app?2code?2draw?4cpp@ 00000001400930f0     draw.obj
 0002:00002110       ??_C@_1DK@BGNCJAPL@?$AAi?$AA?5?$AA?$DO?$AA?$DN?$AA?5?$AA0?$AA?5?$AA?$CG?$AA?$CG?$AA?5?$AAi?$AA?5?$AA?$DM?$AA?5?$AAt@ 0000000140093110     draw.obj
 0002:00002150       ??_C@_1GA@CDJHJEO@?$AAw?$AA?3?$AA?2?$AAg?$AAa?$AAm?$AAe?$AA_?$AAa?$AAp?$AAp?$AA?2?$AAe?$AAx?$AAt@ 0000000140093150     draw.obj
 0002:000021b0       ??_C@_1GE@IAIEBIPP@?$AAw?$AA?3?$AA?2?$AAg?$AAa?$AAm?$AAe?$AA_?$AAa?$AAp?$AAp?$AA?2?$AAe?$AAx?$AAt@ 00000001400931b0     draw.obj
 0002:00002218       ??_C@_1CG@KOFHLCJL@?$AAi?$AA?5?$AA?$DM?$AA?5?$AAt?$AAh?$AAi?$AAs?$AA?9?$AA?$DO?$AAl?$AAe?$AAn?$AAg?$AAt@ 0000000140093218     draw.obj
 0002:00002240       ??_C@_1GA@HGKBJAMB@?$AAw?$AA?3?$AA?2?$AAg?$AAa?$AAm?$AAe?$AA_?$AAa?$AAp?$AAp?$AA?2?$AAe?$AAx?$AAt@ 0000000140093240     draw.obj
 0002:000022a0       __real@3c8efa35            00000001400932a0     draw.obj
 0002:000022a4       __real@42b40000            00000001400932a4     draw.obj
 0002:000022b0       __xmm@80000000800000008000000080000000 00000001400932b0     draw.obj
 0002:000022c0       __real@00000000            00000001400932c0     enemy_ai.obj
 0002:000022c8       __real@3fe0000000000000    00000001400932c8     enemy_ai.obj
 0002:000022d0       __real@41200000            00000001400932d0     enemy_ai.obj
 0002:000022d4       __real@42652ee1            00000001400932d4     enemy_ai.obj
 0002:00002378       ?strpool_default_config@@3Ustrpool_config_t@@B 0000000140093378     game.obj
 0002:00002a78       ?strpool_embedded_default_config@@3Ustrpool_embedded_config_t@@B 0000000140093a78     game.obj
 0002:0000676c       __real@3e4ccccd            000000014009776c     game.obj
 0002:00006770       __real@3e99999a            0000000140097770     game.obj
 0002:00006774       __real@3ecccccd            0000000140097774     game.obj
 0002:00006778       __real@3f333333            0000000140097778     game.obj
 0002:0000677c       __real@3f666666            000000014009777c     game.obj
 0002:00006780       __real@3f99999a            0000000140097780     game.obj
 0002:00006784       __real@40000000            0000000140097784     game.obj
 0002:00006788       __real@40f6178000000000    0000000140097788     game.obj
 0002:00006790       __real@412e848000000000    0000000140097790     game.obj
 0002:00006798       __real@41800000            0000000140097798     game.obj
 0002:0000679c       __real@41900000            000000014009779c     game.obj
 0002:000067a0       __real@41f00000            00000001400977a0     game.obj
 0002:000067a4       __real@420c0000            00000001400977a4     game.obj
 0002:000067a8       __real@42940000            00000001400977a8     game.obj
 0002:000067ac       __real@42c80000            00000001400977ac     game.obj
 0002:000067b0       __real@430c0000            00000001400977b0     game.obj
 0002:000067b4       __real@bf800000            00000001400977b4     game.obj
 0002:000067b8       __real@c0000000            00000001400977b8     game.obj
 0002:000067f8       __real@3ff0000000000000    00000001400977f8     glfw_main.obj
 0002:00006800       __real@408f400000000000    0000000140097800     glfw_main.obj
 0002:00006808       __real@447a0000            0000000140097808     glfw_main.obj
 0002:00006880       __real@43f0000000000000    0000000140097880     memory_arena.obj
 0002:00006f70       __real@40e00000            0000000140097f70     player_control.obj
 0002:00006f74       __real@42480000            0000000140097f74     tilemap.obj
 0002:00006f80       ??_C@_0GC@KIFEGHB@03000000fa2d0000010000000000000@ 0000000140097f80     glfw3:init.obj
 0002:00006ff0       ??_C@_0BBN@FMDJFAID@0300000002200000009000000000000@ 0000000140097ff0     glfw3:init.obj
 0002:00007110       ??_C@_0BBN@DDIMFOMP@0300000020380000090000000000000@ 0000000140098110     glfw3:init.obj
 0002:00007230       ??_C@_0KC@BDMHLJAH@0300000010280000090000000000000@ 0000000140098230     glfw3:init.obj
 0002:000072e0       ??_C@_0LK@IEAMBPJF@03000000a0050000323200000000000@ 00000001400982e0     glfw3:init.obj
 0002:000073a0       ??_C@_0BAP@JLLKEDGG@030000008f0e0000120000000000000@ 00000001400983a0     glfw3:init.obj
 0002:000074b0       ??_C@_0BCN@GIEEMMPB@03000000341a0000360800000000000@ 00000001400984b0     glfw3:init.obj
 0002:000075e0       ??_C@_0JO@HBLEAOAI@03000000c0110000135200000000000@ 00000001400985e0     glfw3:init.obj
 0002:00007680       ??_C@_0BCL@HMJAKFPC@030000006b140000005500000000000@ 0000000140098680     glfw3:init.obj
 0002:000077b0       ??_C@_0BBL@EFBOJJAL@0300000066f70000050000000000000@ 00000001400987b0     glfw3:init.obj
 0002:000078d0       ??_C@_0BCF@BIADCONP@03000000d81d00000b0000000000000@ 00000001400988d0     glfw3:init.obj
 0002:00007a00       ??_C@_0BBH@EKFHCAMB@03000000e8200000605800000000000@ 0000000140098a00     glfw3:init.obj
 0002:00007b20       ??_C@_0BBL@JOMIAFLN@030000005e0400008e0200000000000@ 0000000140098b20     glfw3:init.obj
 0002:00007c40       ??_C@_0PH@HDPKEOEB@0300000026090000888800000000000@ 0000000140098c40     glfw3:init.obj
 0002:00007d40       ??_C@_0BCC@ICCBMGAM@03000000a306000022f600000000000@ 0000000140098d40     glfw3:init.obj
 0002:00007e70       ??_C@_0BAE@PFJOMAIP@03000000791d0000010300000000000@ 0000000140098e70     glfw3:init.obj
 0002:00007f80       ??_C@_0BBO@PKEFDNGG@030000004f04000023b300000000000@ 0000000140098f80     glfw3:init.obj
 0002:000080a0       ??_C@_0BAC@DNICHFEF@03000000341a0000010800000000000@ 00000001400990a0     glfw3:init.obj
 0002:000081b0       ??_C@_0BDA@CMOFFENL@030000000d0f0000850000000000000@ 00000001400991b0     glfw3:init.obj
 0002:000082e0       ??_C@_0BCJ@GDBCPJIF@030000000d0f0000840000000000000@ 00000001400992e0     glfw3:init.obj
 0002:00008410       ??_C@_0OH@FOPKIOOK@030000000d0f0000880000000000000@ 0000000140099410     glfw3:init.obj
 0002:00008500       ??_C@_0OH@PKEJNDDF@030000000d0f0000870000000000000@ 0000000140099500     glfw3:init.obj
 0002:000085f0       ??_C@_0OD@GOLNACF@030000000d0f0000270000000000000@ 00000001400995f0     glfw3:init.obj
 0002:000086e0       ??_C@_0OA@BPMCGMAH@78696e7075740300000000000000000@ 00000001400996e0     glfw3:init.obj
 0002:000087c0       ??_C@_0BBL@LKPHLJJA@0300000079000000060000000000000@ 00000001400997c0     glfw3:init.obj
 0002:000088e0       ??_C@_0OB@DOLNAILH@0300000026090000262500000000000@ 00000001400998e0     glfw3:init.obj
 0002:000089d0       ??_C@_0BCE@HLGICLNK@030000008f0e00000d3100000000000@ 00000001400999d0     glfw3:init.obj
 0002:00008b00       ??_C@_0LK@DEPDOLNO@0300000028040000014000000000000@ 0000000140099b00     glfw3:init.obj
 0002:00008bc0       ??_C@_0BBL@BABJOOFG@03000000ffff0000000000000000000@ 0000000140099bc0     glfw3:init.obj
 0002:00008ce0       ??_C@_0BBP@PMDLBCBI@0300000045130000001000000000000@ 0000000140099ce0     glfw3:init.obj
 0002:00008e00       ??_C@_0BCB@CDNPOFJG@03000000341a0000030200000000000@ 0000000140099e00     glfw3:init.obj
 0002:00008f30       ??_C@_0BDA@KMJLBBJI@030000000d0f0000490000000000000@ 0000000140099f30     glfw3:init.obj
 0002:00009060       ??_C@_0OJ@OOLHGLBN@03000000d8140000086200000000000@ 000000014009a060     glfw3:init.obj
 0002:00009150       ??_C@_0BBH@LKFOHLNE@030000000d0f00005f0000000000000@ 000000014009a150     glfw3:init.obj
 0002:00009270       ??_C@_0BBH@LCHOLIJA@030000000d0f00005e0000000000000@ 000000014009a270     glfw3:init.obj
 0002:00009390       ??_C@_0OM@PAPEIDEH@030000000d0f0000400000000000000@ 000000014009a390     glfw3:init.obj
 0002:00009480       ??_C@_0BCE@JNCBHNAG@030000000d0f00006e0000000000000@ 000000014009a480     glfw3:init.obj
 0002:000095b0       ??_C@_0BCE@LONHMMNE@030000000d0f0000660000000000000@ 000000014009a5b0     glfw3:init.obj
 0002:000096e0       ??_C@_0BCC@ICCBFEBO@030000000d0f0000ee0000000000000@ 000000014009a6e0     glfw3:init.obj
 0002:00009810       ??_C@_0BBP@MIJPCIGF@030000000d0f00004d0000000000000@ 000000014009a810     glfw3:init.obj
 0002:00009930       ??_C@_0MP@NNGGKFCK@0300000025090000001700000000000@ 000000014009a930     glfw3:init.obj
 0002:00009a00       ??_C@_0LL@KLNOPNHB@030000008f0e0000133000000000000@ 000000014009aa00     glfw3:init.obj
 0002:00009ac0       ??_C@_0BCD@KBOGKJIK@03000000d81d00000f0000000000000@ 000000014009aac0     glfw3:init.obj
 0002:00009bf0       ??_C@_0BCE@PHFLGEEP@03000000d81d0000100000000000000@ 000000014009abf0     glfw3:init.obj
 0002:00009d20       ??_C@_0LN@ELDHBANA@0300000083050000602000000000000@ 000000014009ad20     glfw3:init.obj
 0002:00009de0       ??_C@_0OI@PJKINAML@03000000b5070000140300000000000@ 000000014009ade0     glfw3:init.obj
 0002:00009ed0       ??_C@_0OO@JIILGAHM@030000006f0e0000240100000000000@ 000000014009aed0     glfw3:init.obj
 0002:00009fc0       ??_C@_0BBK@GEMHLGCN@0300000049190000020400000000000@ 000000014009afc0     glfw3:init.obj
 0002:0000a0e0       ??_C@_0BBF@GOLEDGAH@030000006d04000011c200000000000@ 000000014009b0e0     glfw3:init.obj
 0002:0000a200       ??_C@_0BBP@NCCKJBD@030000006d04000016c200000000000@ 000000014009b200     glfw3:init.obj
 0002:0000a320       ??_C@_0BCA@IDEGIHPL@030000006d04000018c200000000000@ 000000014009b320     glfw3:init.obj
 0002:0000a440       ??_C@_0BCA@PDBJCLJJ@030000006d04000019c200000000000@ 000000014009b440     glfw3:init.obj
 0002:0000a560       ??_C@_0BDA@PJFOCFDI@0300000038070000503200000000000@ 000000014009b560     glfw3:init.obj
 0002:0000a690       ??_C@_0BDA@HBJEDFJC@0300000038070000508200000000000@ 000000014009b690     glfw3:init.obj
 0002:0000a7c0       ??_C@_0OP@DKGLPNPK@0300000038070000843300000000000@ 000000014009b7c0     glfw3:init.obj
 0002:0000a8b0       ??_C@_0BDC@MKHPLOHI@0300000038070000848300000000000@ 000000014009b8b0     glfw3:init.obj
 0002:0000a9f0       ??_C@_0BDB@PPKHIPGK@0300000038070000813400000000000@ 000000014009b9f0     glfw3:init.obj
 0002:0000ab30       ??_C@_0BDB@OHAMDKML@0300000038070000818400000000000@ 000000014009bb30     glfw3:init.obj
 0002:0000ac70       ??_C@_0BBD@FGLPEKLC@0300000038070000803400000000000@ 000000014009bc70     glfw3:init.obj
 0002:0000ad90       ??_C@_0BBD@GHNGPLFD@0300000038070000808400000000000@ 000000014009bd90     glfw3:init.obj
 0002:0000aeb0       ??_C@_0BBK@FBBILDLI@0300000038070000853200000000000@ 000000014009beb0     glfw3:init.obj
 0002:0000afd0       ??_C@_0BBL@JKCMMIPG@0300000038070000388800000000000@ 000000014009bfd0     glfw3:init.obj
 0002:0000b0f0       ??_C@_0BBD@LABNEKLL@0300000038070000188800000000000@ 000000014009c0f0     glfw3:init.obj
 0002:0000b210       ??_C@_0BBP@KNBKPMNJ@0300000038070000808100000000000@ 000000014009c210     glfw3:init.obj
 0002:0000b330       ??_C@_0BBJ@JDAOMACH@030000008305000031b000000000000@ 000000014009c330     glfw3:init.obj
 0002:0000b450       ??_C@_0MA@LPHGGGL@0300000025090000012800000000000@ 000000014009c450     glfw3:init.obj
 0002:0000b510       ??_C@_0PC@EBDFKGFN@0300000079000000441800000000000@ 000000014009c510     glfw3:init.obj
 0002:0000b610       ??_C@_0BDG@JHAIGEPC@0300000079000000431800000000000@ 000000014009c610     glfw3:init.obj
 0002:0000b750       ??_C@_0PI@JHAKKPHF@030000008f0e0000103000000000000@ 000000014009c750     glfw3:init.obj
 0002:0000b850       ??_C@_0BBD@DBNHIIMF@0300000025090000e80300000000000@ 000000014009c850     glfw3:init.obj
 0002:0000b970       ??_C@_0BDN@CCAJAJCK@0300000079000000001800000000000@ 000000014009c970     glfw3:init.obj
 0002:0000bab0       ??_C@_0LJ@GGIFBABN@030000001008000001e500000000000@ 000000014009cab0     glfw3:init.obj
 0002:0000bb70       ??_C@_0MA@ECCMLEBD@03000000bd12000015d000000000000@ 000000014009cb70     glfw3:init.obj
 0002:0000bc30       ??_C@_0BDD@DODHFLKI@030000007e050000092000000000000@ 000000014009cc30     glfw3:init.obj
 0002:0000bd70       ??_C@_0BCH@DECMPLLD@030000004b120000014d00000000000@ 000000014009cd70     glfw3:init.obj
 0002:0000bea0       ??_C@_0BBB@PJOPHLEI@0300000036280000010000000000000@ 000000014009cea0     glfw3:init.obj
 0002:0000bfc0       ??_C@_0OC@FELEMKIB@03000000120c0000f60e00000000000@ 000000014009cfc0     glfw3:init.obj
 0002:0000c0b0       ??_C@_0BBJ@KBEDPJIE@030000008f0e0000030000000000000@ 000000014009d0b0     glfw3:init.obj
 0002:0000c1d0       ??_C@_0BCC@FJIJNHMA@03000000d62000006dca00000000000@ 000000014009d1d0     glfw3:init.obj
 0002:0000c300       ??_C@_0BBO@DLNBHCGB@030000008f0e0000753000000000000@ 000000014009d300     glfw3:init.obj
 0002:0000c420       ??_C@_0BCC@CJMNKOGI@03000000e3050000960500000000000@ 000000014009d420     glfw3:init.obj
 0002:0000c550       ??_C@_0BBC@EEECNPCM@0300000010080000010000000000000@ 000000014009d550     glfw3:init.obj
 0002:0000c670       ??_C@_0BBC@NOMIFJEF@0300000010080000030000000000000@ 000000014009d670     glfw3:init.obj
 0002:0000c790       ??_C@_0BCD@DJDMNCGP@0300000088880000080300000000000@ 000000014009d790     glfw3:init.obj
 0002:0000c8c0       ??_C@_0BBP@IOECCAGN@030000004c050000680200000000000@ 000000014009d8c0     glfw3:init.obj
 0002:0000c9e0       ??_C@_0BBI@KAHKIEPM@0300000025090000050000000000000@ 000000014009d9e0     glfw3:init.obj
 0002:0000cb00       ??_C@_0OJ@KFMPHKBC@0300000010000000820000000000000@ 000000014009db00     glfw3:init.obj
 0002:0000cbf0       ??_C@_0BCD@JIBGPOCI@030000004c050000a00b00000000000@ 000000014009dbf0     glfw3:init.obj
 0002:0000cd20       ??_C@_0BCD@GAJAFIPA@030000004c050000c40500000000000@ 000000014009dd20     glfw3:init.obj
 0002:0000ce50       ??_C@_0BCD@BABDCDPH@030000004c050000cc0900000000000@ 000000014009de50     glfw3:init.obj
 0002:0000cf80       ??_C@_0PF@JBCCEDOB@03000000300f0000001100000000000@ 000000014009df80     glfw3:init.obj
 0002:0000d080       ??_C@_0OM@HGBIMFGF@03000000300f0000161100000000000@ 000000014009e080     glfw3:init.obj
 0002:0000d170       ??_C@_0ON@KEJKIAHI@03000000222c0000002000000000000@ 000000014009e170     glfw3:init.obj
 0002:0000d260       ??_C@_0LE@DMNOHJBL@03000000300f0000121000000000000@ 000000014009e260     glfw3:init.obj
 0002:0000d320       ??_C@_0PI@OKGGAFMJ@03000000341a0000010400000000000@ 000000014009e320     glfw3:init.obj
 0002:0000d420       ??_C@_0BDM@IEGKPAEF@03000000222c0000022300000000000@ 000000014009e420     glfw3:init.obj
 0002:0000d560       ??_C@_0BDN@OKDOLNP@03000000222c0000002300000000000@ 000000014009e560     glfw3:init.obj
 0002:0000d6a0       ??_C@_0BAF@EBPNLKIJ@0300000032150000000300000000000@ 000000014009e6a0     glfw3:init.obj
 0002:0000d7b0       ??_C@_0BAA@HNPCOCLG@030000000d0f0000110000000000000@ 000000014009e7b0     glfw3:init.obj
 0002:0000d8b0       ??_C@_0BCG@KCOGNPFA@030000000d0f00008b0000000000000@ 000000014009e8b0     glfw3:init.obj
 0002:0000d9e0       ??_C@_0BCG@NPOEDNBE@030000000d0f00008a0000000000000@ 000000014009e9e0     glfw3:init.obj
 0002:0000db10       ??_C@_0BCG@OOIEPIIL@030000000d0f00006b0000000000000@ 000000014009eb10     glfw3:init.obj
 0002:0000dc40       ??_C@_0BCG@JDIGBKMP@030000000d0f00006a0000000000000@ 000000014009ec40     glfw3:init.obj
 0002:0000dd70       ??_C@_0BAE@KADGKHDN@030000000d0f0000700000000000000@ 000000014009ed70     glfw3:init.obj
 0002:0000de80       ??_C@_0BAK@PBDFELHA@030000000d0f0000220000000000000@ 000000014009ee80     glfw3:init.obj
 0002:0000df90       ??_C@_0BCH@HONEFEFO@030000000d0f00005c0000000000000@ 000000014009ef90     glfw3:init.obj
 0002:0000e0c0       ??_C@_0BCH@KGOLOPPA@030000000d0f00005b0000000000000@ 000000014009f0c0     glfw3:init.obj
 0002:0000e1f0       ??_C@_0LO@EDCIDLIK@0300000079000000110000000000000@ 000000014009f1f0     glfw3:init.obj
 0002:0000e2b0       ??_C@_0KB@CIFFNJNE@0300000000f00000030000000000000@ 000000014009f2b0     glfw3:init.obj
 0002:0000e360       ??_C@_0KI@EPMKBGDM@0300000000f00000f10000000000000@ 000000014009f360     glfw3:init.obj
 0002:0000e410       ??_C@_0BCO@NGLDHPOC@030000006b140000010d00000000000@ 000000014009f410     glfw3:init.obj
 0002:0000e540       ??_C@_0BCP@MOKGLCJ@030000006f0e00001e0100000000000@ 000000014009f540     glfw3:init.obj
 0002:0000e670       ??_C@_0BBP@LNLJDDIF@030000004f04000003d000000000000@ 000000014009f670     glfw3:init.obj
 0002:0000e790       ??_C@_0BBI@BAKFEMPI@03000000a30600001af500000000000@ 000000014009f790     glfw3:init.obj
 0002:0000e8b0       ??_C@_0BCP@HPMIMEAF@03000000a306000023f600000000000@ 000000014009f8b0     glfw3:init.obj
 0002:0000e9e0       ??_C@_0BCB@EEEEOCLB@03000000300f0000120100000000000@ 000000014009f9e0     glfw3:init.obj
 0002:0000eb10       ??_C@_0BCI@FCHAMOBL@03000000a30600000cff00000000000@ 000000014009fb10     glfw3:init.obj
 0002:0000ec40       ??_C@_0BCB@GBOFCHI@03000000a30600000c0400000000000@ 000000014009fc40     glfw3:init.obj
 0002:0000ed70       ??_C@_0BCB@OOEANFEH@03000000300f0000100100000000000@ 000000014009fd70     glfw3:init.obj
 0002:0000eea0       ??_C@_0BCA@LOJNHICN@03000000a30600000b0400000000000@ 000000014009fea0     glfw3:init.obj
 0002:0000efc0       ??_C@_0BCG@LIMAPBKF@03000000a30600000b0400000001000@ 000000014009ffc0     glfw3:init.obj
 0002:0000f0f0       ??_C@_0BBN@JLAHEEFD@03000000300f0000110100000000000@ 00000001400a00f0     glfw3:init.obj
 0002:0000f210       ??_C@_0LF@DNFJHMLL@0300000000050000289b00000000000@ 00000001400a0210     glfw3:init.obj
 0002:0000f2d0       ??_C@_0LF@CJKOEMML@030000009b280000050000000000000@ 00000001400a02d0     glfw3:init.obj
 0002:0000f390       ??_C@_0BBF@IGGJOAJN@03000000341a0000020800000000000@ 00000001400a0390     glfw3:init.obj
 0002:0000f4b0       ??_C@_0BCH@KBLGLPFO@030000008f0e0000080000000000000@ 00000001400a04b0     glfw3:init.obj
 0002:0000f5e0       ??_C@_0PI@MHCFEKFM@03000000ff110000313300000000000@ 00000001400a05e0     glfw3:init.obj
 0002:0000f6e0       ??_C@_0BBB@HMBGBDKD@03000000fa190000070600000000000@ 00000001400a06e0     glfw3:init.obj
 0002:0000f800       ??_C@_0BBO@FCIHICKG@03000000b5070000120300000000000@ 00000001400a0800     glfw3:init.obj
 0002:0000f920       ??_C@_0BCF@HOCGGOLH@030000004f04000015b300000000000@ 00000001400a0920     glfw3:init.obj
 0002:0000fa50       ??_C@_0BDG@FAKOKHMO@030000004f04000000b300000000000@ 00000001400a0a50     glfw3:init.obj
 0002:0000fb90       ??_C@_0BCO@GFHGFBHD@030000004f04000004b300000000000@ 00000001400a0b90     glfw3:init.obj
 0002:0000fcc0       ??_C@_0BCP@ONIMJMJ@0300000066660000048800000000000@ 00000001400a0cc0     glfw3:init.obj
 0002:0000fdf0       ??_C@_0BBI@IMFOKND@03000000d9040000020000000000000@ 00000001400a0df0     glfw3:init.obj
 0002:0000ff10       ??_C@_0BBM@HCDMAOKG@0300000038070000665200000000000@ 00000001400a0f10     glfw3:init.obj
 0002:00010030       ??_C@_0BCG@JCENNNEN@0300000063250000230500000000000@ 00000001400a1030     glfw3:init.obj
 0002:00010160       ??_C@_0OH@IPHKKKC@03000000790000001b1800000000000@ 00000001400a1160     glfw3:init.obj
 0002:00010250       ??_C@_0BCC@FCCEALDM@03000000450c0000204300000000000@ 00000001400a1250     glfw3:init.obj
 0002:00010380       ??_C@_0BCN@JLGOFCN@0300000017270000443100000000000@ 00000001400a1380     glfw3:init.obj
 0002:000104b0       ??_C@_0BCE@MNGEPDHI@03000000786901006e7000000000000@ 00000001400a14b0     glfw3:init.obj
 0002:000105e0       ??_C@_0BBO@KEHJJI@0300000020380000090000000001000@ 00000001400a15e0     glfw3:init.obj
 0002:00010700       ??_C@_0BBO@FFLNCONJ@0300000002200000009000000100000@ 00000001400a1700     glfw3:init.obj
 0002:00010820       ??_C@_0KM@JJPDJFIO@0300000010280000090000000000000@ 00000001400a1820     glfw3:init.obj
 0002:000108d0       ??_C@_0LL@DGCKBEJD@03000000a0050000323200000801000@ 00000001400a18d0     glfw3:init.obj
 0002:00010990       ??_C@_0BBI@LFALHIDI@030000008305000031b000000000000@ 00000001400a1990     glfw3:init.obj
 0002:00010ab0       ??_C@_0PI@PKAABFLP@0300000026090000888800008802000@ 00000001400a1ab0     glfw3:init.obj
 0002:00010bb0       ??_C@_0BCN@GGIJABAL@03000000a306000022f600000103000@ 00000001400a1bb0     glfw3:init.obj
 0002:00010ce0       ??_C@_0BBK@IOGLJNCM@0300000079000000060000000000000@ 00000001400a1ce0     glfw3:init.obj
 0002:00010e00       ??_C@_0BCP@BOKNKFAN@03000000ad1b000001f900000000000@ 00000001400a1e00     glfw3:init.obj
 0002:00010f30       ??_C@_0BBM@FABKDNIJ@0500000047532047616d65706164000@ 00000001400a1f30     glfw3:init.obj
 0002:00011050       ??_C@_0BBI@HFDFPBLC@030000000d0f00005f0000000001000@ 00000001400a2050     glfw3:init.obj
 0002:00011170       ??_C@_0BBI@EIMFEPI@030000000d0f00005e0000000001000@ 00000001400a2170     glfw3:init.obj
 0002:00011290       ??_C@_0BDD@JHJMHIEF@030000000d0f00005f0000000000000@ 00000001400a2290     glfw3:init.obj
 0002:000113d0       ??_C@_0BDD@IGLAPCDD@030000000d0f00005e0000000000000@ 00000001400a23d0     glfw3:init.obj
 0002:00011510       ??_C@_0BCE@FGGGEOAO@030000000d0f00004d0000000000000@ 00000001400a2510     glfw3:init.obj
 0002:00011640       ??_C@_0BCF@DJJAGGNO@030000000d0f00006e0000000001000@ 00000001400a2640     glfw3:init.obj
 0002:00011770       ??_C@_0BCF@FBGOCDJH@030000000d0f0000660000000001000@ 00000001400a2770     glfw3:init.obj
 0002:000118a0       ??_C@_0BCI@LLHBIGCM@030000000d0f0000660000000000000@ 00000001400a28a0     glfw3:init.obj
 0002:000119d0       ??_C@_0MA@POCHILFA@030000008f0e0000133000001101000@ 00000001400a29d0     glfw3:init.obj
 0002:00011a90       ??_C@_0LO@FPEHDPEM@0300000083050000602000000001000@ 00000001400a2a90     glfw3:init.obj
 0002:00011b50       ??_C@_0LB@OEDBDJLN@0300000083050000602000000000000@ 00000001400a2b50     glfw3:init.obj
 0002:00011c10       ??_C@_0BCA@NIBPGNBN@030000006d04000016c200000002000@ 00000001400a2c10     glfw3:init.obj
 0002:00011d30       ??_C@_0BCA@OGANNCCH@030000006d04000016c200000003000@ 00000001400a2d30     glfw3:init.obj
 0002:00011e50       ??_C@_0BCA@MHMEHDFP@030000006d04000016c200001404000@ 00000001400a2e50     glfw3:init.obj
 0002:00011f70       ??_C@_0BCK@NFPNBBGL@030000006d04000016c200000000000@ 00000001400a2f70     glfw3:init.obj
 0002:000120a0       ??_C@_0BCK@BJFGIGJE@030000006d04000018c200000000000@ 00000001400a30a0     glfw3:init.obj
 0002:000121d0       ??_C@_0BCO@PCHLJLMH@030000006d0400001fc200000000000@ 00000001400a31d0     glfw3:init.obj
 0002:00012300       ??_C@_0BCO@BCABGFMI@030000006d04000019c200000000000@ 00000001400a3300     glfw3:init.obj
 0002:00012430       ??_C@_0BDB@KMAKBCLM@0300000038070000503200000001000@ 00000001400a3430     glfw3:init.obj
 0002:00012570       ??_C@_0BDB@JKIBJCFK@0300000038070000508200000001000@ 00000001400a3570     glfw3:init.obj
 0002:000126b0       ??_C@_0OP@OEFNKJH@0300000079000000441800000001000@ 00000001400a36b0     glfw3:init.obj
 0002:000127a0       ??_C@_0BBE@MLLGJBKJ@0300000025090000e80300000000000@ 00000001400a37a0     glfw3:init.obj
 0002:000128c0       ??_C@_0BEG@EJMIOODK@0300000079000000001800000000000@ 00000001400a38c0     glfw3:init.obj
 0002:00012a10       ??_C@_0ND@PBMAPEC@03000000d8140000cecf00000000000@ 00000001400a3a10     glfw3:init.obj
 0002:00012af0       ??_C@_0LK@EONCFH@030000001008000001e500000601000@ 00000001400a3af0     glfw3:init.obj
 0002:00012bb0       ??_C@_0BDE@PILKGMJP@030000007e050000092000000000000@ 00000001400a3bb0     glfw3:init.obj
 0002:00012cf0       ??_C@_0BBK@MKPNHENO@030000008f0e0000030000000000000@ 00000001400a3cf0     glfw3:init.obj
 0002:00012e10       ??_C@_0BCA@CNBGJAOB@030000004c050000680200000001000@ 00000001400a3e10     glfw3:init.obj
 0002:00012f30       ??_C@_0BCA@BDAECPNL@030000004c050000680200000000000@ 00000001400a3f30     glfw3:init.obj
 0002:00013050       ??_C@_0BCE@PNKFACIK@030000004c050000a00b00000001000@ 00000001400a4050     glfw3:init.obj
 0002:00013180       ??_C@_0BCE@OLEBMIBC@030000004c050000cc0900000001000@ 00000001400a4180     glfw3:init.obj
 0002:000132b0       ??_C@_0BCE@JNFEBCFK@030000004c050000c40500000000000@ 00000001400a42b0     glfw3:init.obj
 0002:000133e0       ??_C@_0BCE@HFFFNOMK@030000004c050000c40500000001000@ 00000001400a43e0     glfw3:init.obj
 0002:00013510       ??_C@_0BBN@BGOOEGFK@030000008916000000fd00000000000@ 00000001400a4510     glfw3:init.obj
 0002:00013630       ??_C@_0BCB@NOBGJFAM@0300000032150000001000000001000@ 00000001400a4630     glfw3:init.obj
 0002:00013760       ??_C@_0BBN@MMPLBLJD@0300000032150000030a00000000000@ 00000001400a4760     glfw3:init.obj
 0002:00013880       ??_C@_0KJ@LPEGFINE@0300000079000000110000000000000@ 00000001400a4880     glfw3:init.obj
 0002:00013930       ??_C@_0LP@NHDHAKJG@0300000079000000110000000601000@ 00000001400a4930     glfw3:init.obj
 0002:000139f0       ??_C@_0BCP@JCIBHFNJ@030000006b140000010d00000001000@ 00000001400a49f0     glfw3:init.obj
 0002:00013b20       ??_C@_0NL@BDDOKBNO@03000000811700007e0500000000000@ 00000001400a4b20     glfw3:init.obj
 0002:00013c00       ??_C@_0KN@HDHEFAON@03000000b40400000a0100000000000@ 00000001400a4c00     glfw3:init.obj
 0002:00013cb0       ??_C@_0JN@HKCNMPIP@030000003512000021ab00000000000@ 00000001400a4cb0     glfw3:init.obj
 0002:00013d50       ??_C@_0BCK@ECOEHMCF@030000004c050000cc0900000000000@ 00000001400a4d50     glfw3:init.obj
 0002:00013e80       ??_C@_0BDI@DKEINFDE@030000004c050000a00b00000000000@ 00000001400a4e80     glfw3:init.obj
 0002:00013fc0       ??_C@_0BBL@DAAIFGAP@030000005e0400008e0200000100000@ 00000001400a4fc0     glfw3:init.obj
 0002:000140e0       ??_C@_0PE@FLCANBLK@0300000011010000201400000000000@ 00000001400a50e0     glfw3:init.obj
 0002:000141e0       ??_C@_0PG@OBBCDHKC@0300000011010000201400000100000@ 00000001400a51e0     glfw3:init.obj
 0002:000142e0       ??_C@_0PG@GJECLCNG@0300000038100000201400000100000@ 00000001400a52e0     glfw3:init.obj
 0002:000143e0       ??_C@_0PK@LDNIFGGP@0300000011010000171400000000000@ 00000001400a53e0     glfw3:init.obj
 0002:000144e0       ??_C@_0PK@JJMJGHLF@0300000011010000171400002001000@ 00000001400a54e0     glfw3:init.obj
 0002:000145e0       ??_C@_0BCI@EFPMNDOG@030000004f04000015b300000000000@ 00000001400a55e0     glfw3:init.obj
 0002:00014710       ??_C@_0BCI@CPBKHDAC@030000004f04000000b300000000000@ 00000001400a5710     glfw3:init.obj
 0002:00014840       ??_C@_0LP@BCPNPHOA@03000000bd12000015d000000001000@ 00000001400a5840     glfw3:init.obj
 0002:00014900       ??_C@_0KG@OGEBLKCF@03000000bd12000015d000000000000@ 00000001400a5900     glfw3:init.obj
 0002:000149b0       ??_C@_0BCC@POEBDKJL@0300000010080000010000000000000@ 00000001400a59b0     glfw3:init.obj
 0002:00014ae0       ??_C@_0MI@LOAEOOPA@050000005769696d6f7465202830300@ 00000001400a5ae0     glfw3:init.obj
 0002:00014bb0       ??_C@_0BCN@HMAHPPDL@050000005769696d6f7465202831380@ 00000001400a5bb0     glfw3:init.obj
 0002:00014ce0       ??_C@_0BBP@HENHOIBN@030000005e0400008e0200000000000@ 00000001400a5ce0     glfw3:init.obj
 0002:00014e00       ??_C@_0BCJ@HMCMMNGL@03000000c6240000045d00000000000@ 00000001400a5e00     glfw3:init.obj
 0002:00014f30       ??_C@_0BCJ@JENDBJBA@030000005e040000e30200000000000@ 00000001400a5f30     glfw3:init.obj
 0002:00015060       ??_C@_0BCJ@GFLPLBLI@030000005e040000d10200000000000@ 00000001400a6060     glfw3:init.obj
 0002:00015190       ??_C@_0BCJ@GBONJMEB@030000005e040000dd0200000000000@ 00000001400a6190     glfw3:init.obj
 0002:000152c0       ??_C@_0BCM@KABHDKAM@030000005e040000e00200000000000@ 00000001400a62c0     glfw3:init.obj
 0002:000153f0       ??_C@_0BDA@FHCCADPL@030000005e040000fd0200000309000@ 00000001400a63f0     glfw3:init.obj
 0002:00015520       ??_C@_0BCI@FEEBJOHL@030000005e040000ea0200000000000@ 00000001400a6520     glfw3:init.obj
 0002:00015650       ??_C@_0BCM@CAPIHIPI@030000005e040000e00200000309000@ 00000001400a6650     glfw3:init.obj
 0002:00015780       ??_C@_0BCO@DEGLBPGO@0300000017270000443100002901000@ 00000001400a6780     glfw3:init.obj
 0002:000158b0       ??_C@_0BCJ@JBAGNBFA@03000000120c0000100e00000001000@ 00000001400a68b0     glfw3:init.obj
 0002:000159e0       ??_C@_0BBL@KFILJCLO@0500000020380000090000000001000@ 00000001400a69e0     glfw3:init.obj
 0002:00015b00       ??_C@_0BBL@KFMAAPPM@0300000002200000009000001101000@ 00000001400a6b00     glfw3:init.obj
 0002:00015c20       ??_C@_0BCE@BGKGHCAB@05000000c82d0000203800000001000@ 00000001400a6c20     glfw3:init.obj
 0002:00015d50       ??_C@_0BCM@LKOLHFDG@03000000c82d0000019000001101000@ 00000001400a6d50     glfw3:init.obj
 0002:00015e80       ??_C@_0KA@KADDKLCN@05000000c82d0000302800000001000@ 00000001400a6e80     glfw3:init.obj
 0002:00015f20       ??_C@_0KA@FLFCPCAP@0500000010280000090000000001000@ 00000001400a6f20     glfw3:init.obj
 0002:00015fc0       ??_C@_0LI@EODKGEOE@05000000a0050000323200000801000@ 00000001400a6fc0     glfw3:init.obj
 0002:00016080       ??_C@_0JP@IFPNDHMB@05000000a0050000323200000100000@ 00000001400a7080     glfw3:init.obj
 0002:00016120       ??_C@_0BDI@OFDDGNHK@030000006f0e0000390100002006000@ 00000001400a7120     glfw3:init.obj
 0002:00016260       ??_C@_0OM@IHEDDKBH@0300000010000000820000001101000@ 00000001400a7260     glfw3:init.obj
 0002:00016350       ??_C@_0BBN@HMIJKEEJ@05000000050b0000004500003100000@ 00000001400a7350     glfw3:init.obj
 0002:00016470       ??_C@_0BBN@HPLMECEE@0300000066660000670600000001000@ 00000001400a7470     glfw3:init.obj
 0002:00016590       ??_C@_0BBF@EPOIEDBG@03000000e8200000605800000101000@ 00000001400a7590     glfw3:init.obj
 0002:000166b0       ??_C@_0PF@JMKDDKBC@0300000026090000888800000001000@ 00000001400a76b0     glfw3:init.obj
 0002:000167b0       ??_C@_0BCK@EAEGJFKI@03000000a306000022f600001101000@ 00000001400a77b0     glfw3:init.obj
 0002:000168e0       ??_C@_0KG@NLINLDLG@03000000b40400000a0100000001000@ 00000001400a78e0     glfw3:init.obj
 0002:00016990       ??_C@_0BCN@PNMODGGJ@0300000079000000060000001001000@ 00000001400a7990     glfw3:init.obj
 0002:00016ac0       ??_C@_0BCL@BCOILFMC@030000006f0e0000300100000101000@ 00000001400a7ac0     glfw3:init.obj
 0002:00016bf0       ??_C@_0OJ@EIDEAACM@03000000341a000005f700001001000@ 00000001400a7bf0     glfw3:init.obj
 0002:00016ce0       ??_C@_0BBJ@MDDMHFAO@0500000047532047616d65706164000@ 00000001400a7ce0     glfw3:init.obj
 0002:00016e00       ??_C@_0BCL@INCIKJEN@030000006f0e0000010400000001000@ 00000001400a7e00     glfw3:init.obj
 0002:00016f30       ??_C@_0BCB@EFCKBGDL@030000006f0e0000130400000001000@ 00000001400a7f30     glfw3:init.obj
 0002:00017060       ??_C@_0BCC@NDPGPOIA@030000006f0e00001f0100000001000@ 00000001400a8060     glfw3:init.obj
 0002:00017190       ??_C@_0BDE@HMLCIHHK@03000000f0250000c18300001001000@ 00000001400a8190     glfw3:init.obj
 0002:000172d0       ??_C@_0MA@OBAHHDGF@0300000028040000014000000001000@ 00000001400a82d0     glfw3:init.obj
 0002:00017390       ??_C@_0BDE@EOILIDOK@030000008f0e0000061000000001000@ 00000001400a8390     glfw3:init.obj
 0002:000174d0       ??_C@_0BCE@FMFPKAKB@030000008f0e0000120000001001000@ 00000001400a84d0     glfw3:init.obj
 0002:00017600       ??_C@_0BCE@FNNPEDPI@030000008f0e0000030000001001000@ 00000001400a8600     glfw3:init.obj
 0002:00017730       ??_C@_0BBE@JGGOFFHI@0500000047532067616d65706164000@ 00000001400a8730     glfw3:init.obj
 0002:00017850       ??_C@_0BCM@KAENMMC@06000000adde0000efbe00000201000@ 00000001400a8850     glfw3:init.obj
 0002:00017980       ??_C@_0MO@OPMCNAC@03000000d8140000086200001101000@ 00000001400a8980     glfw3:init.obj
 0002:00017a50       ??_C@_0BBJ@HOAKNPFO@03000000c9110000f05500001101000@ 00000001400a8a50     glfw3:init.obj
 0002:00017b70       ??_C@_0MH@LCFKBGGK@030000000d0f00000d0000000001000@ 00000001400a8b70     glfw3:init.obj
 0002:00017c40       ??_C@_0OO@GJNLNJJL@030000000d0f0000100000001101000@ 00000001400a8c40     glfw3:init.obj
 0002:00017d30       ??_C@_0BDC@OFOLAELJ@030000000d0f00006a0000001101000@ 00000001400a8d30     glfw3:init.obj
 0002:00017e70       ??_C@_0BDC@NMPFEEAB@030000000d0f00006b0000001101000@ 00000001400a8e70     glfw3:init.obj
 0002:00017fb0       ??_C@_0PA@BDIKJOAM@030000000d0f0000220000001101000@ 00000001400a8fb0     glfw3:init.obj
 0002:000180a0       ??_C@_0BBF@OFLEAFEJ@030000000d0f00005f0000001101000@ 00000001400a90a0     glfw3:init.obj
 0002:000181c0       ??_C@_0BBF@KJLMBACJ@030000000d0f00005e0000001101000@ 00000001400a91c0     glfw3:init.obj
 0002:000182e0       ??_C@_0BCE@MMGBFIJB@03000000ad1b000001f500003305000@ 00000001400a92e0     glfw3:init.obj
 0002:00018410       ??_C@_0BCC@NBBPDEHC@030000000d0f00006e0000001101000@ 00000001400a9410     glfw3:init.obj
 0002:00018540       ??_C@_0BCC@GIAOEEEO@030000000d0f0000660000001101000@ 00000001400a9540     glfw3:init.obj
 0002:00018670       ??_C@_0BBM@KHPICJGK@030000000d0f0000670000000101000@ 00000001400a9670     glfw3:init.obj
 0002:00018790       ??_C@_0LJ@IMKHDMOP@030000008f0e0000133000001001000@ 00000001400a9790     glfw3:init.obj
 0002:00018850       ??_C@_0LL@NJNOLIBF@0300000083050000602000001001000@ 00000001400a9850     glfw3:init.obj
 0002:00018910       ??_C@_0BBD@NBNPKEPL@050000006964726f69643a636f6e000@ 00000001400a9910     glfw3:init.obj
 0002:00018a30       ??_C@_0BAP@DAJEOIJO@03000000b5070000150300001001000@ 00000001400a9a30     glfw3:init.obj
 0002:00018b40       ??_C@_0LH@ONKJILKM@03000000fd050000003000000001000@ 00000001400a9b40     glfw3:init.obj
 0002:00018c00       ??_C@_0BCP@OFKGICJK@030000006e050000032000001001000@ 00000001400a9c00     glfw3:init.obj
 0002:00018d30       ??_C@_0BCJ@LBBLNPD@03000000300f0000100100001001000@ 00000001400a9d30     glfw3:init.obj
 0002:00018e60       ??_C@_0BAP@LBFKBICA@03000000ba220000201000000101000@ 00000001400a9e60     glfw3:init.obj
 0002:00018f70       ??_C@_0BCC@DEAAENNG@030000006f0e0000010300000002000@ 00000001400a9f70     glfw3:init.obj
 0002:000190a0       ??_C@_0BCG@GADBECOE@030000006d04000019c200001001000@ 00000001400aa0a0     glfw3:init.obj
 0002:000191d0       ??_C@_0BBN@FFFPOOGM@030000006d04000016c200001101000@ 00000001400aa1d0     glfw3:init.obj
 0002:000192f0       ??_C@_0BBN@CJJHAPIL@030000006d04000016c200001001000@ 00000001400aa2f0     glfw3:init.obj
 0002:00019410       ??_C@_0BCP@OCIJELBG@030000006d0400001dc200001440000@ 00000001400aa410     glfw3:init.obj
 0002:00019540       ??_C@_0BCP@FOHDAEKD@030000006d0400001ec200002020000@ 00000001400aa540     glfw3:init.obj
 0002:00019670       ??_C@_0BCH@FCGDKOAJ@030000006d04000019c200001101000@ 00000001400aa670     glfw3:init.obj
 0002:000197a0       ??_C@_0BCP@OGBHLJIO@030000006d0400001fc200000503000@ 00000001400aa7a0     glfw3:init.obj
 0002:000198d0       ??_C@_0MP@MJDHGAFA@030000006d04000015c200001001000@ 00000001400aa8d0     glfw3:init.obj
 0002:000199a0       ??_C@_0BBN@CINIEJLK@030000006d04000018c200001001000@ 00000001400aa9a0     glfw3:init.obj
 0002:00019ac0       ??_C@_0BBJ@HFDIMAPN@030000006d04000011c200001001000@ 00000001400aaac0     glfw3:init.obj
 0002:00019be0       ??_C@_0BCG@OKDHGBAK@0500000038070000665200002501000@ 00000001400aabe0     glfw3:init.obj
 0002:00019d10       ??_C@_0BCO@CIKJBCCE@0300000038070000503200001101000@ 00000001400aad10     glfw3:init.obj
 0002:00019e40       ??_C@_0BCO@LFBKGNJI@0300000038070000508200001101000@ 00000001400aae40     glfw3:init.obj
 0002:00019f70       ??_C@_0OF@MLANCIHH@03000000ad1b00002ef000009004000@ 00000001400aaf70     glfw3:init.obj
 0002:0001a060       ??_C@_0BAP@JMGBFLKA@0300000038070000803400001101000@ 00000001400ab060     glfw3:init.obj
 0002:0001a170       ??_C@_0BAP@OAPLGGBD@0300000038070000808400001101000@ 00000001400ab170     glfw3:init.obj
 0002:0001a280       ??_C@_0BBD@EGNLFGDF@0300000038070000843300001101000@ 00000001400ab280     glfw3:init.obj
 0002:0001a3a0       ??_C@_0BBD@BKFDGCG@0300000038070000848300001101000@ 00000001400ab3a0     glfw3:init.obj
 0002:0001a4c0       ??_C@_0BDD@OGBJHHE@0300000038070000164700001004000@ 00000001400ab4c0     glfw3:init.obj
 0002:0001a600       ??_C@_0BBP@MGAPJMFF@0300000038070000384700009004000@ 00000001400ab600     glfw3:init.obj
 0002:0001a720       ??_C@_0BCN@BFDCBFPE@03000000ad1b000016f000009004000@ 00000001400ab720     glfw3:init.obj
 0002:0001a850       ??_C@_0BBF@LLNMODEL@0300000038070000188800001001000@ 00000001400ab850     glfw3:init.obj
 0002:0001a970       ??_C@_0BCC@ELNLHOMK@0300000038070000388800001001000@ 00000001400ab970     glfw3:init.obj
 0002:0001aaa0       ??_C@_0OM@LMFECDOF@0300000079000000441800001001000@ 00000001400abaa0     glfw3:init.obj
 0002:0001ab90       ??_C@_0LP@CBGMIEGG@0300000078000000060000001001000@ 00000001400abb90     glfw3:init.obj
 0002:0001ac50       ??_C@_0BCI@DMOPMJOI@030000005e0400008e0200000401000@ 00000001400abc50     glfw3:init.obj
 0002:0001ad80       ??_C@_0BCI@LFOBONOH@030000005e0400008e0200006223000@ 00000001400abd80     glfw3:init.obj
 0002:0001aeb0       ??_C@_0BCI@EOJPHONB@030000005e040000d10200000101000@ 00000001400abeb0     glfw3:init.obj
 0002:0001afe0       ??_C@_0BCL@NEEKFJEM@030000005e040000d10200000302000@ 00000001400abfe0     glfw3:init.obj
 0002:0001b110       ??_C@_0BCC@OCAPCLFC@030000005e040000850200000001000@ 00000001400ac110     glfw3:init.obj
 0002:0001b240       ??_C@_0BCC@JKBJFGJE@030000005e040000890200002101000@ 00000001400ac240     glfw3:init.obj
 0002:0001b370       ??_C@_0BAH@IALKLBBL@05000000d6200000ad0d00000100000@ 00000001400ac370     glfw3:init.obj
 0002:0001b480       ??_C@_0LH@NGGJMINF@030000001008000001e500001001000@ 00000001400ac480     glfw3:init.obj
 0002:0001b540       ??_C@_0BDB@EFGMHJKD@050000007e050000092000000100000@ 00000001400ac540     glfw3:init.obj
 0002:0001b680       ??_C@_0BDB@PGNJIFCM@050000007e050000300300000100000@ 00000001400ac680     glfw3:init.obj
 0002:0001b7c0       ??_C@_0BCD@JEFDAAGB@0500000001000000010000000300000@ 00000001400ac7c0     glfw3:init.obj
 0002:0001b8f0       ??_C@_0BDD@FPBHPBO@030000000d050000030800001001000@ 00000001400ac8f0     glfw3:init.obj
 0002:0001ba30       ??_C@_0BBK@FGBLBHDL@0300000055090000107200001101000@ 00000001400aca30     glfw3:init.obj
 0002:0001bb50       ??_C@_0BBM@ELODDBII@0300000045130000083000001001000@ 00000001400acb50     glfw3:init.obj
 0002:0001bc70       ??_C@_0BBD@CJIGNCA@030000005e040000020200000001000@ 00000001400acc70     glfw3:init.obj
 0002:0001bd90       ??_C@_0BAO@KKPFKFNM@0500000036280000010000000201000@ 00000001400acd90     glfw3:init.obj
 0002:0001bea0       ??_C@_0BAO@IFLNAJBP@0500000036280000010000000301000@ 00000001400acea0     glfw3:init.obj
 0002:0001bfb0       ??_C@_0BBL@GHEJCAFE@03000000ff110000313300001001000@ 00000001400acfb0     glfw3:init.obj
 0002:0001c0d0       ??_C@_0BCE@ILPMOMFJ@030000006f0e0000640100000101000@ 00000001400ad0d0     glfw3:init.obj
 0002:0001c200       ??_C@_0LH@BHNKFLDL@03000000ff110000413300001001000@ 00000001400ad200     glfw3:init.obj
 0002:0001c2c0       ??_C@_0BBN@EDFEDGHD@030000004c050000680200001001000@ 00000001400ad2c0     glfw3:init.obj
 0002:0001c3e0       ??_C@_0BBN@GGDBBCBA@050000004c050000680200000081000@ 00000001400ad3e0     glfw3:init.obj
 0002:0001c500       ??_C@_0BCB@HCCBPGP@03000000341a0000360800001101000@ 00000001400ad500     glfw3:init.obj
 0002:0001c630       ??_C@_0BBN@EFHFNOGJ@030000004c050000680200001181000@ 00000001400ad630     glfw3:init.obj
 0002:0001c750       ??_C@_0BBP@BDFKEALO@050000004c050000680200000001000@ 00000001400ad750     glfw3:init.obj
 0002:0001c870       ??_C@_0BBN@DJLNDPIO@030000004c050000680200001081000@ 00000001400ad870     glfw3:init.obj
 0002:0001c990       ??_C@_0BBN@DPJMNHJE@030000004c050000680200001101000@ 00000001400ad990     glfw3:init.obj
 0002:0001cab0       ??_C@_0BCJ@MOBPPOOO@060000004c050000680200000001000@ 00000001400adab0     glfw3:init.obj
 0002:0001cbe0       ??_C@_0BCJ@BFBFIAMH@05000000504c415953544154494f4e0@ 00000001400adbe0     glfw3:init.obj
 0002:0001cd10       ??_C@_0BCB@JCCNBKOA@050000004c050000c40500000001000@ 00000001400add10     glfw3:init.obj
 0002:0001ce40       ??_C@_0BCB@CMKDLHCN@030000004c050000a00b00001101000@ 00000001400ade40     glfw3:init.obj
 0002:0001cf70       ??_C@_0BCB@JLKBMJIB@050000004c050000cc0900000081000@ 00000001400adf70     glfw3:init.obj
 0002:0001d0a0       ??_C@_0BCB@HHIMPJIH@050000004c050000c40500000081000@ 00000001400ae0a0     glfw3:init.obj
 0002:0001d1d0       ??_C@_0BCB@MPHMICMG@030000004c050000c40500001181000@ 00000001400ae1d0     glfw3:init.obj
 0002:0001d300       ??_C@_0BCB@HOAACKOG@050000004c050000cc0900000001000@ 00000001400ae300     glfw3:init.obj
 0002:0001d430       ??_C@_0BCB@MGPAFBKH@030000004c050000cc0900001101000@ 00000001400ae430     glfw3:init.obj
 0002:0001d560       ??_C@_0BCB@MJACFEEK@030000004c050000a00b00001181000@ 00000001400ae560     glfw3:init.obj
 0002:0001d690       ??_C@_0BCB@CDFBLCMA@030000004c050000cc0900001181000@ 00000001400ae690     glfw3:init.obj
 0002:0001d7c0       ??_C@_0BCB@CKNNGBKB@030000004c050000c40500001101000@ 00000001400ae7c0     glfw3:init.obj
 0002:0001d8f0       ??_C@_0PH@KBBCNIOJ@03000000300f0000121100001101000@ 00000001400ae8f0     glfw3:init.obj
 0002:0001d9f0       ??_C@_0KE@IGCCAIEM@030000009b280000030000000101000@ 00000001400ae9f0     glfw3:init.obj
 0002:0001daa0       ??_C@_0BCH@LGGFCPBM@030000008916000001fd00002401000@ 00000001400aeaa0     glfw3:init.obj
 0002:0001dbd0       ??_C@_0BCC@FGKMNKFE@030000008916000000fd00002401000@ 00000001400aebd0     glfw3:init.obj
 0002:0001dd00       ??_C@_0BBO@EDJENLCH@0300000032150000001000001101000@ 00000001400aed00     glfw3:init.obj
 0002:0001de20       ??_C@_0BCB@LLBDLKJJ@03000000c6240000045d00002501000@ 00000001400aee20     glfw3:init.obj
 0002:0001df50       ??_C@_0BBN@ENPINBAO@0300000032150000000900001101000@ 00000001400aef50     glfw3:init.obj
 0002:0001e070       ??_C@_0BBN@DIHFELEO@050000003215000000090000163a000@ 00000001400af070     glfw3:init.obj
 0002:0001e190       ??_C@_0BBO@CGCFIFNM@0300000032150000030a00000101000@ 00000001400af190     glfw3:init.obj
 0002:0001e2b0       ??_C@_0LM@MLHGLOBN@0300000079000000110000001001000@ 00000001400af2b0     glfw3:init.obj
 0002:0001e370       ??_C@_0JP@HAMMIOGK@0300000000f00000030000000001000@ 00000001400af370     glfw3:init.obj
 0002:0001e410       ??_C@_0KG@DPPFDBEG@0300000000f00000f10000000001000@ 00000001400af410     glfw3:init.obj
 0002:0001e4c0       ??_C@_0BCM@CHDEFE@030000006b140000010d00001101000@ 00000001400af4c0     glfw3:init.obj
 0002:0001e5f0       ??_C@_0BCN@CJELOFCC@030000006f0e00001e0100001101000@ 00000001400af5f0     glfw3:init.obj
 0002:0001e720       ??_C@_0BAK@MJMCJJPI@030000006f0e0000460100000101000@ 00000001400af720     glfw3:init.obj
 0002:0001e830       ??_C@_0BCN@KNLNJPBN@03000000a306000023f600001101000@ 00000001400af830     glfw3:init.obj
 0002:0001e960       ??_C@_0BCG@IKGKKENL@03000000a30600000cff00001001000@ 00000001400af960     glfw3:init.obj
 0002:0001ea90       ??_C@_0BCM@LGBONGPL@03000000a30600000c0400001101000@ 00000001400afa90     glfw3:init.obj
 0002:0001ebc0       ??_C@_0BAB@ECLGICHB@03000000a3060000090100000001000@ 00000001400afbc0     glfw3:init.obj
 0002:0001ecd0       ??_C@_0BCE@FHGCGPIB@03000000a30600000b0400000001000@ 00000001400afcd0     glfw3:init.obj
 0002:0001ee00       ??_C@_0BCL@MPGLFJGC@03000000a306000018f500001001000@ 00000001400afe00     glfw3:init.obj
 0002:0001ef30       ??_C@_0BCD@MGDEOILE@03000000c0160000870400001101000@ 00000001400aff30     glfw3:init.obj
 0002:0001f060       ??_C@_0BCN@PKJKBBEM@03000000f025000021c100001001000@ 00000001400b0060     glfw3:init.obj
 0002:0001f190       ??_C@_0BCL@GAPBJBMC@0300000025090000050000000001000@ 00000001400b0190     glfw3:init.obj
 0002:0001f2c0       ??_C@_0BDB@FLDCOIHG@030000005e0400008e0200007305000@ 00000001400b02c0     glfw3:init.obj
 0002:0001f400       ??_C@_0BDG@HMNPKELM@030000005e0400008e0200002020000@ 00000001400b0400     glfw3:init.obj
 0002:0001f540       ??_C@_0MP@JHHJFJJN@03000000de280000021100000100000@ 00000001400b0540     glfw3:init.obj
 0002:0001f610       ??_C@_0MP@FHHAFDCH@05000000de280000051100000100000@ 00000001400b0610     glfw3:init.obj
 0002:0001f6e0       ??_C@_0MP@KIEFCEND@03000000de280000011200000100000@ 00000001400b06e0     glfw3:init.obj
 0002:0001f7b0       ??_C@_0MP@JPEINMFL@05000000de280000021200000100000@ 00000001400b07b0     glfw3:init.obj
 0002:0001f880       ??_C@_0BCB@BDJGNCHB@03000000de280000fc1100000100000@ 00000001400b0880     glfw3:init.obj
 0002:0001f9b0       ??_C@_0MP@FPFJAMOP@03000000de280000421100000100000@ 00000001400b09b0     glfw3:init.obj
 0002:0001fa80       ??_C@_0BCG@HCILKDJN@03000000de280000ff1100000100000@ 00000001400b0a80     glfw3:init.obj
 0002:0001fbb0       ??_C@_0BBI@BOHGPDFB@0300000066660000048800000001000@ 00000001400b0bb0     glfw3:init.obj
 0002:0001fcd0       ??_C@_0BBP@JNCLFIIB@030000004f04000020b300001001000@ 00000001400b0cd0     glfw3:init.obj
 0002:0001fdf0       ??_C@_0BCD@OCJAOEJP@030000004f04000015b300001001000@ 00000001400b0df0     glfw3:init.obj
 0002:0001ff20       ??_C@_0BCJ@BMLEIPAJ@030000004f04000023b300000001000@ 00000001400b0f20     glfw3:init.obj
 0002:00020050       ??_C@_0BDE@BBKMEPF@030000004f04000000b300001001000@ 00000001400b1050     glfw3:init.obj
 0002:00020190       ??_C@_0BCK@FNPDAAAN@030000004f04000008d000000001000@ 00000001400b1190     glfw3:init.obj
 0002:000202c0       ??_C@_0BDI@JNKGOPKH@030000004f04000009d000000001000@ 00000001400b12c0     glfw3:init.obj
 0002:00020400       ??_C@_0LM@JBBKIHKB@03000000bd12000015d000001001000@ 00000001400b1400     glfw3:init.obj
 0002:000204c0       ??_C@_0MC@LLGGFHJA@03000000d814000007cd00001101000@ 00000001400b14c0     glfw3:init.obj
 0002:00020590       ??_C@_0BBN@GECLGOBK@0300000010080000010000001001000@ 00000001400b1590     glfw3:init.obj
 0002:000206b0       ??_C@_0BBE@LNDPKJOE@0300000010080000030000001001000@ 00000001400b16b0     glfw3:init.obj
 0002:000207d0       ??_C@_0IA@GKEJEKKE@0300000079000000110000000001000@ 00000001400b17d0     glfw3:init.obj
 0002:00020850       ??_C@_0BAP@FIHDOOAA@05000000ac050000323200000100000@ 00000001400b1850     glfw3:init.obj
 0002:00020960       ??_C@_0BCA@KDCHMLBI@030000005e0400008e0200001401000@ 00000001400b1960     glfw3:init.obj
 0002:00020a80       ??_C@_0BCA@IBILPEIB@030000005e0400008e0200001001000@ 00000001400b1a80     glfw3:init.obj
 0002:00020ba0       ??_C@_0BCF@GFBOBFNK@030000005e040000190700000001000@ 00000001400b1ba0     glfw3:init.obj
 0002:00020cd0       ??_C@_0BCF@HCNAOLEE@030000005e040000910200000701000@ 00000001400b1cd0     glfw3:init.obj
 0002:00020e00       ??_C@_0BCJ@FCBDJONF@030000005e040000a10200000701000@ 00000001400b1e00     glfw3:init.obj
 0002:00020f30       ??_C@_0BCF@HMAJMPIB@030000005e040000a10200000001000@ 00000001400b1f30     glfw3:init.obj
 0002:00021060       ??_C@_0BCJ@KDHNKOAJ@0000000058626f78203336302057690@ 00000001400b2060     glfw3:init.obj
 0002:00021190       ??_C@_0BDA@MJBCKDNM@0000000058626f782047616d6570610@ 00000001400b2190     glfw3:init.obj
 0002:000212c0       ??_C@_0BCN@MJMBNEGC@050000005e040000e00200000309000@ 00000001400b22c0     glfw3:init.obj
 0002:000213f0       ??_C@_0BDB@COLJAIGG@050000005e040000fd0200000309000@ 00000001400b23f0     glfw3:init.obj
 0002:00021530       ??_C@_0BCA@DEGBIFC@03000000450c0000204300001001000@ 00000001400b2530     glfw3:init.obj
 0002:00021650       ??_C@_0BCL@OCCALEC@0500000017270000443100002901000@ 00000001400b2650     glfw3:init.obj
 0002:00021780       ??_C@_0NH@JDHAOPDE@03000000c0160000e10500000101000@ 00000001400b2780     glfw3:init.obj
 0002:00021860       ??_C@_0BCG@HOFCBBCN@03000000120c0000100e00001101000@ 00000001400b2860     glfw3:init.obj
 0002:00021990       ??_C@_0BBA@GMEAIAKA@6463343631396565666437363432336@ 00000001400b2990     glfw3:init.obj
 0002:00021aa0       ??_C@_0BBD@EKDOFJJC@6136393165613533613066356161626@ 00000001400b2aa0     glfw3:init.obj
 0002:00021bc0       ??_C@_0BBD@JLOPFCFH@4e564944494120436f72706f7261746@ 00000001400b2bc0     glfw3:init.obj
 0002:00021ce0       ??_C@_0BBD@MDEBLIDN@3733643566633865356531373130383@ 00000001400b2ce0     glfw3:init.obj
 0002:00021e00       ??_C@_0BCG@EIEAMGGG@3564303130303332613031633035356@ 00000001400b2e00     glfw3:init.obj
 0002:00021f30       ??_C@_0NB@GCLNIPCM@05000000de280000051100000100000@ 00000001400b2f30     glfw3:init.obj
 0002:00022010       ??_C@_0BCG@IDKALIIN@5477696e20555342204a6f797374696@ 00000001400b3010     glfw3:init.obj
 0002:00022140       ??_C@_0BCG@PALCOHIL@3435613663336661353031633837613@ 00000001400b3140     glfw3:init.obj
 0002:00022270       ??_C@_0PG@CFHNEHNN@4d466947616d6570616401000000000@ 00000001400b3270     glfw3:init.obj
 0002:00022370       ??_C@_0KI@EKALFCGN@4d466947616d6570616402000000000@ 00000001400b3370     glfw3:init.obj
 0002:00022420       ??_C@_0MN@MECJDKLN@05000000de280000051100000100000@ 00000001400b3420     glfw3:init.obj
 0002:000224f0       ??_C@_0BBO@HLNJIBPP@78696e7075740100000000000000000@ 00000001400b34f0     glfw3:init.obj
 0002:00022610       ??_C@_0BBM@MJENJJEJ@78696e7075740200000000000000000@ 00000001400b3610     glfw3:init.obj
 0002:00022730       ??_C@_0BCD@BBICEOLK@78696e7075740300000000000000000@ 00000001400b3730     glfw3:init.obj
 0002:00022860       ??_C@_0BCD@CGKCHHKM@78696e7075740400000000000000000@ 00000001400b3860     glfw3:init.obj
 0002:00022990       ??_C@_0BCA@KPDCPHP@78696e7075740500000000000000000@ 00000001400b3990     glfw3:init.obj
 0002:00022ab0       ??_C@_0BBN@HKPLBABN@78696e7075740600000000000000000@ 00000001400b3ab0     glfw3:init.obj
 0002:00022bd0       ??_C@_0BBP@NMPDIJKG@78696e7075740800000000000000000@ 00000001400b3bd0     glfw3:init.obj
 0002:00022cf0       ??_C@_0CE@BEELAIPG@The?5GLFW?5library?5is?5not?5initial@ 00000001400b3cf0     glfw3:init.obj
 0002:00022d18       ??_C@_0BM@PKHPFLOM@There?5is?5no?5current?5context@ 00000001400b3d18     glfw3:init.obj
 0002:00022d38       ??_C@_0CE@KDBKFLEE@Invalid?5argument?5for?5enum?5param@ 00000001400b3d38     glfw3:init.obj
 0002:00022d60       ??_C@_0BM@BADCNPOM@Invalid?5value?5for?5parameter@ 00000001400b3d60     glfw3:init.obj
 0002:00022d80       ??_C@_0O@NALGGDJF@Out?5of?5memory@ 00000001400b3d80     glfw3:init.obj
 0002:00022d90       ??_C@_0CB@HAFFDHLH@The?5requested?5API?5is?5unavailabl@ 00000001400b3d90     glfw3:init.obj
 0002:00022db8       ??_C@_0CJ@KOFEFGNB@The?5requested?5API?5version?5is?5un@ 00000001400b3db8     glfw3:init.obj
 0002:00022de8       ??_C@_0CD@HJEBEGLD@A?5platform?9specific?5error?5occur@ 00000001400b3de8     glfw3:init.obj
 0002:00022e10       ??_C@_0CE@PCLEMLLO@The?5requested?5format?5is?5unavail@ 00000001400b3e10     glfw3:init.obj
 0002:00022e38       ??_C@_0CE@OJFJMLEI@The?5specified?5window?5has?5no?5con@ 00000001400b3e38     glfw3:init.obj
 0002:00022e60       ??_C@_0BK@PMMAHJAK@ERROR?3?5UNKNOWN?5GLFW?5ERROR@ 00000001400b3e60     glfw3:init.obj
 0002:00022e80       ??_C@_0BK@KJGCMOHN@Invalid?5window?5size?5?$CFix?$CFi@ 00000001400b3e80     glfw3:window.obj
 0002:00022ea0       ??_C@_0BL@IDFNAMEG@Invalid?5window?5hint?50x?$CF08X@ 00000001400b3ea0     glfw3:window.obj
 0002:00022ec0       __xmm@00000000000000010003600100030001 00000001400b3ec0     glfw3:window.obj
 0002:00022ed0       __xmm@00000001000000010000000100000001 00000001400b3ed0     glfw3:window.obj
 0002:00022ee0       __xmm@00000008000000080000000800000008 00000001400b3ee0     glfw3:window.obj
 0002:00022ef0       ??_C@_0CK@HLLADGKC@Invalid?5button?5in?5gamepad?5mappi@ 00000001400b3ef0     glfw3:input.obj
 0002:00022f20       ??_C@_0CI@DPNGBGFF@Invalid?5axis?5in?5gamepad?5mapping@ 00000001400b3f20     glfw3:input.obj
 0002:00022f48       ??_C@_08CBHCFJJK@platform@ 00000001400b3f48     glfw3:input.obj
 0002:00022f54       ??_C@_01MCMALHOG@a@        00000001400b3f54     glfw3:input.obj
 0002:00022f58       ??_C@_01OJONOECF@b@        00000001400b3f58     glfw3:input.obj
 0002:00022f5c       ??_C@_01FJMABOPO@x@        00000001400b3f5c     glfw3:input.obj
 0002:00022f60       ??_C@_01EANLCPLP@y@        00000001400b3f60     glfw3:input.obj
 0002:00022f64       ??_C@_04JFCNHLLM@back@     00000001400b3f64     glfw3:input.obj
 0002:00022f6c       ??_C@_05FAGFPHJG@start@    00000001400b3f6c     glfw3:input.obj
 0002:00022f74       ??_C@_05HLIEEKJG@guide@    00000001400b3f74     glfw3:input.obj
 0002:00022f80       ??_C@_0N@MEFCLEJO@leftshoulder@ 00000001400b3f80     glfw3:input.obj
 0002:00022f90       ??_C@_0O@LCPOPKLJ@rightshoulder@ 00000001400b3f90     glfw3:input.obj
 0002:00022fa0       ??_C@_09MEKLKMGE@leftstick@ 00000001400b3fa0     glfw3:input.obj
 0002:00022fb0       ??_C@_0L@DHLNGPDM@rightstick@ 00000001400b3fb0     glfw3:input.obj
 0002:00022fbc       ??_C@_04EDFFKKLO@dpup@     00000001400b3fbc     glfw3:input.obj
 0002:00022fc8       ??_C@_07FLLKAONK@dpright@  00000001400b3fc8     glfw3:input.obj
 0002:00022fd0       ??_C@_06LDHPELJC@dpdown@   00000001400b3fd0     glfw3:input.obj
 0002:00022fd8       ??_C@_06EBHLNDKL@dpleft@   00000001400b3fd8     glfw3:input.obj
 0002:00022fe0       ??_C@_0M@FLKHLCCP@lefttrigger@ 00000001400b3fe0     glfw3:input.obj
 0002:00022ff0       ??_C@_0N@CLKIAFGP@righttrigger@ 00000001400b3ff0     glfw3:input.obj
 0002:00023000       ??_C@_05MKIKPCON@leftx@    00000001400b4000     glfw3:input.obj
 0002:00023008       ??_C@_05NDJBMDKM@lefty@    00000001400b4008     glfw3:input.obj
 0002:00023010       ??_C@_06FHABPINC@rightx@   00000001400b4010     glfw3:input.obj
 0002:00023018       ??_C@_06EOBKMJJD@righty@   00000001400b4018     glfw3:input.obj
 0002:00023020       ??_C@_01IHBHIGKO@?0@       00000001400b4020     glfw3:input.obj
 0002:00023028       ??_C@_07LDLFNPGN@Windows@  00000001400b4028     glfw3:input.obj
 0002:00023030       ??_C@_02PCIJFNDE@?$AN?6@   00000001400b4030     glfw3:input.obj
 0002:00023038       ??_C@_0CE@JBLPENML@Invalid?5context?5creation?5API?50x@ 00000001400b4038     glfw3:context.obj
 0002:00023060       ??_C@_0BK@EIOPBJJH@Invalid?5client?5API?50x?$CF08X@ 00000001400b4060     glfw3:context.obj
 0002:00023080       ??_C@_0BN@DHKEBMCG@Invalid?5OpenGL?5version?5?$CFi?4?$CFi@ 00000001400b4080     glfw3:context.obj
 0002:000230a0       ??_C@_0BO@PCKHNBJ@Invalid?5OpenGL?5profile?50x?$CF08X@ 00000001400b40a0     glfw3:context.obj
 0002:000230c0       ??_C@_0ED@FEABOOIM@Context?5profiles?5are?5only?5defin@ 00000001400b40c0     glfw3:context.obj
 0002:00023110       ??_C@_0EH@CMDCLIEA@Forward?9compatibility?5is?5only?5d@ 00000001400b4110     glfw3:context.obj
 0002:00023158       ??_C@_0CA@LFIDGAHJ@Invalid?5OpenGL?5ES?5version?5?$CFi?4?$CFi@ 00000001400b4158     glfw3:context.obj
 0002:00023178       ??_C@_0CH@PNNMGINB@Invalid?5context?5robustness?5mode@ 00000001400b4178     glfw3:context.obj
 0002:000231a0       ??_C@_0CI@JDDJIGNN@Invalid?5context?5release?5behavio@ 00000001400b41a0     glfw3:context.obj
 0002:000231c8       ??_C@_0O@ENGHJHNB@OpenGL?5ES?9CM?5@ 00000001400b41c8     glfw3:context.obj
 0002:000231d8       ??_C@_0O@EMKFPNOG@OpenGL?5ES?9CL?5@ 00000001400b41d8     glfw3:context.obj
 0002:000231e8       ??_C@_0L@JLFHOCGA@OpenGL?5ES?5@ 00000001400b41e8     glfw3:context.obj
 0002:000231f8       ??_C@_0O@DHHDCCLF@glGetIntegerv@ 00000001400b41f8     glfw3:context.obj
 0002:00023208       ??_C@_0M@OPOBFDCB@glGetString@ 00000001400b4208     glfw3:context.obj
 0002:00023218       ??_C@_0CA@LDAANPIM@Entry?5point?5retrieval?5is?5broken@ 00000001400b4218     glfw3:context.obj
 0002:00023238       ??_C@_0CK@DKAFEDIC@OpenGL?5version?5string?5retrieval@ 00000001400b4238     glfw3:context.obj
 0002:00023268       ??_C@_0CN@GOPDCGGI@OpenGL?5ES?5version?5string?5retrie@ 00000001400b4268     glfw3:context.obj
 0002:00023298       ??_C@_08FOJKHHJA@?$CFd?4?$CFd?4?$CFd@ 00000001400b4298     glfw3:context.obj
 0002:000232a8       ??_C@_0CK@DDNMEIKD@No?5version?5found?5in?5OpenGL?5vers@ 00000001400b42a8     glfw3:context.obj
 0002:000232d8       ??_C@_0CN@FALFGDO@No?5version?5found?5in?5OpenGL?5ES?5v@ 00000001400b42d8     glfw3:context.obj
 0002:00023308       ??_C@_0DC@KIAJNHJN@Requested?5OpenGL?5version?5?$CFi?4?$CFi?0@ 00000001400b4308     glfw3:context.obj
 0002:00023340       ??_C@_0DF@EFFMOKHE@Requested?5OpenGL?5ES?5version?5?$CFi?4@ 00000001400b4340     glfw3:context.obj
 0002:00023378       ??_C@_0N@PILJCBOD@glGetStringi@ 00000001400b4378     glfw3:context.obj
 0002:00023388       ??_C@_0BE@OHIPHHMJ@GL_ARB_debug_output@ 00000001400b4388     glfw3:context.obj
 0002:000233a0       ??_C@_0BF@CJMIIMBG@GL_ARB_compatibility@ 00000001400b43a0     glfw3:context.obj
 0002:000233b8       ??_C@_0BC@EOBKJDCM@GL_ARB_robustness@ 00000001400b43b8     glfw3:context.obj
 0002:000233d0       ??_C@_0BC@CLDFFND@GL_EXT_robustness@ 00000001400b43d0     glfw3:context.obj
 0002:000233e8       ??_C@_0BN@FNDGKECA@GL_KHR_context_flush_control@ 00000001400b43e8     glfw3:context.obj
 0002:00023408       ??_C@_07IBAPPAHJ@glClear@  00000001400b4408     glfw3:context.obj
 0002:00023410       ??_C@_0EK@HBJBDMAL@Cannot?5make?5current?5with?5a?5wind@ 00000001400b4410     glfw3:context.obj
 0002:00023460       ??_C@_0EI@PJFDHBJK@Cannot?5swap?5buffers?5of?5a?5window@ 00000001400b4460     glfw3:context.obj
 0002:000234b0       ??_C@_0EH@BEBOCAGI@Cannot?5set?5swap?5interval?5withou@ 00000001400b44b0     glfw3:context.obj
 0002:00023500       ??_C@_0EF@NMJGLODJ@Cannot?5query?5extension?5without?5@ 00000001400b4500     glfw3:context.obj
 0002:00023548       ??_C@_0CJ@JDBBFPLM@Extension?5name?5cannot?5be?5an?5emp@ 00000001400b4548     glfw3:context.obj
 0002:00023578       ??_C@_0CF@KMMHNOMI@Extension?5string?5retrieval?5is?5b@ 00000001400b4578     glfw3:context.obj
 0002:000235a0       ??_C@_0EH@LGPPFAO@Cannot?5query?5entry?5point?5withou@ 00000001400b45a0     glfw3:context.obj
 0002:000235f8       ??_C@_09CBHKFKGB@winmm?4dll@ 00000001400b45f8     glfw3:win32_init.obj
 0002:00023608       ??_C@_0CA@EDJENDDE@Win32?3?5Failed?5to?5load?5winmm?4dll@ 00000001400b4608     glfw3:win32_init.obj
 0002:00023628       ??_C@_0M@DEPJBPP@timeGetTime@ 00000001400b4628     glfw3:win32_init.obj
 0002:00023638       ??_C@_0L@GMPLCCII@user32?4dll@ 00000001400b4638     glfw3:win32_init.obj
 0002:00023648       ??_C@_0CB@HHJIGJHK@Win32?3?5Failed?5to?5load?5user32?4dl@ 00000001400b4648     glfw3:win32_init.obj
 0002:00023670       ??_C@_0BD@ENICNPLM@SetProcessDPIAware@ 00000001400b4670     glfw3:win32_init.obj
 0002:00023688       ??_C@_0BM@OCGPLDNC@ChangeWindowMessageFilterEx@ 00000001400b4688     glfw3:win32_init.obj
 0002:000236a8       ??_C@_0BK@NKEDGNNN@EnableNonClientDpiScaling@ 00000001400b46a8     glfw3:win32_init.obj
 0002:000236c8       ??_C@_0BO@LHMLBOLK@SetProcessDpiAwarenessContext@ 00000001400b46c8     glfw3:win32_init.obj
 0002:000236e8       ??_C@_0BA@LGGPEDOH@GetDpiForWindow@ 00000001400b46e8     glfw3:win32_init.obj
 0002:000236f8       ??_C@_0BJ@MBAAGFCG@AdjustWindowRectExForDpi@ 00000001400b46f8     glfw3:win32_init.obj
 0002:00023718       ??_C@_0M@ONOEDIJO@dinput8?4dll@ 00000001400b4718     glfw3:win32_init.obj
 0002:00023728       ??_C@_0BD@IJCCAMHG@DirectInput8Create@ 00000001400b4728     glfw3:win32_init.obj
 0002:00023740       ??_C@_0O@LNFLKCMF@xinput1_4?4dll@ 00000001400b4740     glfw3:win32_init.obj
 0002:00023750       ??_C@_0O@KAFOJCHN@xinput1_3?4dll@ 00000001400b4750     glfw3:win32_init.obj
 0002:00023760       ??_C@_0BA@GHGALGFD@xinput9_1_0?4dll@ 00000001400b4760     glfw3:win32_init.obj
 0002:00023770       ??_C@_0O@GLACEBNI@xinput1_2?4dll@ 00000001400b4770     glfw3:win32_init.obj
 0002:00023780       ??_C@_0O@ONJGDDHG@xinput1_1?4dll@ 00000001400b4780     glfw3:win32_init.obj
 0002:00023790       ??_C@_0BG@ELBNFOBA@XInputGetCapabilities@ 00000001400b4790     glfw3:win32_init.obj
 0002:000237a8       ??_C@_0P@FCCEJHCC@XInputGetState@ 00000001400b47a8     glfw3:win32_init.obj
 0002:000237b8       ??_C@_0L@FACOJKPJ@dwmapi?4dll@ 00000001400b47b8     glfw3:win32_init.obj
 0002:000237c8       ??_C@_0BI@KJPLJBHH@DwmIsCompositionEnabled@ 00000001400b47c8     glfw3:win32_init.obj
 0002:000237e0       ??_C@_08PEMNBIMD@DwmFlush@ 00000001400b47e0     glfw3:win32_init.obj
 0002:000237f0       ??_C@_0BK@HMMKMEOH@DwmEnableBlurBehindWindow@ 00000001400b47f0     glfw3:win32_init.obj
 0002:00023810       ??_C@_0L@DMFDIJCG@shcore?4dll@ 00000001400b4810     glfw3:win32_init.obj
 0002:00023820       ??_C@_0BH@DGFLCCMF@SetProcessDpiAwareness@ 00000001400b4820     glfw3:win32_init.obj
 0002:00023838       ??_C@_0BB@MAMHPNNC@GetDpiForMonitor@ 00000001400b4838     glfw3:win32_init.obj
 0002:00023850       ??_C@_09FLKFJBLM@ntdll?4dll@ 00000001400b4850     glfw3:win32_init.obj
 0002:00023860       ??_C@_0BF@LOGLPPDD@RtlVerifyVersionInfo@ 00000001400b4860     glfw3:win32_init.obj
 0002:00023878       ??_C@_1CI@MPNNJFCJ@?$AAG?$AAL?$AAF?$AAW?$AA?5?$AAm?$AAe?$AAs?$AAs?$AAa?$AAg?$AAe?$AA?5?$AAw?$AAi@ 00000001400b4878     glfw3:win32_init.obj
 0002:000238a0       ??_C@_1O@IBNLCBOC@?$AAG?$AAL?$AAF?$AAW?$AA3?$AA0@ 00000001400b48a0     glfw3:win32_init.obj
 0002:000238b0       ??_C@_0CG@LDJIJKNI@Win32?3?5Failed?5to?5create?5helper?5@ 00000001400b48b0     glfw3:win32_init.obj
 0002:000238d8       ??_C@_0CL@JEJIBJNG@Win32?3?5Failed?5to?5convert?5string@ 00000001400b48d8     glfw3:win32_init.obj
 0002:00023908       ??_C@_0CJ@EFIFNOJC@Win32?3?5Failed?5to?5convert?5string@ 00000001400b4908     glfw3:win32_init.obj
 0002:00023934       ??_C@_06DJHOIPC@?$CFs?3?5?$CFs@ 00000001400b4934     glfw3:win32_init.obj
 0002:00023940       __xmm@00380037003600350034003300320031 00000001400b4940     glfw3:win32_init.obj
 0002:00023950       __xmm@01290128012701260125012401230122 00000001400b4950     glfw3:win32_init.obj
 0002:00023960       __xmm@013501340133013201310130012f012e 00000001400b4960     glfw3:win32_init.obj
 0002:00023970       ??_C@_1BA@PICGEGJB@?$AAD?$AAI?$AAS?$AAP?$AAL?$AAA?$AAY@ 00000001400b4970     glfw3:win32_monitor.obj
 0002:00023980       ??_C@_0O@NIPGCINC@Unknown?5error@ 00000001400b4980     glfw3:win32_monitor.obj
 0002:00023990       ??_C@_0BJ@EJOHFDHH@The?5system?5uses?5DualView@ 00000001400b4990     glfw3:win32_monitor.obj
 0002:000239b0       ??_C@_0O@IHOLGAKK@Invalid?5flags@ 00000001400b49b0     glfw3:win32_monitor.obj
 0002:000239c0       ??_C@_0BM@KPJJBADD@Graphics?5mode?5not?5supported@ 00000001400b49c0     glfw3:win32_monitor.obj
 0002:000239e0       ??_C@_0BC@DBAKKFEN@Invalid?5parameter@ 00000001400b49e0     glfw3:win32_monitor.obj
 0002:000239f8       ??_C@_0BF@JHMFGJBN@Graphics?5mode?5failed@ 00000001400b49f8     glfw3:win32_monitor.obj
 0002:00023a10       ??_C@_0BM@IGBABBBF@Failed?5to?5write?5to?5registry@ 00000001400b4a10     glfw3:win32_monitor.obj
 0002:00023a30       ??_C@_0BK@OEGBAIFC@Computer?5restart?5required@ 00000001400b4a30     glfw3:win32_monitor.obj
 0002:00023a50       ??_C@_0CE@IKOICJPN@Win32?3?5Failed?5to?5set?5video?5mode@ 00000001400b4a50     glfw3:win32_monitor.obj
 0002:00023a78       ??_C@_0CD@EGEEPFHF@Win32?3?5Gamma?5ramp?5size?5must?5be?5@ 00000001400b4a78     glfw3:win32_monitor.obj
 0002:00023a9c       __real@41cb3333            00000001400b4a9c     glfw3:win32_monitor.obj
 0002:00023aa0       __real@42c00000            00000001400b4aa0     glfw3:win32_monitor.obj
 0002:00023aa8       ??_C@_0CE@MEIEKJIC@Win32?3?5Failed?5to?5allocate?5TLS?5i@ 00000001400b4aa8     glfw3:win32_thread.obj
 0002:00023ad0       ??_C@_07PBILKAFL@Success@  00000001400b4ad0     glfw3:vulkan.obj
 0002:00023ad8       ??_C@_0CL@GPJNIICL@Win32?3?5Failed?5to?5register?5raw?5i@ 00000001400b4ad8     glfw3:win32_window.obj
 0002:00023b08       ??_C@_0CJ@JFEDIEDE@Win32?3?5Failed?5to?5remove?5raw?5inp@ 00000001400b4b08     glfw3:win32_window.obj
 0002:00023b38       ??_C@_19JBPKICJI@?$AAG?$AAL?$AAF?$AAW@ 00000001400b4b38     glfw3:win32_window.obj
 0002:00023b48       ??_C@_0CJ@GILDAIDE@Win32?3?5Failed?5to?5retrieve?5raw?5i@ 00000001400b4b48     glfw3:win32_window.obj
 0002:00023b78       ??_C@_0BP@BFHGHOIO@Win32?3?5Failed?5to?5create?5window@ 00000001400b4b78     glfw3:win32_window.obj
 0002:00023b98       ??_C@_1BE@LDFMCOHA@?$AAG?$AAL?$AAF?$AAW?$AA_?$AAI?$AAC?$AAO?$AAN@ 00000001400b4b98     glfw3:win32_window.obj
 0002:00023bb0       ??_C@_0CH@GAPNPCHF@Win32?3?5Failed?5to?5register?5windo@ 00000001400b4bb0     glfw3:win32_window.obj
 0002:00023bd8       __real@405e000000000000    00000001400b4bd8     glfw3:win32_window.obj
 0002:00023be0       __xmm@80000000000000008000000000000000 00000001400b4be0     glfw3:win32_window.obj
 0002:00023ca0       ??_C@_0N@JENFOGFI@XInput?5Wheel@ 00000001400b4ca0     glfw3:win32_joystick.obj
 0002:00023cb0       ??_C@_0BE@FABDLJKH@XInput?5Arcade?5Stick@ 00000001400b4cb0     glfw3:win32_joystick.obj
 0002:00023cc8       ??_C@_0BE@HBNNGLHP@XInput?5Flight?5Stick@ 00000001400b4cc8     glfw3:win32_joystick.obj
 0002:00023ce0       ??_C@_0BB@JDDMDGFO@XInput?5Dance?5Pad@ 00000001400b4ce0     glfw3:win32_joystick.obj
 0002:00023cf8       ??_C@_0O@IFDGNEHH@XInput?5Guitar@ 00000001400b4cf8     glfw3:win32_joystick.obj
 0002:00023d08       ??_C@_0BA@LCMKGGHA@XInput?5Drum?5Kit@ 00000001400b4d08     glfw3:win32_joystick.obj
 0002:00023d18       ??_C@_0BJ@IIGAEGGE@Wireless?5Xbox?5Controller@ 00000001400b4d18     glfw3:win32_joystick.obj
 0002:00023d38       ??_C@_0BA@EPLGABLH@Xbox?5Controller@ 00000001400b4d38     glfw3:win32_joystick.obj
 0002:00023d48       ??_C@_0BG@DGJLFNBN@Unknown?5XInput?5Device@ 00000001400b4d48     glfw3:win32_joystick.obj
 0002:00023d60       ??_C@_03HAFBONIK@IG_@      00000001400b4d60     glfw3:win32_joystick.obj
 0002:00023d68       ??_C@_0BP@OHJGLFIP@Win32?3?5Failed?5to?5create?5device@ 00000001400b4d68     glfw3:win32_joystick.obj
 0002:00023d88       ??_C@_0CI@MMBFOOEA@Win32?3?5Failed?5to?5set?5device?5dat@ 00000001400b4d88     glfw3:win32_joystick.obj
 0002:00023db0       ??_C@_0CL@JHIPHFAC@Win32?3?5Failed?5to?5query?5device?5c@ 00000001400b4db0     glfw3:win32_joystick.obj
 0002:00023de0       ??_C@_0CG@JJEBGGIE@Win32?3?5Failed?5to?5set?5device?5axi@ 00000001400b4de0     glfw3:win32_joystick.obj
 0002:00023e08       ??_C@_0CK@FKJPIIOF@Win32?3?5Failed?5to?5enumerate?5devi@ 00000001400b4e08     glfw3:win32_joystick.obj
 0002:00023e38       ??_C@_0DA@IIGLKABA@Win32?3?5Failed?5to?5convert?5joysti@ 00000001400b4e38     glfw3:win32_joystick.obj
 0002:00023e68       ??_C@_06MBFKAACL@PIDVID@   00000001400b4e68     glfw3:win32_joystick.obj
 0002:00023e70       ??_C@_0CJ@NMCAPCBP@03000000?$CF02x?$CF02x0000?$CF02x?$CF02x000@ 00000001400b4e70     glfw3:win32_joystick.obj
 0002:00023ea0       ??_C@_0DH@LCNJGHOP@05000000?$CF02x?$CF02x?$CF02x?$CF02x?$CF02x?$CF02@ 00000001400b4ea0     glfw3:win32_joystick.obj
 0002:00023ed8       ??_C@_0CC@MGDCJJKB@Win32?3?5Failed?5to?5create?5interfa@ 00000001400b4ed8     glfw3:win32_joystick.obj
 0002:00023f00       ??_C@_0CD@CBFNHKPK@78696e707574?$CF02x000000000000000@ 00000001400b4f00     glfw3:win32_joystick.obj
 0002:00023f28       ??_C@_0CJ@HDJDHLNO@Failed?5to?5enumerate?5DirectInput@ 00000001400b4f28     glfw3:win32_joystick.obj
 0002:00023f58       ??_C@_0N@OJEJPFOD@504944564944@ 00000001400b4f58     glfw3:win32_joystick.obj
 0002:00023f68       ??_C@_0CB@BIHPPBFK@03000000?$CF?44s0000?$CF?44s00000000000@ 00000001400b4f68     glfw3:win32_joystick.obj
 0002:00023f90       ??_C@_0CP@FFKBMLDH@WGL?3?5Failed?5to?5retrieve?5pixel?5f@ 00000001400b4f90     glfw3:wgl_context.obj
 0002:00023fc0       ??_C@_0DC@HFHALHIB@WGL?3?5The?5driver?5does?5not?5appear@ 00000001400b4fc0     glfw3:wgl_context.obj
 0002:00023ff8       ??_C@_0CM@DGJKGOGD@WGL?3?5Failed?5to?5find?5a?5suitable?5@ 00000001400b4ff8     glfw3:wgl_context.obj
 0002:00024028       ??_C@_0CE@FEGPCKPN@WGL?3?5Failed?5to?5make?5context?5cur@ 00000001400b5028     glfw3:wgl_context.obj
 0002:00024050       ??_C@_0CF@EKIADPFB@WGL?3?5Failed?5to?5clear?5current?5co@ 00000001400b5050     glfw3:wgl_context.obj
 0002:00024078       ??_C@_0N@DOKAJOHF@opengl32?4dll@ 00000001400b5078     glfw3:wgl_context.obj
 0002:00024088       ??_C@_0CB@FLGENKMO@WGL?3?5Failed?5to?5load?5opengl32?4dl@ 00000001400b5088     glfw3:wgl_context.obj
 0002:000240b0       ??_C@_0BB@GHMBNOIP@wglCreateContext@ 00000001400b50b0     glfw3:wgl_context.obj
 0002:000240c8       ??_C@_0BB@OGAIJNNO@wglDeleteContext@ 00000001400b50c8     glfw3:wgl_context.obj
 0002:000240e0       ??_C@_0BC@FFKMKEGM@wglGetProcAddress@ 00000001400b50e0     glfw3:wgl_context.obj
 0002:000240f8       ??_C@_0BA@BMKCDCKD@wglGetCurrentDC@ 00000001400b50f8     glfw3:wgl_context.obj
 0002:00024108       ??_C@_0BF@HABDPBMA@wglGetCurrentContext@ 00000001400b5108     glfw3:wgl_context.obj
 0002:00024120       ??_C@_0P@BBBFNDGG@wglMakeCurrent@ 00000001400b5120     glfw3:wgl_context.obj
 0002:00024130       ??_C@_0O@GCGJMHDL@wglShareLists@ 00000001400b5130     glfw3:wgl_context.obj
 0002:00024140       ??_C@_0DC@IPDIACJO@WGL?3?5Failed?5to?5set?5pixel?5format@ 00000001400b5140     glfw3:wgl_context.obj
 0002:00024178       ??_C@_0CE@KAEELGKL@WGL?3?5Failed?5to?5create?5dummy?5con@ 00000001400b5178     glfw3:wgl_context.obj
 0002:000241a0       ??_C@_0CK@JKJFDJLH@WGL?3?5Failed?5to?5make?5dummy?5conte@ 00000001400b51a0     glfw3:wgl_context.obj
 0002:000241d0       ??_C@_0BK@HGDBIG@wglGetExtensionsStringEXT@ 00000001400b51d0     glfw3:wgl_context.obj
 0002:000241f0       ??_C@_0BK@JOBLJGNA@wglGetExtensionsStringARB@ 00000001400b51f0     glfw3:wgl_context.obj
 0002:00024210       ??_C@_0BL@PDDHMPGF@wglCreateContextAttribsARB@ 00000001400b5210     glfw3:wgl_context.obj
 0002:00024230       ??_C@_0BD@IINOPBDD@wglSwapIntervalEXT@ 00000001400b5230     glfw3:wgl_context.obj
 0002:00024248       ??_C@_0BN@GDKHKIAN@wglGetPixelFormatAttribivARB@ 00000001400b5248     glfw3:wgl_context.obj
 0002:00024268       ??_C@_0BE@BMOJHNDI@WGL_ARB_multisample@ 00000001400b5268     glfw3:wgl_context.obj
 0002:00024280       ??_C@_0BJ@CIMJOHKL@WGL_ARB_framebuffer_sRGB@ 00000001400b5280     glfw3:wgl_context.obj
 0002:000242a0       ??_C@_0BJ@ODLLHDDH@WGL_EXT_framebuffer_sRGB@ 00000001400b52a0     glfw3:wgl_context.obj
 0002:000242c0       ??_C@_0BH@NCJDMLMG@WGL_ARB_create_context@ 00000001400b52c0     glfw3:wgl_context.obj
 0002:000242d8       ??_C@_0BP@JAOBDJGN@WGL_ARB_create_context_profile@ 00000001400b52d8     glfw3:wgl_context.obj
 0002:000242f8       ??_C@_0CD@FOMFMBIL@WGL_EXT_create_context_es2_prof@ 00000001400b52f8     glfw3:wgl_context.obj
 0002:00024320       ??_C@_0CC@BFGHOMNL@WGL_ARB_create_context_robustne@ 00000001400b5320     glfw3:wgl_context.obj
 0002:00024348       ??_C@_0CA@CJLAIOKE@WGL_ARB_create_context_no_error@ 00000001400b5348     glfw3:wgl_context.obj
 0002:00024368       ??_C@_0BF@NPDKPIKE@WGL_EXT_swap_control@ 00000001400b5368     glfw3:wgl_context.obj
 0002:00024380       ??_C@_0BD@KGLHBPN@WGL_EXT_colorspace@ 00000001400b5380     glfw3:wgl_context.obj
 0002:00024398       ??_C@_0BF@OGGDOHFN@WGL_ARB_pixel_format@ 00000001400b5398     glfw3:wgl_context.obj
 0002:000243b0       ??_C@_0BO@FABLLHKK@WGL_ARB_context_flush_control@ 00000001400b53b0     glfw3:wgl_context.obj
 0002:000243d0       ??_C@_0CG@GMPEPNKL@WGL?3?5Failed?5to?5retrieve?5DC?5for?5@ 00000001400b53d0     glfw3:wgl_context.obj
 0002:000243f8       ??_C@_0DG@EPNPJJLB@WGL?3?5Failed?5to?5retrieve?5PFD?5for@ 00000001400b53f8     glfw3:wgl_context.obj
 0002:00024430       ??_C@_0CJ@HAGOIHNO@WGL?3?5Failed?5to?5set?5selected?5pix@ 00000001400b5430     glfw3:wgl_context.obj
 0002:00024460       ??_C@_0FN@NPOMMKHN@WGL?3?5A?5forward?5compatible?5OpenG@ 00000001400b5460     glfw3:wgl_context.obj
 0002:000244c0       ??_C@_0FA@OHOPKHFK@WGL?3?5OpenGL?5profile?5requested?5b@ 00000001400b54c0     glfw3:wgl_context.obj
 0002:00024510       ??_C@_0EP@EKHGPGGO@WGL?3?5OpenGL?5ES?5requested?5but?5WG@ 00000001400b5510     glfw3:wgl_context.obj
 0002:00024560       ??_C@_0DC@CDLECLKD@WGL?3?5Driver?5does?5not?5support?5Op@ 00000001400b5560     glfw3:wgl_context.obj
 0002:00024598       ??_C@_0DF@NPMNAJFG@WGL?3?5Driver?5does?5not?5support?5Op@ 00000001400b5598     glfw3:wgl_context.obj
 0002:000245d0       ??_C@_0DK@CDBDDLLM@WGL?3?5Driver?5does?5not?5support?5th@ 00000001400b55d0     glfw3:wgl_context.obj
 0002:00024610       ??_C@_0EE@LGMAAPCC@WGL?3?5The?5share?5context?5is?5not?5c@ 00000001400b5610     glfw3:wgl_context.obj
 0002:00024658       ??_C@_0CF@GFMDJIA@WGL?3?5Failed?5to?5create?5OpenGL?5co@ 00000001400b5658     glfw3:wgl_context.obj
 0002:00024680       ??_C@_0CI@JNBCHAIF@WGL?3?5Failed?5to?5create?5OpenGL?5ES@ 00000001400b5680     glfw3:wgl_context.obj
 0002:000246a8       ??_C@_0DM@FCAOPKO@WGL?3?5Failed?5to?5enable?5sharing?5w@ 00000001400b56a8     glfw3:wgl_context.obj
 0002:000246e8       ??_C@_0CH@KLCPDMM@EGL?5is?5not?5or?5could?5not?5be?5init@ 00000001400b56e8     glfw3:egl_context.obj
 0002:00024710       ??_C@_0CH@MMCOKIKC@EGL?5cannot?5access?5a?5requested?5r@ 00000001400b5710     glfw3:egl_context.obj
 0002:00024738       ??_C@_0DN@GNDEENDO@EGL?5failed?5to?5allocate?5resource@ 00000001400b5738     glfw3:egl_context.obj
 0002:00024780       ??_C@_0EO@EKFIJHGG@An?5unrecognized?5attribute?5or?5at@ 00000001400b5780     glfw3:egl_context.obj
 0002:000247d0       ??_C@_0ED@GAJEHCGA@An?5EGLContext?5argument?5does?5not@ 00000001400b57d0     glfw3:egl_context.obj
 0002:00024820       ??_C@_0EL@BBAGGFOK@An?5EGLConfig?5argument?5does?5not?5@ 00000001400b5820     glfw3:egl_context.obj
 0002:00024870       ??_C@_0GG@ODICGIHF@The?5current?5surface?5of?5the?5call@ 00000001400b5870     glfw3:egl_context.obj
 0002:000248e0       ??_C@_0EE@ICKHNPHB@An?5EGLDisplay?5argument?5does?5not@ 00000001400b58e0     glfw3:egl_context.obj
 0002:00024930       ??_C@_0FB@EPGEGHDL@An?5EGLSurface?5argument?5does?5not@ 00000001400b5930     glfw3:egl_context.obj
 0002:00024988       ??_C@_0BL@OIILILNJ@Arguments?5are?5inconsistent@ 00000001400b5988     glfw3:egl_context.obj
 0002:000249a8       ??_C@_0CI@KAHNKLLC@One?5or?5more?5argument?5values?5are@ 00000001400b59a8     glfw3:egl_context.obj
 0002:000249d0       ??_C@_0EE@NKCAIGPH@A?5NativePixmapType?5argument?5doe@ 00000001400b59d0     glfw3:egl_context.obj
 0002:00024a20       ??_C@_0EE@FBMMOIJB@A?5NativeWindowType?5argument?5doe@ 00000001400b5a20     glfw3:egl_context.obj
 0002:00024a68       ??_C@_0DL@GNLICFMC@The?5application?5must?5destroy?5al@ 00000001400b5a68     glfw3:egl_context.obj
 0002:00024aa8       ??_C@_0BJ@KDFAHDEK@ERROR?3?5UNKNOWN?5EGL?5ERROR@ 00000001400b5aa8     glfw3:egl_context.obj
 0002:00024ac8       ??_C@_0BM@KHOPPJNJ@EGL?3?5No?5EGLConfigs?5returned@ 00000001400b5ac8     glfw3:egl_context.obj
 0002:00024ae8       ??_C@_0CI@MPJNGPNP@EGL?3?5Failed?5to?5make?5context?5cur@ 00000001400b5ae8     glfw3:egl_context.obj
 0002:00024b10       ??_C@_0CJ@NBJEEEJD@EGL?3?5Failed?5to?5clear?5current?5co@ 00000001400b5b10     glfw3:egl_context.obj
 0002:00024b40       ??_C@_0EN@CIIGDABJ@EGL?3?5The?5context?5must?5be?5curren@ 00000001400b5b40     glfw3:egl_context.obj
 0002:00024b90       ??_C@_0L@ELKKGGMD@libEGL?4dll@ 00000001400b5b90     glfw3:egl_context.obj
 0002:00024ba0       ??_C@_07EAKGIKCB@EGL?4dll@ 00000001400b5ba0     glfw3:egl_context.obj
 0002:00024ba8       ??_C@_0BH@NFNALLIN@EGL?3?5Library?5not?5found@ 00000001400b5ba8     glfw3:egl_context.obj
 0002:00024bc0       ??_C@_03LPIGJBNC@lib@      00000001400b5bc0     glfw3:egl_context.obj
 0002:00024bc8       ??_C@_0BD@MAEGKKAE@eglGetConfigAttrib@ 00000001400b5bc8     glfw3:egl_context.obj
 0002:00024be0       ??_C@_0O@OMNEJBKO@eglGetConfigs@ 00000001400b5be0     glfw3:egl_context.obj
 0002:00024bf0       ??_C@_0O@BMJFLKOA@eglGetDisplay@ 00000001400b5bf0     glfw3:egl_context.obj
 0002:00024c00       ??_C@_0M@PPADKGOK@eglGetError@ 00000001400b5c00     glfw3:egl_context.obj
 0002:00024c10       ??_C@_0O@EEJFKEKH@eglInitialize@ 00000001400b5c10     glfw3:egl_context.obj
 0002:00024c20       ??_C@_0N@IGFNFAOP@eglTerminate@ 00000001400b5c20     glfw3:egl_context.obj
 0002:00024c30       ??_C@_0L@HJOCIPHF@eglBindAPI@ 00000001400b5c30     glfw3:egl_context.obj
 0002:00024c40       ??_C@_0BB@KEKMNHDF@eglCreateContext@ 00000001400b5c40     glfw3:egl_context.obj
 0002:00024c58       ??_C@_0BC@ICHKG@eglDestroySurface@ 00000001400b5c58     glfw3:egl_context.obj
 0002:00024c70       ??_C@_0BC@BNOBCLNJ@eglDestroyContext@ 00000001400b5c70     glfw3:egl_context.obj
 0002:00024c88       ??_C@_0BH@MDMCFBDG@eglCreateWindowSurface@ 00000001400b5c88     glfw3:egl_context.obj
 0002:00024ca0       ??_C@_0P@PNPBPNLI@eglMakeCurrent@ 00000001400b5ca0     glfw3:egl_context.obj
 0002:00024cb0       ??_C@_0P@DEBOOHKH@eglSwapBuffers@ 00000001400b5cb0     glfw3:egl_context.obj
 0002:00024cc0       ??_C@_0BA@BGJPOLDF@eglSwapInterval@ 00000001400b5cc0     glfw3:egl_context.obj
 0002:00024cd0       ??_C@_0P@HJKEKLKD@eglQueryString@ 00000001400b5cd0     glfw3:egl_context.obj
 0002:00024ce0       ??_C@_0BC@HONLJDPH@eglGetProcAddress@ 00000001400b5ce0     glfw3:egl_context.obj
 0002:00024cf8       ??_C@_0CK@DCPJCPHH@EGL?3?5Failed?5to?5load?5required?5en@ 00000001400b5cf8     glfw3:egl_context.obj
 0002:00024d28       ??_C@_0CD@CODEPNKE@EGL?3?5Failed?5to?5get?5EGL?5display?3@ 00000001400b5d28     glfw3:egl_context.obj
 0002:00024d50       ??_C@_0CC@DOIEFDD@EGL?3?5Failed?5to?5initialize?5EGL?3?5@ 00000001400b5d50     glfw3:egl_context.obj
 0002:00024d78       ??_C@_0BH@GIBFIFPN@EGL_KHR_create_context@ 00000001400b5d78     glfw3:egl_context.obj
 0002:00024d90       ??_C@_0CA@OJFEOPKP@EGL_KHR_create_context_no_error@ 00000001400b5d90     glfw3:egl_context.obj
 0002:00024db0       ??_C@_0BG@GOAKKGGB@EGL_KHR_gl_colorspace@ 00000001400b5db0     glfw3:egl_context.obj
 0002:00024dc8       ??_C@_0BP@CDGGFNNF@EGL_KHR_get_all_proc_addresses@ 00000001400b5dc8     glfw3:egl_context.obj
 0002:00024de8       ??_C@_0BO@IDEEMGNC@EGL_KHR_context_flush_control@ 00000001400b5de8     glfw3:egl_context.obj
 0002:00024e08       ??_C@_0BH@PDIOJKKP@EGL?3?5API?5not?5available@ 00000001400b5e08     glfw3:egl_context.obj
 0002:00024e20       ??_C@_0CJ@JPDPLHCM@EGL?3?5Failed?5to?5find?5a?5suitable?5@ 00000001400b5e20     glfw3:egl_context.obj
 0002:00024e50       ??_C@_0CC@NIBJMOI@EGL?3?5Failed?5to?5bind?5OpenGL?5ES?3?5@ 00000001400b5e50     glfw3:egl_context.obj
 0002:00024e78       ??_C@_0BP@PHOHHIJJ@EGL?3?5Failed?5to?5bind?5OpenGL?3?5?$CFs@ 00000001400b5e78     glfw3:egl_context.obj
 0002:00024e98       ??_C@_0CC@GOIKODMM@EGL?3?5Failed?5to?5create?5context?3?5@ 00000001400b5e98     glfw3:egl_context.obj
 0002:00024ec0       ??_C@_0CJ@MHLGDLLP@EGL?3?5Failed?5to?5create?5window?5su@ 00000001400b5ec0     glfw3:egl_context.obj
 0002:00024ef0       ??_C@_0O@KOJFNJDA@GLESv1_CM?4dll@ 00000001400b5ef0     glfw3:egl_context.obj
 0002:00024f00       ??_C@_0P@MADFBLIB@libGLES_CM?4dll@ 00000001400b5f00     glfw3:egl_context.obj
 0002:00024f10       ??_C@_0L@CEBLLDFF@GLESv2?4dll@ 00000001400b5f10     glfw3:egl_context.obj
 0002:00024f20       ??_C@_0O@HFAAEHFL@libGLESv2?4dll@ 00000001400b5f20     glfw3:egl_context.obj
 0002:00024f30       ??_C@_0CD@JDEAKJCI@EGL?3?5Failed?5to?5load?5client?5libr@ 00000001400b5f30     glfw3:egl_context.obj
 0002:00024f58       ??_C@_0CH@CKFBCGDL@OSMesa?3?5Failed?5to?5make?5context?5@ 00000001400b5f58     glfw3:osmesa_context.obj
 0002:00024f80       ??_C@_0O@DJDONBGH@libOSMesa?4dll@ 00000001400b5f80     glfw3:osmesa_context.obj
 0002:00024f90       ??_C@_0L@GICFCFGJ@OSMesa?4dll@ 00000001400b5f90     glfw3:osmesa_context.obj
 0002:00024fa0       ??_C@_0BK@MLLMMLGE@OSMesa?3?5Library?5not?5found@ 00000001400b5fa0     glfw3:osmesa_context.obj
 0002:00024fc0       ??_C@_0BH@IPANDFMH@OSMesaCreateContextExt@ 00000001400b5fc0     glfw3:osmesa_context.obj
 0002:00024fd8       ??_C@_0BL@MIAEELOL@OSMesaCreateContextAttribs@ 00000001400b5fd8     glfw3:osmesa_context.obj
 0002:00024ff8       ??_C@_0BF@OOKNCFMF@OSMesaDestroyContext@ 00000001400b5ff8     glfw3:osmesa_context.obj
 0002:00025010       ??_C@_0BC@HEACFLN@OSMesaMakeCurrent@ 00000001400b6010     glfw3:osmesa_context.obj
 0002:00025028       ??_C@_0BF@HHLAJKBF@OSMesaGetColorBuffer@ 00000001400b6028     glfw3:osmesa_context.obj
 0002:00025040       ??_C@_0BF@BPPLLLDH@OSMesaGetDepthBuffer@ 00000001400b6040     glfw3:osmesa_context.obj
 0002:00025058       ??_C@_0BF@INJHJNOL@OSMesaGetProcAddress@ 00000001400b6058     glfw3:osmesa_context.obj
 0002:00025070       ??_C@_0CN@PEBHJDOE@OSMesa?3?5Failed?5to?5load?5required@ 00000001400b6070     glfw3:osmesa_context.obj
 0002:000250a0       ??_C@_0CN@JHECHMPF@OSMesa?3?5OpenGL?5ES?5is?5not?5availa@ 00000001400b60a0     glfw3:osmesa_context.obj
 0002:000250d0       ??_C@_0DB@DLHCLOKG@OSMesa?3?5Foward?9compatible?5conte@ 00000001400b60d0     glfw3:osmesa_context.obj
 0002:00025108       ??_C@_0CE@OJEBIEPE@OSMesa?3?5OpenGL?5profiles?5unavail@ 00000001400b6108     glfw3:osmesa_context.obj
 0002:00025130       ??_C@_0CB@LDOHHBIH@OSMesa?3?5Failed?5to?5create?5contex@ 00000001400b6130     glfw3:osmesa_context.obj
 0002:00025180       ??_C@_1EC@JIJBPKFM@?$AAa?$AAp?$AAi?$AA?9?$AAm?$AAs?$AA?9?$AAw?$AAi?$AAn?$AA?9?$AAc?$AAo?$AAr?$AAe@ 00000001400b6180     LIBCMT:thread_safe_statics.obj
 0002:000251c8       ??_C@_1BK@MGMFAEKH@?$AAk?$AAe?$AAr?$AAn?$AAe?$AAl?$AA3?$AA2?$AA?4?$AAd?$AAl?$AAl@ 00000001400b61c8     LIBCMT:thread_safe_statics.obj
 0002:000251e8       ??_C@_0BM@HLJJNPAH@InitializeConditionVariable@ 00000001400b61e8     LIBCMT:thread_safe_statics.obj
 0002:00025208       ??_C@_0BJ@JEBJOJFJ@SleepConditionVariableCS@ 00000001400b6208     LIBCMT:thread_safe_statics.obj
 0002:00025228       ??_C@_0BJ@PGPPEPCC@WakeAllConditionVariable@ 00000001400b6228     LIBCMT:thread_safe_statics.obj
 0002:00025258       _pDestructExceptionObject  00000001400b6258     libvcruntime:ehhelpers.obj
 0002:00025300       ??_7exception@std@@6B@     00000001400b6300     libvcruntime:frame.obj
 0002:00025310       ??_C@_0BC@EOODALEL@Unknown?5exception@ 00000001400b6310     libvcruntime:frame.obj
 0002:00025330       ??_7bad_exception@std@@6B@ 00000001400b6330     libvcruntime:frame.obj
 0002:00025340       ??_C@_0O@DPKOEFFH@bad?5exception@ 00000001400b6340     libvcruntime:frame.obj
 0002:00025368       ??_C@_1DM@KHCHBNEB@?$AAa?$AAp?$AAi?$AA?9?$AAm?$AAs?$AA?9?$AAw?$AAi?$AAn?$AA?9?$AAc?$AAo?$AAr?$AAe@ 00000001400b6368     libvcruntime:winapi_downlevel.obj
 0002:000253a8       ??_C@_1DK@LPPGFMPP@?$AAa?$AAp?$AAi?$AA?9?$AAm?$AAs?$AA?9?$AAw?$AAi?$AAn?$AA?9?$AAc?$AAo?$AAr?$AAe@ 00000001400b63a8     libvcruntime:winapi_downlevel.obj
 0002:000253e8       ??_C@_1BC@GDMECMAK@?$AAk?$AAe?$AAr?$AAn?$AAe?$AAl?$AA3?$AA2@ 00000001400b63e8     libvcruntime:winapi_downlevel.obj
 0002:00025400       ??_C@_1BA@PFFKHIOG@?$AAa?$AAp?$AAi?$AA?9?$AAm?$AAs?$AA?9@ 00000001400b6400     libvcruntime:winapi_downlevel.obj
 0002:00025410       ??_C@_1BA@IAIFMGEF@?$AAe?$AAx?$AAt?$AA?9?$AAm?$AAs?$AA?9@ 00000001400b6410     libvcruntime:winapi_downlevel.obj
 0002:00025428       ??_C@_08KNHFBNJ@FlsAlloc@  00000001400b6428     libvcruntime:winapi_downlevel.obj
 0002:00025440       ??_C@_07PEJMOBNF@FlsFree@  00000001400b6440     libvcruntime:winapi_downlevel.obj
 0002:00025450       ??_C@_0M@GDNOONDI@FlsGetValue@ 00000001400b6450     libvcruntime:winapi_downlevel.obj
 0002:00025468       ??_C@_0M@JCPCPOEF@FlsSetValue@ 00000001400b6468     libvcruntime:winapi_downlevel.obj
 0002:00025480       ??_C@_0BM@HCFOFFN@InitializeCriticalSectionEx@ 00000001400b6480     libvcruntime:winapi_downlevel.obj
 0002:000257d8       ??_C@_08EHJDFFNH@__based?$CI@ 00000001400b67d8     libvcruntime:undname.obj
 0002:000257e8       ??_C@_07KOLFKCDI@__cdecl@  00000001400b67e8     libvcruntime:undname.obj
 0002:000257f0       ??_C@_08GHMPAG@__pascal@   00000001400b67f0     libvcruntime:undname.obj
 0002:00025800       ??_C@_09IFJBGAPI@__stdcall@ 00000001400b6800     libvcruntime:undname.obj
 0002:00025810       ??_C@_0L@NPHFGOKO@__thiscall@ 00000001400b6810     libvcruntime:undname.obj
 0002:00025820       ??_C@_0L@JMKHOMEK@__fastcall@ 00000001400b6820     libvcruntime:undname.obj
 0002:00025830       ??_C@_0N@BCKKPABJ@__vectorcall@ 00000001400b6830     libvcruntime:undname.obj
 0002:00025840       ??_C@_09HIJEGCPM@__clrcall@ 00000001400b6840     libvcruntime:undname.obj
 0002:0002584c       ??_C@_06GHPCKEAG@__eabi@   00000001400b684c     libvcruntime:undname.obj
 0002:00025858       ??_C@_09IOPIDJLG@__swift_1@ 00000001400b6858     libvcruntime:undname.obj
 0002:00025868       ??_C@_09KFNFGKHF@__swift_2@ 00000001400b6868     libvcruntime:undname.obj
 0002:00025878       ??_C@_07JOMMBBKO@__ptr64@  00000001400b6878     libvcruntime:undname.obj
 0002:00025880       ??_C@_0L@PILCLIHE@__restrict@ 00000001400b6880     libvcruntime:undname.obj
 0002:00025890       ??_C@_0M@GFIIJFMG@__unaligned@ 00000001400b6890     libvcruntime:undname.obj
 0002:000258a0       ??_C@_09DHDLOLLB@restrict?$CI@ 00000001400b68a0     libvcruntime:undname.obj
 0002:000258aa       ??_C@_00CNPNBAHC@@         00000001400b68aa     libvcruntime:undname.obj
 0002:000258ac       ??_C@_04NIHEBCM@?5new@     00000001400b68ac     libvcruntime:undname.obj
 0002:000258b8       ??_C@_07FPCDHGMM@?5delete@ 00000001400b68b8     libvcruntime:undname.obj
 0002:000258c0       ??_C@_01NEMOKFLO@?$DN@     00000001400b68c0     libvcruntime:undname.obj
 0002:000258c4       ??_C@_02GPIOPFAK@?$DO?$DO@ 00000001400b68c4     libvcruntime:undname.obj
 0002:000258c8       ??_C@_02FODMEDOG@?$DM?$DM@ 00000001400b68c8     libvcruntime:undname.obj
 0002:000258cc       ??_C@_01DCLJPIOD@?$CB@     00000001400b68cc     libvcruntime:undname.obj
 0002:000258d0       ??_C@_02EGOFBIJA@?$DN?$DN@ 00000001400b68d0     libvcruntime:undname.obj
 0002:000258d4       ??_C@_02FDNJECIE@?$CB?$DN@ 00000001400b68d4     libvcruntime:undname.obj
 0002:000258d8       ??_C@_02GPECMEKF@?$FL?$FN@ 00000001400b68d8     libvcruntime:undname.obj
 0002:000258e0       ??_C@_08LHJFAFGD@operator@ 00000001400b68e0     libvcruntime:undname.obj
 0002:000258ec       ??_C@_02HBOOOICD@?9?$DO@   00000001400b68ec     libvcruntime:undname.obj
 0002:000258f0       ??_C@_01NBENCBCI@?$CK@     00000001400b68f0     libvcruntime:undname.obj
 0002:000258f4       ??_C@_02ECNGHCIF@?$CL?$CL@ 00000001400b68f4     libvcruntime:undname.obj
 0002:000258f8       ??_C@_02BAABKJLB@?9?9@     00000001400b68f8     libvcruntime:undname.obj
 0002:000258fc       ??_C@_01JOAMLHOP@?9@       00000001400b68fc     libvcruntime:undname.obj
 0002:00025900       ??_C@_01MIFGBAGJ@?$CL@     00000001400b6900     libvcruntime:undname.obj
 0002:00025904       ??_C@_01HNPIGOCE@?$CG@     00000001400b6904     libvcruntime:undname.obj
 0002:00025908       ??_C@_03MNHNFDLC@?9?$DO?$CK@ 00000001400b6908     libvcruntime:undname.obj
 0002:0002590c       ??_C@_01KMDKNFGN@?1@       00000001400b690c     libvcruntime:undname.obj
 0002:00025910       ??_C@_01FGNFDNOH@?$CF@     00000001400b6910     libvcruntime:undname.obj
 0002:00025914       ??_C@_01MNNFJEPP@?$DM@     00000001400b6914     libvcruntime:undname.obj
 0002:00025918       ??_C@_02EHCHHCKH@?$DM?$DN@ 00000001400b6918     libvcruntime:undname.obj
 0002:0002591c       ??_C@_01PPODPGHN@?$DO@     00000001400b691c     libvcruntime:undname.obj
 0002:00025920       ??_C@_02EEKDKGMJ@?$DO?$DN@ 00000001400b6920     libvcruntime:undname.obj
 0002:00025924       ??_C@_02HCKGKOFO@?$CI?$CJ@ 00000001400b6924     libvcruntime:undname.obj
 0002:00025928       ??_C@_01PJKLJHI@?$HO@      00000001400b6928     libvcruntime:undname.obj
 0002:0002592c       ??_C@_01JKBOJNNK@?$FO@     00000001400b692c     libvcruntime:undname.obj
 0002:00025930       ??_C@_01DNKMNLPK@?$HM@     00000001400b6930     libvcruntime:undname.obj
 0002:00025934       ??_C@_02PPKAJPJL@?$CG?$CG@ 00000001400b6934     libvcruntime:undname.obj
 0002:00025938       ??_C@_02NONPIBCD@?$HM?$HM@ 00000001400b6938     libvcruntime:undname.obj
 0002:0002593c       ??_C@_02FPIMKNGF@?$CK?$DN@ 00000001400b693c     libvcruntime:undname.obj
 0002:00025940       ??_C@_02FOEOMHFC@?$CL?$DN@ 00000001400b6940     libvcruntime:undname.obj
 0002:00025944       ??_C@_02FKMDLLOA@?9?$DN@   00000001400b6944     libvcruntime:undname.obj
 0002:00025948       ??_C@_02FJEHGPIO@?1?$DN@   00000001400b6948     libvcruntime:undname.obj
 0002:0002594c       ??_C@_02FENAOKFI@?$CF?$DN@ 00000001400b694c     libvcruntime:undname.obj
 0002:00025950       ??_C@_03IKFCCPFF@?$DO?$DO?$DN@ 00000001400b6950     libvcruntime:undname.obj
 0002:00025954       ??_C@_03CDNPDDLA@?$DM?$DM?$DN@ 00000001400b6954     libvcruntime:undname.obj
 0002:00025958       ??_C@_02FGJGFEAB@?$CG?$DN@ 00000001400b6958     libvcruntime:undname.obj
 0002:0002595c       ??_C@_02DHLNPPGH@?$HM?$DN@ 00000001400b695c     libvcruntime:undname.obj
 0002:00025960       ??_C@_02MHEGNOJ@?$FO?$DN@  00000001400b6960     libvcruntime:undname.obj
 0002:00025968       ??_C@_09IFPLHPGF@?$GAvftable?8@ 00000001400b6968     libvcruntime:undname.obj
 0002:00025978       ??_C@_09BLBHBJP@?$GAvbtable?8@ 00000001400b6978     libvcruntime:undname.obj
 0002:00025988       ??_C@_07FEEIOKP@?$GAvcall?8@ 00000001400b6988     libvcruntime:undname.obj
 0002:00025990       ??_C@_08LLFFHHDJ@?$GAtypeof?8@ 00000001400b6990     libvcruntime:undname.obj
 0002:000259a0       ??_C@_0BF@KDPPACIK@?$GAlocal?5static?5guard?8@ 00000001400b69a0     libvcruntime:undname.obj
 0002:000259b8       ??_C@_08OBABFOLI@?$GAstring?8@ 00000001400b69b8     libvcruntime:undname.obj
 0002:000259c8       ??_C@_0BD@JDLKDPAB@?$GAvbase?5destructor?8@ 00000001400b69c8     libvcruntime:undname.obj
 0002:000259e0       ??_C@_0BN@DEGPLNFK@?$GAvector?5deleting?5destructor?8@ 00000001400b69e0     libvcruntime:undname.obj
 0002:00025a00       ??_C@_0BO@OBMKPJIG@?$GAdefault?5constructor?5closure?8@ 00000001400b6a00     libvcruntime:undname.obj
 0002:00025a20       ??_C@_0BN@IMDCHIKM@?$GAscalar?5deleting?5destructor?8@ 00000001400b6a20     libvcruntime:undname.obj
 0002:00025a40       ??_C@_0BO@PFGOCPJJ@?$GAvector?5constructor?5iterator?8@ 00000001400b6a40     libvcruntime:undname.obj
 0002:00025a60       ??_C@_0BN@LFPFMEDL@?$GAvector?5destructor?5iterator?8@ 00000001400b6a60     libvcruntime:undname.obj
 0002:00025a80       ??_C@_0CE@IKBNEHA@?$GAvector?5vbase?5constructor?5itera@ 00000001400b6a80     libvcruntime:undname.obj
 0002:00025aa8       ??_C@_0BL@NILFHHPC@?$GAvirtual?5displacement?5map?8@ 00000001400b6aa8     libvcruntime:undname.obj
 0002:00025ac8       ??_C@_0CB@JONCMFFK@?$GAeh?5vector?5constructor?5iterator@ 00000001400b6ac8     libvcruntime:undname.obj
 0002:00025af0       ??_C@_0CA@GCEOPDGL@?$GAeh?5vector?5destructor?5iterator?8@ 00000001400b6af0     libvcruntime:undname.obj
 0002:00025b10       ??_C@_0CH@OOJPLCPH@?$GAeh?5vector?5vbase?5constructor?5it@ 00000001400b6b10     libvcruntime:undname.obj
 0002:00025b38       ??_C@_0BL@LLKPOHJI@?$GAcopy?5constructor?5closure?8@ 00000001400b6b38     libvcruntime:undname.obj
 0002:00025b58       ??_C@_0BA@KBCDOMBN@?$GAudt?5returning?8@ 00000001400b6b58     libvcruntime:undname.obj
 0002:00025b68       ??_C@_03KLGMFNMG@?$GAEH@   00000001400b6b68     libvcruntime:undname.obj
 0002:00025b6c       ??_C@_05KHLCHHI@?$GARTTI@  00000001400b6b6c     libvcruntime:undname.obj
 0002:00025b78       ??_C@_0BA@KKLDJDLB@?$GAlocal?5vftable?8@ 00000001400b6b78     libvcruntime:undname.obj
 0002:00025b88       ??_C@_0CE@IIHCMGGL@?$GAlocal?5vftable?5constructor?5clos@ 00000001400b6b88     libvcruntime:undname.obj
 0002:00025bac       ??_C@_06FHBGPFGH@?5new?$FL?$FN@ 00000001400b6bac     libvcruntime:undname.obj
 0002:00025bb8       ??_C@_09LBNFPBCA@?5delete?$FL?$FN@ 00000001400b6bb8     libvcruntime:undname.obj
 0002:00025bc8       ??_C@_0P@HJKNJFNN@?$GAomni?5callsig?8@ 00000001400b6bc8     libvcruntime:undname.obj
 0002:00025bd8       ??_C@_0BL@CNOONJFP@?$GAplacement?5delete?5closure?8@ 00000001400b6bd8     libvcruntime:undname.obj
 0002:00025bf8       ??_C@_0BN@CKNJLHMB@?$GAplacement?5delete?$FL?$FN?5closure?8@ 00000001400b6bf8     libvcruntime:undname.obj
 0002:00025c18       ??_C@_0CG@CFDHKGGD@?$GAmanaged?5vector?5constructor?5ite@ 00000001400b6c18     libvcruntime:undname.obj
 0002:00025c40       ??_C@_0CF@IMGKMJNO@?$GAmanaged?5vector?5destructor?5iter@ 00000001400b6c40     libvcruntime:undname.obj
 0002:00025c68       ??_C@_0CG@HLDDJMAG@?$GAeh?5vector?5copy?5constructor?5ite@ 00000001400b6c68     libvcruntime:undname.obj
 0002:00025c90       ??_C@_0CM@FCBBDIGB@?$GAeh?5vector?5vbase?5copy?5construct@ 00000001400b6c90     libvcruntime:undname.obj
 0002:00025cc0       ??_C@_0BL@CLIPGLGB@?$GAdynamic?5initializer?5for?5?8@ 00000001400b6cc0     libvcruntime:undname.obj
 0002:00025ce0       ??_C@_0CB@PDBIFEP@?$GAdynamic?5atexit?5destructor?5for?5@ 00000001400b6ce0     libvcruntime:undname.obj
 0002:00025d08       ??_C@_0CD@CGAJBKEJ@?$GAvector?5copy?5constructor?5iterat@ 00000001400b6d08     libvcruntime:undname.obj
 0002:00025d30       ??_C@_0CJ@GJELGAMM@?$GAvector?5vbase?5copy?5constructor?5@ 00000001400b6d30     libvcruntime:undname.obj
 0002:00025d60       ??_C@_0CL@FGIJHLCE@?$GAmanaged?5vector?5copy?5constructo@ 00000001400b6d60     libvcruntime:undname.obj
 0002:00025d90       ??_C@_0BM@PMGGMLDN@?$GAlocal?5static?5thread?5guard?8@ 00000001400b6d90     libvcruntime:undname.obj
 0002:00025db0       ??_C@_0N@BDNMDMOL@operator?5?$CC?$CC?5@ 00000001400b6db0     libvcruntime:undname.obj
 0002:00025dc0       ??_C@_0BC@GGEBGALA@operator?5co_await@ 00000001400b6dc0     libvcruntime:undname.obj
 0002:00025dd8       ??_C@_0BC@DAFEJGAK@?5Type?5Descriptor?8@ 00000001400b6dd8     libvcruntime:undname.obj
 0002:00025df0       ??_C@_0BM@LDKODKLH@?5Base?5Class?5Descriptor?5at?5?$CI@ 00000001400b6df0     libvcruntime:undname.obj
 0002:00025e10       ??_C@_0BD@LGICGFMM@?5Base?5Class?5Array?8@ 00000001400b6e10     libvcruntime:undname.obj
 0002:00025e28       ??_C@_0BN@MECKDCOJ@?5Class?5Hierarchy?5Descriptor?8@ 00000001400b6e28     libvcruntime:undname.obj
 0002:00025e48       ??_C@_0BK@CFCOFLF@?5Complete?5Object?5Locator?8@ 00000001400b6e48     libvcruntime:undname.obj
 0002:00025eb0       ??_C@_1FE@LHBLIKM@?$AAA?$AAs?$AAs?$AAe?$AAr?$AAt?$AAi?$AAo?$AAn?$AA?5?$AAf?$AAa?$AAi?$AAl?$AAe?$AAd?$AA?3?$AA?5?$AA?$CF?$AAT?$AAs?$AA?0?$AA?5?$AAf?$AAi?$AAl?$AAe?$AA?5?$AA?$CF?$AAT?$AAs?$AA?0@ 00000001400b6eb0     libucrt:assert.obj
 0002:00025f10       ??_C@_1EK@MBDPDCGA@?$AAM?$AAi?$AAc?$AAr?$AAo?$AAs?$AAo?$AAf?$AAt?$AA?5?$AAV?$AAi?$AAs?$AAu?$AAa?$AAl?$AA?5?$AAC?$AA?$CL?$AA?$CL?$AA?5?$AAR?$AAu?$AAn?$AAt?$AAi?$AAm?$AAe?$AA?5?$AAL?$AAi?$AAb@ 00000001400b6f10     libucrt:assert.obj
 0002:00025f60       ??_C@_1CE@OJBNHDMO@?$AAA?$AAs?$AAs?$AAe?$AAr?$AAt?$AAi?$AAo?$AAn?$AA?5?$AAf?$AAa?$AAi?$AAl?$AAe?$AAd?$AA?$CB?$AA?$AA@ 00000001400b6f60     libucrt:assert.obj
 0002:00025f88       ??_C@_1BE@PHKBBGE@?$AAP?$AAr?$AAo?$AAg?$AAr?$AAa?$AAm?$AA?3?$AA?5?$AA?$AA@ 00000001400b6f88     libucrt:assert.obj
 0002:00025fa0       ??_C@_1O@HEMHKNDC@?$AAF?$AAi?$AAl?$AAe?$AA?3?$AA?5?$AA?$AA@ 00000001400b6fa0     libucrt:assert.obj
 0002:00025fb0       ??_C@_1O@KCAFKHJE@?$AAL?$AAi?$AAn?$AAe?$AA?3?$AA?5?$AA?$AA@ 00000001400b6fb0     libucrt:assert.obj
 0002:00025fc0       ??_C@_1BK@PEDCIPMA@?$AAE?$AAx?$AAp?$AAr?$AAe?$AAs?$AAs?$AAi?$AAo?$AAn?$AA?3?$AA?5?$AA?$AA@ 00000001400b6fc0     libucrt:assert.obj
 0002:00025fe0       ??_C@_1OA@EGMLFBHJ@?$AAF?$AAo?$AAr?$AA?5?$AAi?$AAn?$AAf?$AAo?$AAr?$AAm?$AAa?$AAt?$AAi?$AAo?$AAn?$AA?5?$AAo?$AAn?$AA?5?$AAh?$AAo?$AAw?$AA?5?$AAy?$AAo?$AAu?$AAr?$AA?5?$AAp?$AAr?$AAo?$AAg@ 00000001400b6fe0     libucrt:assert.obj
 0002:000260c0       ??_C@_1HK@POCJMFGK@?$AA?$CI?$AAP?$AAr?$AAe?$AAs?$AAs?$AA?5?$AAR?$AAe?$AAt?$AAr?$AAy?$AA?5?$AAt?$AAo?$AA?5?$AAd?$AAe?$AAb?$AAu?$AAg?$AA?5?$AAt?$AAh?$AAe?$AA?5?$AAa?$AAp?$AAp?$AAl?$AAi?$AAc@ 00000001400b70c0     libucrt:assert.obj
 0002:00026140       ??_C@_17LGKOMLJ@?$AA?4?$AA?4?$AA?4?$AA?$AA@ 00000001400b7140     libucrt:assert.obj
 0002:00026148       ??_C@_01EEMJAFIK@?6?$AA@   00000001400b7148     libucrt:assert.obj
 0002:0002614c       ??_C@_13LBAGMAIH@?$AA?6?$AA?$AA@ 00000001400b714c     libucrt:assert.obj
 0002:00026150       ??_C@_15IABLJNFO@?$AA?6?$AA?6?$AA?$AA@ 00000001400b7150     libucrt:assert.obj
 0002:00026158       ??_C@_1CO@EAEJAADC@?$AA?$DM?$AAp?$AAr?$AAo?$AAg?$AAr?$AAa?$AAm?$AA?5?$AAn?$AAa?$AAm?$AAe?$AA?5?$AAu?$AAn?$AAk?$AAn?$AAo?$AAw?$AAn?$AA?$DO?$AA?$AA@ 00000001400b7158     libucrt:assert.obj
 0002:00026188       __real@0000000000000000    00000001400b7188     libucrt:ldexp.obj
 0002:00026190       standard_lookup_table      00000001400b7190     libucrt:output.obj
 0002:000261f0       ??_C@_1O@CEDCILHN@?$AA?$CI?$AAn?$AAu?$AAl?$AAl?$AA?$CJ?$AA?$AA@ 00000001400b71f0     libucrt:output.obj
 0002:00026200       ??_C@_06OJHGLDPL@?$CInull?$CJ?$AA@ 00000001400b7200     libucrt:output.obj
 0002:00027298       __real@3f1a36e2eb1c432d    00000001400b8298     libucrt:atan2f.obj
 0002:000272a0       __real@3f490fdb            00000001400b82a0     libucrt:atan2f.obj
 0002:000272a8       __real@3fb0000000000000    00000001400b82a8     libucrt:atan2f.obj
 0002:000272b0       __real@3fc2492482bd6be1    00000001400b82b0     libucrt:atan2f.obj
 0002:000272b8       __real@3fc90fdb            00000001400b82b8     libucrt:atan2f.obj
 0002:000272c0       __real@3fc99999999643a3    00000001400b82c0     libucrt:atan2f.obj
 0002:000272c8       __real@3fd5555555550877    00000001400b82c8     libucrt:atan2f.obj
 0002:000272d0       __real@3fd5555555555538    00000001400b82d0     libucrt:atan2f.obj
 0002:000272d8       __real@3ff921fb54442d18    00000001400b82d8     libucrt:atan2f.obj
 0002:000272e0       __real@400921fb54442d18    00000001400b82e0     libucrt:atan2f.obj
 0002:000272e8       __real@4016cbe4            00000001400b82e8     libucrt:atan2f.obj
 0002:000272ec       __real@40490fdb            00000001400b82ec     libucrt:atan2f.obj
 0002:000272f0       __real@4070000000000000    00000001400b82f0     libucrt:atan2f.obj
 0002:000272f8       __real@80000000            00000001400b82f8     libucrt:atan2f.obj
 0002:000272fc       __real@bf490fdb            00000001400b82fc     libucrt:atan2f.obj
 0002:00027300       __real@bfc90fdb            00000001400b8300     libucrt:atan2f.obj
 0002:00027304       __real@c016cbe4            00000001400b8304     libucrt:atan2f.obj
 0002:00027308       __real@c0490fdb            00000001400b8308     libucrt:atan2f.obj
 0002:00027560       ??_C@_05KGFAIMPG@sqrtf?$AA@ 00000001400b8560     libucrt:sqrtf.obj
 0002:000276e0       ?large_power_data@?1??multiply_by_power_of_ten@__crt_strtox@@YA_NAEAUbig_integer@2@I@Z@4QBIB 00000001400b86e0     libucrt:atof.obj
 0002:00027ff0       ?large_power_indices@?1??multiply_by_power_of_ten@__crt_strtox@@YA_NAEAUbig_integer@2@I@Z@4QBUunpack_index@?1??12@YA_N0I@Z@B 00000001400b8ff0     libucrt:atof.obj
 0002:00028088       ?small_powers_of_ten@?1??multiply_by_power_of_ten@__crt_strtox@@YA_NAEAUbig_integer@2@I@Z@4QBIB 00000001400b9088     libucrt:atof.obj
 0002:000280b0       ??_C@_1GE@DPGDJKLM@?$AAm?$AAi?$AAn?$AAk?$AAe?$AAr?$AAn?$AAe?$AAl?$AA?2?$AAc?$AAr?$AAt?$AAs?$AA?2?$AAu?$AAc?$AAr?$AAt?$AA?2?$AAi?$AAn?$AAc?$AA?2?$AAc?$AAo?$AAr?$AAe?$AAc?$AAr?$AAt?$AA_@ 00000001400b90b0     libucrt:atof.obj
 0002:00028120       ??_C@_1FM@FELNCOBF@?$AA_?$AA_?$AAc?$AAr?$AAt?$AA_?$AAs?$AAt?$AAr?$AAt?$AAo?$AAx?$AA?3?$AA?3?$AAf?$AAl?$AAo?$AAa?$AAt?$AAi?$AAn?$AAg?$AA_?$AAp?$AAo?$AAi?$AAn?$AAt?$AA_?$AAv?$AAa?$AAl@ 00000001400b9120     libucrt:atof.obj
 0002:00028180       ??_C@_1BG@GEMHBGAF@?$AA_?$AAi?$AAs?$AA_?$AAd?$AAo?$AAu?$AAb?$AAl?$AAe?$AA?$AA@ 00000001400b9180     libucrt:atof.obj
 0002:000281a0       ??_C@_1FK@JOJELFFO@?$AA_?$AA_?$AAc?$AAr?$AAt?$AA_?$AAs?$AAt?$AAr?$AAt?$AAo?$AAx?$AA?3?$AA?3?$AAf?$AAl?$AAo?$AAa?$AAt?$AAi?$AAn?$AAg?$AA_?$AAp?$AAo?$AAi?$AAn?$AAt?$AA_?$AAv?$AAa?$AAl@ 00000001400b91a0     libucrt:atof.obj
 0002:00028200       ??_C@_1BI@BANMPGJI@?$AA?$CB?$AA_?$AAi?$AAs?$AA_?$AAd?$AAo?$AAu?$AAb?$AAl?$AAe?$AA?$AA@ 00000001400b9200     libucrt:atof.obj
 0002:00028218       ?inf_uppercase@?1???$parse_floating_point_possible_infinity@DV?$c_string_character_source@D@__crt_strtox@@PEBD@__crt_strtox@@YA?AW4floating_point_parse_result@1@AEADAEAV?$c_string_character_source@D@1@PEBD@Z@4QBDB 00000001400b9218     libucrt:atof.obj
 0002:0002821c       ?inf_lowercase@?1???$parse_floating_point_possible_infinity@DV?$c_string_character_source@D@__crt_strtox@@PEBD@__crt_strtox@@YA?AW4floating_point_parse_result@1@AEADAEAV?$c_string_character_source@D@1@PEBD@Z@4QBDB 00000001400b921c     libucrt:atof.obj
 0002:00028220       ?inity_uppercase@?1???$parse_floating_point_possible_infinity@DV?$c_string_character_source@D@__crt_strtox@@PEBD@__crt_strtox@@YA?AW4floating_point_parse_result@1@AEADAEAV?$c_string_character_source@D@1@PEBD@Z@4QBDB 00000001400b9220     libucrt:atof.obj
 0002:00028228       ?inity_lowercase@?1???$parse_floating_point_possible_infinity@DV?$c_string_character_source@D@__crt_strtox@@PEBD@__crt_strtox@@YA?AW4floating_point_parse_result@1@AEADAEAV?$c_string_character_source@D@1@PEBD@Z@4QBDB 00000001400b9228     libucrt:atof.obj
 0002:00028230       ?uppercase@?1???$parse_floating_point_possible_nan@DV?$c_string_character_source@D@__crt_strtox@@PEBD@__crt_strtox@@YA?AW4floating_point_parse_result@1@AEADAEAV?$c_string_character_source@D@1@PEBD@Z@4QBDB 00000001400b9230     libucrt:atof.obj
 0002:00028234       ?lowercase@?1???$parse_floating_point_possible_nan@DV?$c_string_character_source@D@__crt_strtox@@PEBD@__crt_strtox@@YA?AW4floating_point_parse_result@1@AEADAEAV?$c_string_character_source@D@1@PEBD@Z@4QBDB 00000001400b9234     libucrt:atof.obj
 0002:00028238       ?uppercase@?1???$parse_floating_point_possible_nan_is_snan@DV?$c_string_character_source@D@__crt_strtox@@@__crt_strtox@@YA_NAEADAEAV?$c_string_character_source@D@1@@Z@4QBDB 00000001400b9238     libucrt:atof.obj
 0002:00028240       ?lowercase@?1???$parse_floating_point_possible_nan_is_snan@DV?$c_string_character_source@D@__crt_strtox@@@__crt_strtox@@YA_NAEADAEAV?$c_string_character_source@D@1@@Z@4QBDB 00000001400b9240     libucrt:atof.obj
 0002:00028248       ?uppercase@?1???$parse_floating_point_possible_nan_is_ind@DV?$c_string_character_source@D@__crt_strtox@@@__crt_strtox@@YA_NAEADAEAV?$c_string_character_source@D@1@@Z@4QBDB 00000001400b9248     libucrt:atof.obj
 0002:0002824c       ?lowercase@?1???$parse_floating_point_possible_nan_is_ind@DV?$c_string_character_source@D@__crt_strtox@@@__crt_strtox@@YA_NAEADAEAV?$c_string_character_source@D@1@@Z@4QBDB 00000001400b924c     libucrt:atof.obj
 0002:00028250       ??_C@_19DOGDICKI@?$AA?4?$AAe?$AAx?$AAe?$AA?$AA@ 00000001400b9250     libucrt:stat.obj
 0002:00028260       ??_C@_19BDKLHPGC@?$AA?4?$AAc?$AAm?$AAd?$AA?$AA@ 00000001400b9260     libucrt:stat.obj
 0002:00028270       ??_C@_19PINKOIBI@?$AA?4?$AAb?$AAa?$AAt?$AA?$AA@ 00000001400b9270     libucrt:stat.obj
 0002:00028280       ??_C@_19CDGLJBOD@?$AA?4?$AAc?$AAo?$AAm?$AA?$AA@ 00000001400b9280     libucrt:stat.obj
 0002:00028290       ??_C@_17BAAFHAL@?$AA?4?$AA?1?$AA?2?$AA?$AA@ 00000001400b9290     libucrt:stat.obj
 0002:000282a0       ??_C@_0EA@FCLIIPNN@Visual?5C?$CL?$CL?5CRT?3?5Not?5enough?5memor@ 00000001400b92a0     libucrt:strerror.obj
 0002:000282e0       ??_C@_1BI@BGOHAHKC@?$AAm?$AAs?$AAc?$AAo?$AAr?$AAe?$AAe?$AA?4?$AAd?$AAl?$AAl?$AA?$AA@ 00000001400b92e0     libucrt:exit.obj
 0002:000282f8       ??_C@_0P@MIGLKIOC@CorExitProcess?$AA@ 00000001400b92f8     libucrt:exit.obj
 0002:00028308       ??_C@_02LMMGGCAJ@?3?5?$AA@ 00000001400b9308     libucrt:perror.obj
 0002:00028310       ?constraints@?1??is_length_valid@__crt_stdio_input@@YA_NW4conversion_mode@2@W4length_modifier@2@@Z@4QAY0M@$$CBEA 00000001400b9310     libucrt:input.obj
 0002:00028388       ?inf_uppercase@?1???$parse_floating_point_possible_infinity@DV?$input_adapter_character_source@V?$string_input_adapter@D@__crt_stdio_input@@@__crt_strtox@@_K@__crt_strtox@@YA?AW4floating_point_parse_result@1@AEADAEAV?$input_adapter_character_source@V?$string_input_adapter@D@__crt_stdio_input@@@1@_K@Z@4QBDB 00000001400b9388     libucrt:input.obj
 0002:0002838c       ?inf_lowercase@?1???$parse_floating_point_possible_infinity@DV?$input_adapter_character_source@V?$string_input_adapter@D@__crt_stdio_input@@@__crt_strtox@@_K@__crt_strtox@@YA?AW4floating_point_parse_result@1@AEADAEAV?$input_adapter_character_source@V?$string_input_adapter@D@__crt_stdio_input@@@1@_K@Z@4QBDB 00000001400b938c     libucrt:input.obj
 0002:00028390       ?inity_uppercase@?1???$parse_floating_point_possible_infinity@DV?$input_adapter_character_source@V?$string_input_adapter@D@__crt_stdio_input@@@__crt_strtox@@_K@__crt_strtox@@YA?AW4floating_point_parse_result@1@AEADAEAV?$input_adapter_character_source@V?$string_input_adapter@D@__crt_stdio_input@@@1@_K@Z@4QBDB 00000001400b9390     libucrt:input.obj
 0002:00028398       ?inity_lowercase@?1???$parse_floating_point_possible_infinity@DV?$input_adapter_character_source@V?$string_input_adapter@D@__crt_stdio_input@@@__crt_strtox@@_K@__crt_strtox@@YA?AW4floating_point_parse_result@1@AEADAEAV?$input_adapter_character_source@V?$string_input_adapter@D@__crt_stdio_input@@@1@_K@Z@4QBDB 00000001400b9398     libucrt:input.obj
 0002:000283a0       ?uppercase@?1???$parse_floating_point_possible_nan@DV?$input_adapter_character_source@V?$string_input_adapter@D@__crt_stdio_input@@@__crt_strtox@@_K@__crt_strtox@@YA?AW4floating_point_parse_result@1@AEADAEAV?$input_adapter_character_source@V?$string_input_adapter@D@__crt_stdio_input@@@1@_K@Z@4QBDB 00000001400b93a0     libucrt:input.obj
 0002:000283a4       ?lowercase@?1???$parse_floating_point_possible_nan@DV?$input_adapter_character_source@V?$string_input_adapter@D@__crt_stdio_input@@@__crt_strtox@@_K@__crt_strtox@@YA?AW4floating_point_parse_result@1@AEADAEAV?$input_adapter_character_source@V?$string_input_adapter@D@__crt_stdio_input@@@1@_K@Z@4QBDB 00000001400b93a4     libucrt:input.obj
 0002:000283a8       ?uppercase@?1???$parse_floating_point_possible_nan_is_snan@DV?$input_adapter_character_source@V?$string_input_adapter@D@__crt_stdio_input@@@__crt_strtox@@@__crt_strtox@@YA_NAEADAEAV?$input_adapter_character_source@V?$string_input_adapter@D@__crt_stdio_input@@@1@@Z@4QBDB 00000001400b93a8     libucrt:input.obj
 0002:000283b0       ?lowercase@?1???$parse_floating_point_possible_nan_is_snan@DV?$input_adapter_character_source@V?$string_input_adapter@D@__crt_stdio_input@@@__crt_strtox@@@__crt_strtox@@YA_NAEADAEAV?$input_adapter_character_source@V?$string_input_adapter@D@__crt_stdio_input@@@1@@Z@4QBDB 00000001400b93b0     libucrt:input.obj
 0002:000283b8       ?uppercase@?1???$parse_floating_point_possible_nan_is_ind@DV?$input_adapter_character_source@V?$string_input_adapter@D@__crt_stdio_input@@@__crt_strtox@@@__crt_strtox@@YA_NAEADAEAV?$input_adapter_character_source@V?$string_input_adapter@D@__crt_stdio_input@@@1@@Z@4QBDB 00000001400b93b8     libucrt:input.obj
 0002:000283bc       ?lowercase@?1???$parse_floating_point_possible_nan_is_ind@DV?$input_adapter_character_source@V?$string_input_adapter@D@__crt_stdio_input@@@__crt_strtox@@@__crt_strtox@@YA_NAEADAEAV?$input_adapter_character_source@V?$string_input_adapter@D@__crt_stdio_input@@@1@@Z@4QBDB 00000001400b93bc     libucrt:input.obj
 0002:000283c0       __acrt_exception_action_table 00000001400b93c0     libucrt:exception_filter.obj
 0002:00028480       __acrt_signal_action_table_count 00000001400b9480     libucrt:exception_filter.obj
 0002:00028488       __acrt_signal_action_first_fpe_index 00000001400b9488     libucrt:exception_filter.obj
 0002:00028490       __acrt_signal_action_fpe_count 00000001400b9490     libucrt:exception_filter.obj
 0002:000285a0       __newctype                 00000001400b95a0     libucrt:ctype.obj
 0002:000288a0       __newclmap                 00000001400b98a0     libucrt:ctype.obj
 0002:00028a20       __newcumap                 00000001400b9a20     libucrt:ctype.obj
 0002:00028ba0       _wctype                    00000001400b9ba0     libucrt:ctype.obj
 0002:00028db0       __lc_time_c                00000001400b9db0     libucrt:nlsdata.obj
 0002:00029070       ??_C@_03KOEHGMDN@Sun?$AA@  00000001400ba070     libucrt:nlsdata.obj
 0002:00029074       ??_C@_03PDAGKDH@Mon?$AA@   00000001400ba074     libucrt:nlsdata.obj
 0002:00029078       ??_C@_03NAGEINEP@Tue?$AA@  00000001400ba078     libucrt:nlsdata.obj
 0002:0002907c       ??_C@_03MHOMLAJA@Wed?$AA@  00000001400ba07c     libucrt:nlsdata.obj
 0002:00029080       ??_C@_03IOFIKPDN@Thu?$AA@  00000001400ba080     libucrt:nlsdata.obj
 0002:00029084       ??_C@_03IDIOELNC@Fri?$AA@  00000001400ba084     libucrt:nlsdata.obj
 0002:00029088       ??_C@_03FEFJNEK@Sat?$AA@   00000001400ba088     libucrt:nlsdata.obj
 0002:0002908c       ??_C@_06OOPIFAJ@Sunday?$AA@ 00000001400ba08c     libucrt:nlsdata.obj
 0002:00029094       ??_C@_06JLEDEDGH@Monday?$AA@ 00000001400ba094     libucrt:nlsdata.obj
 0002:000290a0       ??_C@_07BAAGCFCM@Tuesday?$AA@ 00000001400ba0a0     libucrt:nlsdata.obj
 0002:000290a8       ??_C@_09DLIGFAKA@Wednesday?$AA@ 00000001400ba0a8     libucrt:nlsdata.obj
 0002:000290b8       ??_C@_08HACCIKIA@Thursday?$AA@ 00000001400ba0b8     libucrt:nlsdata.obj
 0002:000290c4       ??_C@_06JECMNKMI@Friday?$AA@ 00000001400ba0c4     libucrt:nlsdata.obj
 0002:000290d0       ??_C@_08INBOOONO@Saturday?$AA@ 00000001400ba0d0     libucrt:nlsdata.obj
 0002:000290dc       ??_C@_03JIHJHPIE@Jan?$AA@  00000001400ba0dc     libucrt:nlsdata.obj
 0002:000290e0       ??_C@_03HJBDCHOM@Feb?$AA@  00000001400ba0e0     libucrt:nlsdata.obj
 0002:000290e4       ??_C@_03ODNJBKGA@Mar?$AA@  00000001400ba0e4     libucrt:nlsdata.obj
 0002:000290e8       ??_C@_03LEOLGMJP@Apr?$AA@  00000001400ba0e8     libucrt:nlsdata.obj
 0002:000290ec       ??_C@_03CNMDKL@May?$AA@    00000001400ba0ec     libucrt:nlsdata.obj
 0002:000290f0       ??_C@_03IDFGHECI@Jun?$AA@  00000001400ba0f0     libucrt:nlsdata.obj
 0002:000290f4       ??_C@_03LBGABGKK@Jul?$AA@  00000001400ba0f4     libucrt:nlsdata.obj
 0002:000290f8       ??_C@_03IFJFEIGA@Aug?$AA@  00000001400ba0f8     libucrt:nlsdata.obj
 0002:000290fc       ??_C@_03GGCAPAJC@Sep?$AA@  00000001400ba0fc     libucrt:nlsdata.obj
 0002:00029100       ??_C@_03BMAOKBAD@Oct?$AA@  00000001400ba100     libucrt:nlsdata.obj
 0002:00029104       ??_C@_03JPJOFNIA@Nov?$AA@  00000001400ba104     libucrt:nlsdata.obj
 0002:00029108       ??_C@_03MKABNOCG@Dec?$AA@  00000001400ba108     libucrt:nlsdata.obj
 0002:00029110       ??_C@_07CGJPFGJA@January?$AA@ 00000001400ba110     libucrt:nlsdata.obj
 0002:00029118       ??_C@_08GNJGEPFN@February?$AA@ 00000001400ba118     libucrt:nlsdata.obj
 0002:00029124       ??_C@_05HPCKOFNC@March?$AA@ 00000001400ba124     libucrt:nlsdata.obj
 0002:0002912c       ??_C@_05DMJDNLEJ@April?$AA@ 00000001400ba12c     libucrt:nlsdata.obj
 0002:00029134       ??_C@_04CNLMGBGM@June?$AA@ 00000001400ba134     libucrt:nlsdata.obj
 0002:0002913c       ??_C@_04MIEPOIFP@July?$AA@ 00000001400ba13c     libucrt:nlsdata.obj
 0002:00029144       ??_C@_06LBBHFDDG@August?$AA@ 00000001400ba144     libucrt:nlsdata.obj
 0002:00029150       ??_C@_09BHHEALKD@September?$AA@ 00000001400ba150     libucrt:nlsdata.obj
 0002:00029160       ??_C@_07JJNFCEND@October?$AA@ 00000001400ba160     libucrt:nlsdata.obj
 0002:00029168       ??_C@_08HCHEGEOA@November?$AA@ 00000001400ba168     libucrt:nlsdata.obj
 0002:00029178       ??_C@_08EDHMEBNP@December?$AA@ 00000001400ba178     libucrt:nlsdata.obj
 0002:00029184       ??_C@_02DEDBPAFC@AM?$AA@   00000001400ba184     libucrt:nlsdata.obj
 0002:00029188       ??_C@_02CJNFDJBF@PM?$AA@   00000001400ba188     libucrt:nlsdata.obj
 0002:00029190       ??_C@_08BPBNCDIB@MM?1dd?1yy?$AA@ 00000001400ba190     libucrt:nlsdata.obj
 0002:000291a0       ??_C@_0BE@CKGJFCPC@dddd?0?5MMMM?5dd?0?5yyyy?$AA@ 00000001400ba1a0     libucrt:nlsdata.obj
 0002:000291b8       ??_C@_08JCCMCCIL@HH?3mm?3ss?$AA@ 00000001400ba1b8     libucrt:nlsdata.obj
 0002:000291c8       ??_C@_17MBGCMIPB@?$AAS?$AAu?$AAn?$AA?$AA@ 00000001400ba1c8     libucrt:nlsdata.obj
 0002:000291d0       ??_C@_17KBOMKBF@?$AAM?$AAo?$AAn?$AA?$AA@ 00000001400ba1d0     libucrt:nlsdata.obj
 0002:000291d8       ??_C@_17BMKGEGOJ@?$AAT?$AAu?$AAe?$AA?$AA@ 00000001400ba1d8     libucrt:nlsdata.obj
 0002:000291e0       ??_C@_17CJEDCEPE@?$AAW?$AAe?$AAd?$AA?$AA@ 00000001400ba1e0     libucrt:nlsdata.obj
 0002:000291e8       ??_C@_17PDPHAADD@?$AAT?$AAh?$AAu?$AA?$AA@ 00000001400ba1e8     libucrt:nlsdata.obj
 0002:000291f0       ??_C@_17HFOLPPLP@?$AAF?$AAr?$AAi?$AA?$AA@ 00000001400ba1f0     libucrt:nlsdata.obj
 0002:000291f8       ??_C@_17GGIBDPIH@?$AAS?$AAa?$AAt?$AA?$AA@ 00000001400ba1f8     libucrt:nlsdata.obj
 0002:00029200       ??_C@_1O@IHNHDHPB@?$AAS?$AAu?$AAn?$AAd?$AAa?$AAy?$AA?$AA@ 00000001400ba200     libucrt:nlsdata.obj
 0002:00029210       ??_C@_1O@MMNBFLIA@?$AAM?$AAo?$AAn?$AAd?$AAa?$AAy?$AA?$AA@ 00000001400ba210     libucrt:nlsdata.obj
 0002:00029220       ??_C@_1BA@ENFBFFEK@?$AAT?$AAu?$AAe?$AAs?$AAd?$AAa?$AAy?$AA?$AA@ 00000001400ba220     libucrt:nlsdata.obj
 0002:00029230       ??_C@_1BE@EBOGMDOH@?$AAW?$AAe?$AAd?$AAn?$AAe?$AAs?$AAd?$AAa?$AAy?$AA?$AA@ 00000001400ba230     libucrt:nlsdata.obj
 0002:00029248       ??_C@_1BC@HHMNLIHE@?$AAT?$AAh?$AAu?$AAr?$AAs?$AAd?$AAa?$AAy?$AA?$AA@ 00000001400ba248     libucrt:nlsdata.obj
 0002:00029260       ??_C@_1O@PDICJHAG@?$AAF?$AAr?$AAi?$AAd?$AAa?$AAy?$AA?$AA@ 00000001400ba260     libucrt:nlsdata.obj
 0002:00029270       ??_C@_1BC@ENMNNPAJ@?$AAS?$AAa?$AAt?$AAu?$AAr?$AAd?$AAa?$AAy?$AA?$AA@ 00000001400ba270     libucrt:nlsdata.obj
 0002:00029288       ??_C@_17DKNBKCHM@?$AAJ?$AAa?$AAn?$AA?$AA@ 00000001400ba288     libucrt:nlsdata.obj
 0002:00029290       ??_C@_17LMDJEKJN@?$AAF?$AAe?$AAb?$AA?$AA@ 00000001400ba290     libucrt:nlsdata.obj
 0002:00029298       ??_C@_17CKNLEDEC@?$AAM?$AAa?$AAr?$AA?$AA@ 00000001400ba298     libucrt:nlsdata.obj
 0002:000292a0       ??_C@_17LFPOIHDD@?$AAA?$AAp?$AAr?$AA?$AA@ 00000001400ba2a0     libucrt:nlsdata.obj
 0002:000292a8       ??_C@_17PNNKMEED@?$AAM?$AAa?$AAy?$AA?$AA@ 00000001400ba2a8     libucrt:nlsdata.obj
 0002:000292b0       ??_C@_17KCJGOCPB@?$AAJ?$AAu?$AAn?$AA?$AA@ 00000001400ba2b0     libucrt:nlsdata.obj
 0002:000292b8       ??_C@_17IJPCKHK@?$AAJ?$AAu?$AAl?$AA?$AA@ 00000001400ba2b8     libucrt:nlsdata.obj
 0002:000292c0       ??_C@_17ICPELBCN@?$AAA?$AAu?$AAg?$AA?$AA@ 00000001400ba2c0     libucrt:nlsdata.obj
 0002:000292c8       ??_C@_17HCHCOKMG@?$AAS?$AAe?$AAp?$AA?$AA@ 00000001400ba2c8     libucrt:nlsdata.obj
 0002:000292d0       ??_C@_17FNLKOI@?$AAO?$AAc?$AAt?$AA?$AA@ 00000001400ba2d0     libucrt:nlsdata.obj
 0002:000292d8       ??_C@_17BBDMLCIG@?$AAN?$AAo?$AAv?$AA?$AA@ 00000001400ba2d8     libucrt:nlsdata.obj
 0002:000292e0       ??_C@_17EGKACKIF@?$AAD?$AAe?$AAc?$AA?$AA@ 00000001400ba2e0     libucrt:nlsdata.obj
 0002:000292e8       ??_C@_1BA@EFMEIEBA@?$AAJ?$AAa?$AAn?$AAu?$AAa?$AAr?$AAy?$AA?$AA@ 00000001400ba2e8     libucrt:nlsdata.obj
 0002:000292f8       ??_C@_1BC@JGDDFFAM@?$AAF?$AAe?$AAb?$AAr?$AAu?$AAa?$AAr?$AAy?$AA?$AA@ 00000001400ba2f8     libucrt:nlsdata.obj
 0002:00029310       ??_C@_1M@IKEENEDF@?$AAM?$AAa?$AAr?$AAc?$AAh?$AA?$AA@ 00000001400ba310     libucrt:nlsdata.obj
 0002:00029320       ??_C@_1M@GJNLMHFD@?$AAA?$AAp?$AAr?$AAi?$AAl?$AA?$AA@ 00000001400ba320     libucrt:nlsdata.obj
 0002:00029330       ??_C@_19EPFLPGAP@?$AAJ?$AAu?$AAn?$AAe?$AA?$AA@ 00000001400ba330     libucrt:nlsdata.obj
 0002:00029340       ??_C@_19BIFMLPCD@?$AAJ?$AAu?$AAl?$AAy?$AA?$AA@ 00000001400ba340     libucrt:nlsdata.obj
 0002:00029350       ??_C@_1O@PAHLKOAC@?$AAA?$AAu?$AAg?$AAu?$AAs?$AAt?$AA?$AA@ 00000001400ba350     libucrt:nlsdata.obj
 0002:00029360       ??_C@_1BE@DKAAMBJL@?$AAS?$AAe?$AAp?$AAt?$AAe?$AAm?$AAb?$AAe?$AAr?$AA?$AA@ 00000001400ba360     libucrt:nlsdata.obj
 0002:00029378       ??_C@_1BA@EPANDLNG@?$AAO?$AAc?$AAt?$AAo?$AAb?$AAe?$AAr?$AA?$AA@ 00000001400ba378     libucrt:nlsdata.obj
 0002:00029388       ??_C@_1BC@BGLIFPF@?$AAN?$AAo?$AAv?$AAe?$AAm?$AAb?$AAe?$AAr?$AA?$AA@ 00000001400ba388     libucrt:nlsdata.obj
 0002:000293a0       ??_C@_1BC@FEMKIFH@?$AAD?$AAe?$AAc?$AAe?$AAm?$AAb?$AAe?$AAr?$AA?$AA@ 00000001400ba3a0     libucrt:nlsdata.obj
 0002:000293b4       ??_C@_15ODEHAHHF@?$AAA?$AAM?$AA?$AA@ 00000001400ba3b4     libucrt:nlsdata.obj
 0002:000293bc       ??_C@_15CLMNNGEL@?$AAP?$AAM?$AA?$AA@ 00000001400ba3bc     libucrt:nlsdata.obj
 0002:000293c8       ??_C@_1BC@IEBCMHCM@?$AAM?$AAM?$AA?1?$AAd?$AAd?$AA?1?$AAy?$AAy?$AA?$AA@ 00000001400ba3c8     libucrt:nlsdata.obj
 0002:000293e0       ??_C@_1CI@KNAKOEBC@?$AAd?$AAd?$AAd?$AAd?$AA?0?$AA?5?$AAM?$AAM?$AAM?$AAM?$AA?5?$AAd?$AAd?$AA?0?$AA?5?$AAy?$AAy?$AAy?$AAy?$AA?$AA@ 00000001400ba3e0     libucrt:nlsdata.obj
 0002:00029408       ??_C@_1BC@GDGBMEMK@?$AAH?$AAH?$AA?3?$AAm?$AAm?$AA?3?$AAs?$AAs?$AA?$AA@ 00000001400ba408     libucrt:nlsdata.obj
 0002:00029420       ??_C@_1M@BMHNFIME@?$AAe?$AAn?$AA?9?$AAU?$AAS?$AA?$AA@ 00000001400ba420     libucrt:nlsdata.obj
 0002:00029430       _d_inf                     00000001400ba430     libucrt:util.obj
 0002:00029438       _d_max                     00000001400ba438     libucrt:util.obj
 0002:00029610       ??_C@_03KHJOGHMM@exp?$AA@  00000001400ba610     libucrt:fpexcept.obj
 0002:00029614       ??_C@_03JGHBODFD@pow?$AA@  00000001400ba614     libucrt:fpexcept.obj
 0002:00029618       ??_C@_03MGHMBJCF@log?$AA@  00000001400ba618     libucrt:fpexcept.obj
 0002:0002961c       ??_C@_05HGHHAHAP@log10?$AA@ 00000001400ba61c     libucrt:fpexcept.obj
 0002:00029624       ??_C@_04COOMCNPB@sinh?$AA@ 00000001400ba624     libucrt:fpexcept.obj
 0002:0002962c       ??_C@_04HPJJNFIM@cosh?$AA@ 00000001400ba62c     libucrt:fpexcept.obj
 0002:00029634       ??_C@_04FJHINJAO@tanh?$AA@ 00000001400ba634     libucrt:fpexcept.obj
 0002:0002963c       ??_C@_04FIHNOPOL@asin?$AA@ 00000001400ba63c     libucrt:fpexcept.obj
 0002:00029644       ??_C@_04PDIFKINK@acos?$AA@ 00000001400ba644     libucrt:fpexcept.obj
 0002:0002964c       ??_C@_04MLLJIGOK@atan?$AA@ 00000001400ba64c     libucrt:fpexcept.obj
 0002:00029654       ??_C@_05KNGEOGJB@atan2?$AA@ 00000001400ba654     libucrt:fpexcept.obj
 0002:0002965c       ??_C@_04EIAKFFMI@sqrt?$AA@ 00000001400ba65c     libucrt:fpexcept.obj
 0002:00029664       ??_C@_03BLEJJJBH@sin?$AA@  00000001400ba664     libucrt:fpexcept.obj
 0002:00029668       ??_C@_03LALBNOCG@cos?$AA@  00000001400ba668     libucrt:fpexcept.obj
 0002:0002966c       ??_C@_03IIINPABG@tan?$AA@  00000001400ba66c     libucrt:fpexcept.obj
 0002:00029670       ??_C@_04GFPJNGEK@ceil?$AA@ 00000001400ba670     libucrt:fpexcept.obj
 0002:00029678       ??_C@_05PBJFFIGL@floor?$AA@ 00000001400ba678     libucrt:fpexcept.obj
 0002:00029680       ??_C@_04ODHECPBC@fabs?$AA@ 00000001400ba680     libucrt:fpexcept.obj
 0002:00029688       ??_C@_04EHEDPDJG@modf?$AA@ 00000001400ba688     libucrt:fpexcept.obj
 0002:00029690       ??_C@_05CEJMAHNP@ldexp?$AA@ 00000001400ba690     libucrt:fpexcept.obj
 0002:00029698       ??_C@_05KBKMEMPO@_cabs?$AA@ 00000001400ba698     libucrt:fpexcept.obj
 0002:000296a0       ??_C@_06MEIMCGCF@_hypot?$AA@ 00000001400ba6a0     libucrt:fpexcept.obj
 0002:000296a8       ??_C@_04KEPJIHGP@fmod?$AA@ 00000001400ba6a8     libucrt:fpexcept.obj
 0002:000296b0       ??_C@_05GKKHEGJL@frexp?$AA@ 00000001400ba6b0     libucrt:fpexcept.obj
 0002:000296b8       ??_C@_03MJLDFKDL@_y0?$AA@  00000001400ba6b8     libucrt:fpexcept.obj
 0002:000296bc       ??_C@_03NAKIGLHK@_y1?$AA@  00000001400ba6bc     libucrt:fpexcept.obj
 0002:000296c0       ??_C@_03ONILCKOB@_yn?$AA@  00000001400ba6c0     libucrt:fpexcept.obj
 0002:000296c4       ??_C@_05JGDBENOH@_logb?$AA@ 00000001400ba6c4     libucrt:fpexcept.obj
 0002:000296d0       ??_C@_0L@KDOEJCKC@_nextafter?$AA@ 00000001400ba6d0     libucrt:fpexcept.obj
 0002:000296dc       ?ccs@?1???$__acrt_stdio_parse_mode@D@@YA?AU__acrt_stdio_stream_mode@@QEBD@Z@4QBDB 00000001400ba6dc     libucrt:openfile.obj
 0002:000296e0       ?utf8_encoding@?1???$__acrt_stdio_parse_mode@D@@YA?AU__acrt_stdio_stream_mode@@QEBD@Z@4QBDB 00000001400ba6e0     libucrt:openfile.obj
 0002:000296e8       ?utf16_encoding@?1???$__acrt_stdio_parse_mode@D@@YA?AU__acrt_stdio_stream_mode@@QEBD@Z@4QBDB 00000001400ba6e8     libucrt:openfile.obj
 0002:000296f0       ?unicode_encoding@?1???$__acrt_stdio_parse_mode@D@@YA?AU__acrt_stdio_stream_mode@@QEBD@Z@4QBDB 00000001400ba6f0     libucrt:openfile.obj
 0002:000296f8       ??_C@_03OEIAHPBN@INF?$AA@  00000001400ba6f8     libucrt:cvt.obj
 0002:000296fc       ??_C@_03OJHLLCGB@inf?$AA@  00000001400ba6fc     libucrt:cvt.obj
 0002:00029700       ??_C@_03LKNCIKJB@NAN?$AA@  00000001400ba700     libucrt:cvt.obj
 0002:00029704       ??_C@_03LHCJEHON@nan?$AA@  00000001400ba704     libucrt:cvt.obj
 0002:00029708       ??_C@_09OFJJIMPC@NAN?$CISNAN?$CJ?$AA@ 00000001400ba708     libucrt:cvt.obj
 0002:00029718       ??_C@_09IPFBKMDL@nan?$CIsnan?$CJ?$AA@ 00000001400ba718     libucrt:cvt.obj
 0002:00029728       ??_C@_08IKHNHAJ@NAN?$CIIND?$CJ?$AA@ 00000001400ba728     libucrt:cvt.obj
 0002:00029738       ??_C@_08OFCDMILK@nan?$CIind?$CJ?$AA@ 00000001400ba738     libucrt:cvt.obj
 0002:00029744       ??_C@_05KLBDPFGC@e?$CL000?$AA@ 00000001400ba744     libucrt:cvt.obj
 0002:00029750       __two_to_jby64_table       00000001400ba750     libucrt:two_to_jby64_table.obj
 0002:00029950       __log_F_inv_qword          00000001400ba950     libucrt:log_f_inv_qword_table.obj
 0002:0002a160       ??_C@_04MBFDLNIM@powf?$AA@ 00000001400bb160     libucrt:pow_special.obj
 0002:0002a2e0       ??_C@_04LAGPAAHP@sinf?$AA@ 00000001400bb2e0     libucrt:sincos_special.obj
 0002:0002a2e8       ??_C@_04OBBKPIAC@cosf?$AA@ 00000001400bb2e8     libucrt:sincos_special.obj
 0002:0002a2f0       __Lcosfarray               00000001400bb2f0     libucrt:lsincosf_array.obj
 0002:0002a320       __Lsinfarray               00000001400bb320     libucrt:lsincosf_array.obj
 0002:0002a340       __L_2_by_pi_bits           00000001400bb340     libucrt:l2_by_pi_bits.obj
 0002:0002a490       ??_C@_02CLFPBFFP@TZ?$AA@   00000001400bb490     libucrt:tzset.obj
 0002:0002a498       _days                      00000001400bb498     libucrt:days.obj
 0002:0002a4d0       _lpdays                    00000001400bb4d0     libucrt:days.obj
 0002:0002a5b0       ??_C@_1EA@JGEFHKEI@?$AAa?$AAp?$AAi?$AA?9?$AAm?$AAs?$AA?9?$AAw?$AAi?$AAn?$AA?9?$AAc?$AAo?$AAr?$AAe?$AA?9?$AAd?$AAa?$AAt?$AAe?$AAt?$AAi?$AAm?$AAe?$AA?9?$AAl?$AA1?$AA?9?$AA1?$AA?9?$AA1?$AA?$AA@ 00000001400bb5b0     libucrt:winapi_thunks.obj
 0002:0002a5f0       ??_C@_1DM@KHCHBNEB@?$AAa?$AAp?$AAi?$AA?9?$AAm?$AAs?$AA?9?$AAw?$AAi?$AAn?$AA?9?$AAc?$AAo?$AAr?$AAe?$AA?9?$AAf?$AAi?$AAb?$AAe?$AAr?$AAs?$AA?9?$AAl?$AA1?$AA?9?$AA1?$AA?9?$AA1?$AA?$AA@ 00000001400bb5f0     libucrt:winapi_thunks.obj
 0002:0002a630       ??_C@_1DI@IJCEHOCB@?$AAa?$AAp?$AAi?$AA?9?$AAm?$AAs?$AA?9?$AAw?$AAi?$AAn?$AA?9?$AAc?$AAo?$AAr?$AAe?$AA?9?$AAf?$AAi?$AAl?$AAe?$AA?9?$AAl?$AA1?$AA?9?$AA2?$AA?9?$AA2?$AA?$AA@ 00000001400bb630     libucrt:winapi_thunks.obj
 0002:0002a670       ??_C@_1EI@MPIAOHOC@?$AAa?$AAp?$AAi?$AA?9?$AAm?$AAs?$AA?9?$AAw?$AAi?$AAn?$AA?9?$AAc?$AAo?$AAr?$AAe?$AA?9?$AAl?$AAo?$AAc?$AAa?$AAl?$AAi?$AAz?$AAa?$AAt?$AAi?$AAo?$AAn?$AA?9?$AAl?$AA1?$AA?9@ 00000001400bb670     libucrt:winapi_thunks.obj
 0002:0002a6c0       ??_C@_1FK@FPHCKFIE@?$AAa?$AAp?$AAi?$AA?9?$AAm?$AAs?$AA?9?$AAw?$AAi?$AAn?$AA?9?$AAc?$AAo?$AAr?$AAe?$AA?9?$AAl?$AAo?$AAc?$AAa?$AAl?$AAi?$AAz?$AAa?$AAt?$AAi?$AAo?$AAn?$AA?9?$AAo?$AAb?$AAs@ 00000001400bb6c0     libucrt:winapi_thunks.obj
 0002:0002a720       ??_C@_1EM@DILCGIIO@?$AAa?$AAp?$AAi?$AA?9?$AAm?$AAs?$AA?9?$AAw?$AAi?$AAn?$AA?9?$AAc?$AAo?$AAr?$AAe?$AA?9?$AAp?$AAr?$AAo?$AAc?$AAe?$AAs?$AAs?$AAt?$AAh?$AAr?$AAe?$AAa?$AAd?$AAs?$AA?9?$AAl@ 00000001400bb720     libucrt:winapi_thunks.obj
 0002:0002a770       ??_C@_1DM@LNCGDDPN@?$AAa?$AAp?$AAi?$AA?9?$AAm?$AAs?$AA?9?$AAw?$AAi?$AAn?$AA?9?$AAc?$AAo?$AAr?$AAe?$AA?9?$AAs?$AAt?$AAr?$AAi?$AAn?$AAg?$AA?9?$AAl?$AA1?$AA?9?$AA1?$AA?9?$AA0?$AA?$AA@ 00000001400bb770     libucrt:winapi_thunks.obj
 0002:0002a7b0       ??_C@_1DK@LPPGFMPP@?$AAa?$AAp?$AAi?$AA?9?$AAm?$AAs?$AA?9?$AAw?$AAi?$AAn?$AA?9?$AAc?$AAo?$AAr?$AAe?$AA?9?$AAs?$AAy?$AAn?$AAc?$AAh?$AA?9?$AAl?$AA1?$AA?9?$AA2?$AA?9?$AA0?$AA?$AA@ 00000001400bb7b0     libucrt:winapi_thunks.obj
 0002:0002a7f0       ??_C@_1DO@FPAPJEMD@?$AAa?$AAp?$AAi?$AA?9?$AAm?$AAs?$AA?9?$AAw?$AAi?$AAn?$AA?9?$AAc?$AAo?$AAr?$AAe?$AA?9?$AAs?$AAy?$AAs?$AAi?$AAn?$AAf?$AAo?$AA?9?$AAl?$AA1?$AA?9?$AA2?$AA?9?$AA1?$AA?$AA@ 00000001400bb7f0     libucrt:winapi_thunks.obj
 0002:0002a830       ??_C@_1DK@NDHNAHIO@?$AAa?$AAp?$AAi?$AA?9?$AAm?$AAs?$AA?9?$AAw?$AAi?$AAn?$AA?9?$AAc?$AAo?$AAr?$AAe?$AA?9?$AAw?$AAi?$AAn?$AAr?$AAt?$AA?9?$AAl?$AA1?$AA?9?$AA1?$AA?9?$AA0?$AA?$AA@ 00000001400bb830     libucrt:winapi_thunks.obj
 0002:0002a870       ??_C@_1DM@KGHDGBCM@?$AAa?$AAp?$AAi?$AA?9?$AAm?$AAs?$AA?9?$AAw?$AAi?$AAn?$AA?9?$AAc?$AAo?$AAr?$AAe?$AA?9?$AAx?$AAs?$AAt?$AAa?$AAt?$AAe?$AA?9?$AAl?$AA2?$AA?9?$AA1?$AA?9?$AA0?$AA?$AA@ 00000001400bb870     libucrt:winapi_thunks.obj
 0002:0002a8b0       ??_C@_1EO@IJIOEFOH@?$AAa?$AAp?$AAi?$AA?9?$AAm?$AAs?$AA?9?$AAw?$AAi?$AAn?$AA?9?$AAr?$AAt?$AAc?$AAo?$AAr?$AAe?$AA?9?$AAn?$AAt?$AAu?$AAs?$AAe?$AAr?$AA?9?$AAw?$AAi?$AAn?$AAd?$AAo?$AAw?$AA?9@ 00000001400bb8b0     libucrt:winapi_thunks.obj
 0002:0002a900       ??_C@_1FG@HHGEKANL@?$AAa?$AAp?$AAi?$AA?9?$AAm?$AAs?$AA?9?$AAw?$AAi?$AAn?$AA?9?$AAs?$AAe?$AAc?$AAu?$AAr?$AAi?$AAt?$AAy?$AA?9?$AAs?$AAy?$AAs?$AAt?$AAe?$AAm?$AAf?$AAu?$AAn?$AAc?$AAt?$AAi@ 00000001400bb900     libucrt:winapi_thunks.obj
 0002:0002a960       ??_C@_1EG@DBIOJECG@?$AAe?$AAx?$AAt?$AA?9?$AAm?$AAs?$AA?9?$AAw?$AAi?$AAn?$AA?9?$AAn?$AAt?$AAu?$AAs?$AAe?$AAr?$AA?9?$AAd?$AAi?$AAa?$AAl?$AAo?$AAg?$AAb?$AAo?$AAx?$AA?9?$AAl?$AA1?$AA?9?$AA1@ 00000001400bb960     libucrt:winapi_thunks.obj
 0002:0002a9b0       ??_C@_1EO@FIHMJCLF@?$AAe?$AAx?$AAt?$AA?9?$AAm?$AAs?$AA?9?$AAw?$AAi?$AAn?$AA?9?$AAn?$AAt?$AAu?$AAs?$AAe?$AAr?$AA?9?$AAw?$AAi?$AAn?$AAd?$AAo?$AAw?$AAs?$AAt?$AAa?$AAt?$AAi?$AAo?$AAn?$AA?9@ 00000001400bb9b0     libucrt:winapi_thunks.obj
 0002:0002aa00       ??_C@_1BC@DNHGCMLG@?$AAa?$AAd?$AAv?$AAa?$AAp?$AAi?$AA3?$AA2?$AA?$AA@ 00000001400bba00     libucrt:winapi_thunks.obj
 0002:0002aa18       ??_C@_1BC@GDMECMAK@?$AAk?$AAe?$AAr?$AAn?$AAe?$AAl?$AA3?$AA2?$AA?$AA@ 00000001400bba18     libucrt:winapi_thunks.obj
 0002:0002aa30       ??_C@_1M@OAIMIKLP@?$AAn?$AAt?$AAd?$AAl?$AAl?$AA?$AA@ 00000001400bba30     libucrt:winapi_thunks.obj
 0002:0002aa40       ??_C@_1EG@DPGNFKGC@?$AAa?$AAp?$AAi?$AA?9?$AAm?$AAs?$AA?9?$AAw?$AAi?$AAn?$AA?9?$AAa?$AAp?$AAp?$AAm?$AAo?$AAd?$AAe?$AAl?$AA?9?$AAr?$AAu?$AAn?$AAt?$AAi?$AAm?$AAe?$AA?9?$AAl?$AA1?$AA?9?$AA1@ 00000001400bba40     libucrt:winapi_thunks.obj
 0002:0002aa88       ??_C@_1O@BCCLBEOE@?$AAu?$AAs?$AAe?$AAr?$AA3?$AA2?$AA?$AA@ 00000001400bba88     libucrt:winapi_thunks.obj
 0002:0002aa98       ??_C@_1BA@PFFKHIOG@?$AAa?$AAp?$AAi?$AA?9?$AAm?$AAs?$AA?9?$AA?$AA@ 00000001400bba98     libucrt:winapi_thunks.obj
 0002:0002aaa8       ??_C@_1BA@IAIFMGEF@?$AAe?$AAx?$AAt?$AA?9?$AAm?$AAs?$AA?9?$AA?$AA@ 00000001400bbaa8     libucrt:winapi_thunks.obj
 0002:0002aac0       ??_C@_0BA@FHFNEAED@AreFileApisANSI?$AA@ 00000001400bbac0     libucrt:winapi_thunks.obj
 0002:0002aad8       ??_C@_0BA@IHGNDAEB@CompareStringEx?$AA@ 00000001400bbad8     libucrt:winapi_thunks.obj
 0002:0002aaf0       ??_C@_08KNHFBNJ@FlsAlloc?$AA@ 00000001400bbaf0     libucrt:winapi_thunks.obj
 0002:0002ab08       ??_C@_07PEJMOBNF@FlsFree?$AA@ 00000001400bbb08     libucrt:winapi_thunks.obj
 0002:0002ab18       ??_C@_0M@GDNOONDI@FlsGetValue?$AA@ 00000001400bbb18     libucrt:winapi_thunks.obj
 0002:0002ab30       ??_C@_0M@JCPCPOEF@FlsSetValue?$AA@ 00000001400bbb30     libucrt:winapi_thunks.obj
 0002:0002ab48       ??_C@_0BA@HNOPNCHB@GetActiveWindow?$AA@ 00000001400bbb48     libucrt:winapi_thunks.obj
 0002:0002ab60       ??_C@_0BD@HHGDFDBJ@GetLastActivePopup?$AA@ 00000001400bbb60     libucrt:winapi_thunks.obj
 0002:0002ab80       ??_C@_0BI@DFKBFLJE@GetProcessWindowStation?$AA@ 00000001400bbb80     libucrt:winapi_thunks.obj
 0002:0002aba0       ??_C@_0BP@FPNJPEJC@GetSystemTimePreciseAsFileTime?$AA@ 00000001400bbba0     libucrt:winapi_thunks.obj
 0002:0002abc8       ??_C@_0BK@DEKFELLI@GetUserObjectInformationW?$AA@ 00000001400bbbc8     libucrt:winapi_thunks.obj
 0002:0002abf0       ??_C@_0BM@HCFOFFN@InitializeCriticalSectionEx?$AA@ 00000001400bbbf0     libucrt:winapi_thunks.obj
 0002:0002ac18       ??_C@_0O@KKBNKAPF@LCMapStringEx?$AA@ 00000001400bbc18     libucrt:winapi_thunks.obj
 0002:0002ac30       ??_C@_0BB@HBDEELFH@LocaleNameToLCID?$AA@ 00000001400bbc30     libucrt:winapi_thunks.obj
 0002:0002ac50       ??_C@_0M@CHKKJDAI@MessageBoxA?$AA@ 00000001400bbc50     libucrt:winapi_thunks.obj
 0002:0002ac68       ??_C@_0M@DLDCCGNP@MessageBoxW?$AA@ 00000001400bbc68     libucrt:winapi_thunks.obj
 0002:0002ac78       ??_C@_0CF@OJOFEIGO@AppPolicyGetProcessTerminationMe@ 00000001400bbc78     libucrt:winapi_thunks.obj
 0002:0002aca8       ??_C@_0CE@OICFMIKE@AppPolicyGetShowDeveloperDiagnos@ 00000001400bbca8     libucrt:winapi_thunks.obj
 0002:0002acd0       ??_C@_0BL@ODDJNEDA@AppPolicyGetWindowingModel?$AA@ 00000001400bbcd0     libucrt:winapi_thunks.obj
 0002:0002acf0       _sys_errlist               00000001400bbcf0     libucrt:syserr.obj
 0002:0002ae50       ??_C@_08INEPGKHH@No?5error?$AA@ 00000001400bbe50     libucrt:syserr.obj
 0002:0002ae60       ??_C@_0BI@BJFCGOHL@Operation?5not?5permitted?$AA@ 00000001400bbe60     libucrt:syserr.obj
 0002:0002ae78       ??_C@_0BK@FMDHKPNF@No?5such?5file?5or?5directory?$AA@ 00000001400bbe78     libucrt:syserr.obj
 0002:0002ae98       ??_C@_0BA@FKIAIBGA@No?5such?5process?$AA@ 00000001400bbe98     libucrt:syserr.obj
 0002:0002aea8       ??_C@_0BK@FJBOAFDK@Interrupted?5function?5call?$AA@ 00000001400bbea8     libucrt:syserr.obj
 0002:0002aec8       ??_C@_0BD@KKNFOBBD@Input?1output?5error?$AA@ 00000001400bbec8     libucrt:syserr.obj
 0002:0002aee0       ??_C@_0BK@DPKMCKJ@No?5such?5device?5or?5address?$AA@ 00000001400bbee0     libucrt:syserr.obj
 0002:0002af00       ??_C@_0BC@MFFGCDFL@Arg?5list?5too?5long?$AA@ 00000001400bbf00     libucrt:syserr.obj
 0002:0002af18       ??_C@_0BC@HKPNECK@Exec?5format?5error?$AA@ 00000001400bbf18     libucrt:syserr.obj
 0002:0002af30       ??_C@_0BE@NFGDDCEF@Bad?5file?5descriptor?$AA@ 00000001400bbf30     libucrt:syserr.obj
 0002:0002af48       ??_C@_0BD@LOHELEP@No?5child?5processes?$AA@ 00000001400bbf48     libucrt:syserr.obj
 0002:0002af60       ??_C@_0CB@EPFKGNAK@Resource?5temporarily?5unavailable@ 00000001400bbf60     libucrt:syserr.obj
 0002:0002af88       ??_C@_0BB@IMDKMPFB@Not?5enough?5space?$AA@ 00000001400bbf88     libucrt:syserr.obj
 0002:0002afa0       ??_C@_0BC@HFNFNKAI@Permission?5denied?$AA@ 00000001400bbfa0     libucrt:syserr.obj
 0002:0002afb8       ??_C@_0M@LOEHLCJD@Bad?5address?$AA@ 00000001400bbfb8     libucrt:syserr.obj
 0002:0002afc8       ??_C@_0O@NIPGCINC@Unknown?5error?$AA@ 00000001400bbfc8     libucrt:syserr.obj
 0002:0002afd8       ??_C@_0BA@BIBLIOEK@Resource?5device?$AA@ 00000001400bbfd8     libucrt:syserr.obj
 0002:0002afe8       ??_C@_0M@NAAJNNGH@File?5exists?$AA@ 00000001400bbfe8     libucrt:syserr.obj
 0002:0002aff8       ??_C@_0O@OAMDNOCP@Improper?5link?$AA@ 00000001400bbff8     libucrt:syserr.obj
 0002:0002b008       ??_C@_0P@NLEIANHE@No?5such?5device?$AA@ 00000001400bc008     libucrt:syserr.obj
 0002:0002b018       ??_C@_0BA@CJBACOOL@Not?5a?5directory?$AA@ 00000001400bc018     libucrt:syserr.obj
 0002:0002b028       ??_C@_0P@NDHGCGKE@Is?5a?5directory?$AA@ 00000001400bc028     libucrt:syserr.obj
 0002:0002b038       ??_C@_0BB@HMGGCEBG@Invalid?5argument?$AA@ 00000001400bc038     libucrt:syserr.obj
 0002:0002b050       ??_C@_0BO@IIFBODJE@Too?5many?5open?5files?5in?5system?$AA@ 00000001400bc050     libucrt:syserr.obj
 0002:0002b070       ??_C@_0BE@INBJMKGG@Too?5many?5open?5files?$AA@ 00000001400bc070     libucrt:syserr.obj
 0002:0002b088       ??_C@_0CE@ONOKNLPF@Inappropriate?5I?1O?5control?5operat@ 00000001400bc088     libucrt:syserr.obj
 0002:0002b0b0       ??_C@_0P@LFMMIPAE@File?5too?5large?$AA@ 00000001400bc0b0     libucrt:syserr.obj
 0002:0002b0c0       ??_C@_0BI@FEALHKLD@No?5space?5left?5on?5device?$AA@ 00000001400bc0c0     libucrt:syserr.obj
 0002:0002b0d8       ??_C@_0N@FEHLOILP@Invalid?5seek?$AA@ 00000001400bc0d8     libucrt:syserr.obj
 0002:0002b0e8       ??_C@_0BG@DDBFNKBH@Read?9only?5file?5system?$AA@ 00000001400bc0e8     libucrt:syserr.obj
 0002:0002b100       ??_C@_0P@PKCJJLLM@Too?5many?5links?$AA@ 00000001400bc100     libucrt:syserr.obj
 0002:0002b110       ??_C@_0M@LHEPIIOM@Broken?5pipe?$AA@ 00000001400bc110     libucrt:syserr.obj
 0002:0002b120       ??_C@_0N@MMJPGLJK@Domain?5error?$AA@ 00000001400bc120     libucrt:syserr.obj
 0002:0002b130       ??_C@_0BB@FCBJFCAJ@Result?5too?5large?$AA@ 00000001400bc130     libucrt:syserr.obj
 0002:0002b148       ??_C@_0BK@JAEBMJJM@Resource?5deadlock?5avoided?$AA@ 00000001400bc148     libucrt:syserr.obj
 0002:0002b168       ??_C@_0BC@BEDIHIDK@Filename?5too?5long?$AA@ 00000001400bc168     libucrt:syserr.obj
 0002:0002b180       ??_C@_0BD@CLHBCGPB@No?5locks?5available?$AA@ 00000001400bc180     libucrt:syserr.obj
 0002:0002b198       ??_C@_0BJ@IHEHINLI@Function?5not?5implemented?$AA@ 00000001400bc198     libucrt:syserr.obj
 0002:0002b1b8       ??_C@_0BE@ICMCHPHH@Directory?5not?5empty?$AA@ 00000001400bc1b8     libucrt:syserr.obj
 0002:0002b1d0       ??_C@_0BG@KLEAJEFJ@Illegal?5byte?5sequence?$AA@ 00000001400bc1d0     libucrt:syserr.obj
 0002:0002b1e8       _sys_nerr                  00000001400bc1e8     libucrt:syserr.obj
 0002:0002b210       ??_C@_1M@HPNHIDJI@?$AAj?$AAa?$AA?9?$AAJ?$AAP?$AA?$AA@ 00000001400bc210     libucrt:mbctype.obj
 0002:0002b220       ??_C@_1M@BIBDDEMK@?$AAz?$AAh?$AA?9?$AAC?$AAN?$AA?$AA@ 00000001400bc220     libucrt:mbctype.obj
 0002:0002b230       ??_C@_1M@JLOOOEGK@?$AAk?$AAo?$AA?9?$AAK?$AAR?$AA?$AA@ 00000001400bc230     libucrt:mbctype.obj
 0002:0002b240       ??_C@_1M@CLNBBOPM@?$AAz?$AAh?$AA?9?$AAT?$AAW?$AA?$AA@ 00000001400bc240     libucrt:mbctype.obj
 0002:0002b24c       ??_C@_15PJPFLCCM@?$AAu?$AAk?$AA?$AA@ 00000001400bc24c     libucrt:get_qualified_locale.obj
 0002:0002b270       ??_C@_00CNPNBAHC@?$AA@     00000001400bc270     libucrt:mbrtowc.obj
 0002:0002b274       ??_C@_01GBGANLPD@0?$AA@    00000001400bc274     libucrt:cfout.obj
 0002:0002b278       ??_C@_05DNEBIAHO@1?$CDINF?$AA@ 00000001400bc278     libucrt:cfout.obj
 0002:0002b280       ??_C@_06IMKFLFPG@1?$CDQNAN?$AA@ 00000001400bc280     libucrt:cfout.obj
 0002:0002b288       ??_C@_06PGGFOGJG@1?$CDSNAN?$AA@ 00000001400bc288     libucrt:cfout.obj
 0002:0002b290       ??_C@_05PHHOCPM@1?$CDIND?$AA@ 00000001400bc290     libucrt:cfout.obj
 0002:0002c0e0       ??_C@_15EMKDOKLE@?$AAa?$AAr?$AA?$AA@ 00000001400bd0e0     libucrt:lcidtoname_downlevel.obj
 0002:0002c0e8       ??_C@_15KNPADPLH@?$AAb?$AAg?$AA?$AA@ 00000001400bd0e8     libucrt:lcidtoname_downlevel.obj
 0002:0002c0f0       ??_C@_15EDMHLDMO@?$AAc?$AAa?$AA?$AA@ 00000001400bd0f0     libucrt:lcidtoname_downlevel.obj
 0002:0002c0f8       ??_C@_1O@BPEAJADD@?$AAz?$AAh?$AA?9?$AAC?$AAH?$AAS?$AA?$AA@ 00000001400bd0f8     libucrt:lcidtoname_downlevel.obj
 0002:0002c108       ??_C@_15LJNHCMNK@?$AAc?$AAs?$AA?$AA@ 00000001400bd108     libucrt:lcidtoname_downlevel.obj
 0002:0002c110       ??_C@_15FOMCIDHG@?$AAd?$AAa?$AA?$AA@ 00000001400bd110     libucrt:lcidtoname_downlevel.obj
 0002:0002c118       ??_C@_15NBKABECB@?$AAd?$AAe?$AA?$AA@ 00000001400bd118     libucrt:lcidtoname_downlevel.obj
 0002:0002c120       ??_C@_15GHPEIIAO@?$AAe?$AAl?$AA?$AA@ 00000001400bd120     libucrt:lcidtoname_downlevel.obj
 0002:0002c128       ??_C@_15MNPNEAIF@?$AAe?$AAn?$AA?$AA@ 00000001400bd128     libucrt:lcidtoname_downlevel.obj
 0002:0002c130       ??_C@_15GPIOMPMH@?$AAe?$AAs?$AA?$AA@ 00000001400bd130     libucrt:lcidtoname_downlevel.obj
 0002:0002c138       ??_C@_15NGLOAKJC@?$AAf?$AAi?$AA?$AA@ 00000001400bd138     libucrt:lcidtoname_downlevel.obj
 0002:0002c140       ??_C@_15FBKGNKAM@?$AAf?$AAr?$AA?$AA@ 00000001400bd140     libucrt:lcidtoname_downlevel.obj
 0002:0002c148       ??_C@_15KGGCNEFK@?$AAh?$AAe?$AA?$AA@ 00000001400bd148     libucrt:lcidtoname_downlevel.obj
 0002:0002c150       ??_C@_15PGHLIDMF@?$AAh?$AAu?$AA?$AA@ 00000001400bd150     libucrt:lcidtoname_downlevel.obj
 0002:0002c158       ??_C@_15BIEMAPLM@?$AAi?$AAs?$AA?$AA@ 00000001400bd158     libucrt:lcidtoname_downlevel.obj
 0002:0002c160       ??_C@_15IFJLDHAF@?$AAi?$AAt?$AA?$AA@ 00000001400bd160     libucrt:lcidtoname_downlevel.obj
 0002:0002c168       ??_C@_15GEMIOCAG@?$AAj?$AAa?$AA?$AA@ 00000001400bd168     libucrt:lcidtoname_downlevel.obj
 0002:0002c170       ??_C@_15EPELEGJA@?$AAk?$AAo?$AA?$AA@ 00000001400bd170     libucrt:lcidtoname_downlevel.obj
 0002:0002c178       ??_C@_15NDDHIMN@?$AAn?$AAl?$AA?$AA@ 00000001400bd178     libucrt:lcidtoname_downlevel.obj
 0002:0002c180       ??_C@_15BPIGNHCD@?$AAn?$AAo?$AA?$AA@ 00000001400bd180     libucrt:lcidtoname_downlevel.obj
 0002:0002c188       ??_C@_15DEOPBLCG@?$AAp?$AAl?$AA?$AA@ 00000001400bd188     libucrt:lcidtoname_downlevel.obj
 0002:0002c190       ??_C@_15KBECGEFG@?$AAp?$AAt?$AA?$AA@ 00000001400bd190     libucrt:lcidtoname_downlevel.obj
 0002:0002c198       ??_C@_15GLJCBFMD@?$AAr?$AAo?$AA?$AA@ 00000001400bd198     libucrt:lcidtoname_downlevel.obj
 0002:0002c1a0       ??_C@_15FEDGKCDI@?$AAr?$AAu?$AA?$AA@ 00000001400bd1a0     libucrt:lcidtoname_downlevel.obj
 0002:0002c1a8       ??_C@_15GLKMLLHM@?$AAh?$AAr?$AA?$AA@ 00000001400bd1a8     libucrt:lcidtoname_downlevel.obj
 0002:0002c1b0       ??_C@_15CPKMFBDB@?$AAs?$AAk?$AA?$AA@ 00000001400bd1b0     libucrt:lcidtoname_downlevel.obj
 0002:0002c1b8       ??_C@_15BAAIOGMK@?$AAs?$AAq?$AA?$AA@ 00000001400bd1b8     libucrt:lcidtoname_downlevel.obj
 0002:0002c1c0       ??_C@_15INNPNOHD@?$AAs?$AAv?$AA?$AA@ 00000001400bd1c0     libucrt:lcidtoname_downlevel.obj
 0002:0002c1c8       ??_C@_15CABMMOGH@?$AAt?$AAh?$AA?$AA@ 00000001400bd1c8     libucrt:lcidtoname_downlevel.obj
 0002:0002c1d0       ??_C@_15BPLIHJJM@?$AAt?$AAr?$AA?$AA@ 00000001400bd1d0     libucrt:lcidtoname_downlevel.obj
 0002:0002c1d8       ??_C@_15NEOEKKDJ@?$AAu?$AAr?$AA?$AA@ 00000001400bd1d8     libucrt:lcidtoname_downlevel.obj
 0002:0002c1e0       ??_C@_15NFICGAJK@?$AAi?$AAd?$AA?$AA@ 00000001400bd1e0     libucrt:lcidtoname_downlevel.obj
 0002:0002c1e8       ??_C@_15HPJPHDM@?$AAb?$AAe?$AA?$AA@ 00000001400bd1e8     libucrt:lcidtoname_downlevel.obj
 0002:0002c1f0       ??_C@_15LCHLGJII@?$AAs?$AAl?$AA?$AA@ 00000001400bd1f0     libucrt:lcidtoname_downlevel.obj
 0002:0002c1f8       ??_C@_15PCFJPHHO@?$AAe?$AAt?$AA?$AA@ 00000001400bd1f8     libucrt:lcidtoname_downlevel.obj
 0002:0002c200       ??_C@_15HPFPGODN@?$AAl?$AAv?$AA?$AA@ 00000001400bd200     libucrt:lcidtoname_downlevel.obj
 0002:0002c208       ??_C@_15NFFGKGLG@?$AAl?$AAt?$AA?$AA@ 00000001400bd208     libucrt:lcidtoname_downlevel.obj
 0002:0002c210       ??_C@_15BDAKCCHN@?$AAf?$AAa?$AA?$AA@ 00000001400bd210     libucrt:lcidtoname_downlevel.obj
 0002:0002c218       ??_C@_15NFGIAIAJ@?$AAv?$AAi?$AA?$AA@ 00000001400bd218     libucrt:lcidtoname_downlevel.obj
 0002:0002c220       ??_C@_15LMKNDMHN@?$AAh?$AAy?$AA?$AA@ 00000001400bd220     libucrt:lcidtoname_downlevel.obj
 0002:0002c228       ??_C@_15IJBHMCFL@?$AAa?$AAz?$AA?$AA@ 00000001400bd228     libucrt:lcidtoname_downlevel.obj
 0002:0002c230       ??_C@_15EKOFJABL@?$AAe?$AAu?$AA?$AA@ 00000001400bd230     libucrt:lcidtoname_downlevel.obj
 0002:0002c238       ??_C@_15BGHADCNK@?$AAm?$AAk?$AA?$AA@ 00000001400bd238     libucrt:lcidtoname_downlevel.obj
 0002:0002c240       ??_C@_15JDNICKHM@?$AAa?$AAf?$AA?$AA@ 00000001400bd240     libucrt:lcidtoname_downlevel.obj
 0002:0002c248       ??_C@_15KPJEDBKD@?$AAk?$AAa?$AA?$AA@ 00000001400bd248     libucrt:lcidtoname_downlevel.obj
 0002:0002c250       ??_C@_15PDNFFFEO@?$AAf?$AAo?$AA?$AA@ 00000001400bd250     libucrt:lcidtoname_downlevel.obj
 0002:0002c258       ??_C@_15OMLEGLOC@?$AAh?$AAi?$AA?$AA@ 00000001400bd258     libucrt:lcidtoname_downlevel.obj
 0002:0002c260       ??_C@_15IDNNENKK@?$AAm?$AAs?$AA?$AA@ 00000001400bd260     libucrt:lcidtoname_downlevel.obj
 0002:0002c268       ??_C@_15MACJNBMH@?$AAk?$AAk?$AA?$AA@ 00000001400bd268     libucrt:lcidtoname_downlevel.obj
 0002:0002c270       ??_C@_15DKDJEOND@?$AAk?$AAy?$AA?$AA@ 00000001400bd270     libucrt:lcidtoname_downlevel.obj
 0002:0002c278       ??_C@_15DFGDLJBG@?$AAs?$AAw?$AA?$AA@ 00000001400bd278     libucrt:lcidtoname_downlevel.obj
 0002:0002c280       ??_C@_15BBFAICNG@?$AAu?$AAz?$AA?$AA@ 00000001400bd280     libucrt:lcidtoname_downlevel.obj
 0002:0002c288       ??_C@_15DKNDCGEA@?$AAt?$AAt?$AA?$AA@ 00000001400bd288     libucrt:lcidtoname_downlevel.obj
 0002:0002c290       ??_C@_15MGIFMDPL@?$AAp?$AAa?$AA?$AA@ 00000001400bd290     libucrt:lcidtoname_downlevel.obj
 0002:0002c298       ??_C@_15HCNDBBA@?$AAg?$AAu?$AA?$AA@ 00000001400bd298     libucrt:lcidtoname_downlevel.obj
 0002:0002c2a0       ??_C@_15FNBEIBON@?$AAt?$AAa?$AA?$AA@ 00000001400bd2a0     libucrt:lcidtoname_downlevel.obj
 0002:0002c2a8       ??_C@_15NCHGBGLK@?$AAt?$AAe?$AA?$AA@ 00000001400bd2a8     libucrt:lcidtoname_downlevel.obj
 0002:0002c2b0       ??_C@_15PHPHCBPF@?$AAk?$AAn?$AA?$AA@ 00000001400bd2b0     libucrt:lcidtoname_downlevel.obj
 0002:0002c2b8       ??_C@_15DLGBCKMP@?$AAm?$AAr?$AA?$AA@ 00000001400bd2b8     libucrt:lcidtoname_downlevel.obj
 0002:0002c2c0       ??_C@_15EABBLBFF@?$AAs?$AAa?$AA?$AA@ 00000001400bd2c0     libucrt:lcidtoname_downlevel.obj
 0002:0002c2c8       ??_C@_15CBKOMCOI@?$AAm?$AAn?$AA?$AA@ 00000001400bd2c8     libucrt:lcidtoname_downlevel.obj
 0002:0002c2d0       ??_C@_15CKDMCJAF@?$AAg?$AAl?$AA?$AA@ 00000001400bd2d0     libucrt:lcidtoname_downlevel.obj
 0002:0002c2d8       ??_C@_17CNJFBPG@?$AAk?$AAo?$AAk?$AA?$AA@ 00000001400bd2d8     libucrt:lcidtoname_downlevel.obj
 0002:0002c2e0       ??_C@_17FFBJICPL@?$AAs?$AAy?$AAr?$AA?$AA@ 00000001400bd2e0     libucrt:lcidtoname_downlevel.obj
 0002:0002c2e8       ??_C@_17KPNDCPAF@?$AAd?$AAi?$AAv?$AA?$AA@ 00000001400bd2e8     libucrt:lcidtoname_downlevel.obj
 0002:0002c2f0       ??_C@_11LOCGONAA@?$AA?$AA@ 00000001400bd2f0     libucrt:lcidtoname_downlevel.obj
 0002:0002c2f8       ??_C@_1M@OKAHONE@?$AAa?$AAr?$AA?9?$AAS?$AAA?$AA?$AA@ 00000001400bd2f8     libucrt:lcidtoname_downlevel.obj
 0002:0002c308       ??_C@_1M@FFFIGIGK@?$AAb?$AAg?$AA?9?$AAB?$AAG?$AA?$AA@ 00000001400bd308     libucrt:lcidtoname_downlevel.obj
 0002:0002c318       ??_C@_1M@BJNKEDC@?$AAc?$AAa?$AA?9?$AAE?$AAS?$AA?$AA@ 00000001400bd318     libucrt:lcidtoname_downlevel.obj
 0002:0002c328       ??_C@_1M@IJJHFJHA@?$AAc?$AAs?$AA?9?$AAC?$AAZ?$AA?$AA@ 00000001400bd328     libucrt:lcidtoname_downlevel.obj
 0002:0002c338       ??_C@_1M@CLPEOBGI@?$AAd?$AAa?$AA?9?$AAD?$AAK?$AA?$AA@ 00000001400bd338     libucrt:lcidtoname_downlevel.obj
 0002:0002c348       ??_C@_1M@MCMADGCB@?$AAd?$AAe?$AA?9?$AAD?$AAE?$AA?$AA@ 00000001400bd348     libucrt:lcidtoname_downlevel.obj
 0002:0002c358       ??_C@_1M@OOCKEMAM@?$AAe?$AAl?$AA?9?$AAG?$AAR?$AA?$AA@ 00000001400bd358     libucrt:lcidtoname_downlevel.obj
 0002:0002c368       ??_C@_1M@DDNJFGID@?$AAf?$AAi?$AA?9?$AAF?$AAI?$AA?$AA@ 00000001400bd368     libucrt:lcidtoname_downlevel.obj
 0002:0002c378       ??_C@_1M@GLIPPMAC@?$AAf?$AAr?$AA?9?$AAF?$AAR?$AA?$AA@ 00000001400bd378     libucrt:lcidtoname_downlevel.obj
 0002:0002c388       ??_C@_1M@GFMCHPE@?$AAh?$AAe?$AA?9?$AAI?$AAL?$AA?$AA@ 00000001400bd388     libucrt:lcidtoname_downlevel.obj
 0002:0002c398       ??_C@_1M@MHLPGNKM@?$AAh?$AAu?$AA?9?$AAH?$AAU?$AA?$AA@ 00000001400bd398     libucrt:lcidtoname_downlevel.obj
 0002:0002c3a8       ??_C@_1M@LPDDNNPN@?$AAi?$AAs?$AA?9?$AAI?$AAS?$AA?$AA@ 00000001400bd3a8     libucrt:lcidtoname_downlevel.obj
 0002:0002c3b8       ??_C@_1M@MADIPODN@?$AAi?$AAt?$AA?9?$AAI?$AAT?$AA?$AA@ 00000001400bd3b8     libucrt:lcidtoname_downlevel.obj
 0002:0002c3c8       ??_C@_1M@IHBJJGG@?$AAn?$AAl?$AA?9?$AAN?$AAL?$AA?$AA@ 00000001400bd3c8     libucrt:lcidtoname_downlevel.obj
 0002:0002c3d8       ??_C@_1M@EANAGDL@?$AAn?$AAb?$AA?9?$AAN?$AAO?$AA?$AA@ 00000001400bd3d8     libucrt:lcidtoname_downlevel.obj
 0002:0002c3e8       ??_C@_1M@NEIEMEGP@?$AAp?$AAl?$AA?9?$AAP?$AAL?$AA?$AA@ 00000001400bd3e8     libucrt:lcidtoname_downlevel.obj
 0002:0002c3f8       ??_C@_1M@BOCFIGEP@?$AAp?$AAt?$AA?9?$AAB?$AAR?$AA?$AA@ 00000001400bd3f8     libucrt:lcidtoname_downlevel.obj
 0002:0002c408       ??_C@_1M@IMPFOPBG@?$AAr?$AAo?$AA?9?$AAR?$AAO?$AA?$AA@ 00000001400bd408     libucrt:lcidtoname_downlevel.obj
 0002:0002c418       ??_C@_1M@IDNNEJMM@?$AAr?$AAu?$AA?9?$AAR?$AAU?$AA?$AA@ 00000001400bd418     libucrt:lcidtoname_downlevel.obj
 0002:0002c428       ??_C@_1M@LILEEOGM@?$AAh?$AAr?$AA?9?$AAH?$AAR?$AA?$AA@ 00000001400bd428     libucrt:lcidtoname_downlevel.obj
 0002:0002c438       ??_C@_1M@FKIFEHPB@?$AAs?$AAk?$AA?9?$AAS?$AAK?$AA?$AA@ 00000001400bd438     libucrt:lcidtoname_downlevel.obj
 0002:0002c448       ??_C@_1M@LJMAMNPJ@?$AAs?$AAq?$AA?9?$AAA?$AAL?$AA?$AA@ 00000001400bd448     libucrt:lcidtoname_downlevel.obj
 0002:0002c458       ??_C@_1M@GIAKDKJK@?$AAs?$AAv?$AA?9?$AAS?$AAE?$AA?$AA@ 00000001400bd458     libucrt:lcidtoname_downlevel.obj
 0002:0002c468       ??_C@_1M@MKJKIKCL@?$AAt?$AAh?$AA?9?$AAT?$AAH?$AA?$AA@ 00000001400bd468     libucrt:lcidtoname_downlevel.obj
 0002:0002c478       ??_C@_1M@MFLCCMPB@?$AAt?$AAr?$AA?9?$AAT?$AAR?$AA?$AA@ 00000001400bd478     libucrt:lcidtoname_downlevel.obj
 0002:0002c488       ??_C@_1M@OIJHDKJN@?$AAu?$AAr?$AA?9?$AAP?$AAK?$AA?$AA@ 00000001400bd488     libucrt:lcidtoname_downlevel.obj
 0002:0002c498       ??_C@_1M@LHIPCIEK@?$AAi?$AAd?$AA?9?$AAI?$AAD?$AA?$AA@ 00000001400bd498     libucrt:lcidtoname_downlevel.obj
 0002:0002c4a8       ??_C@_1M@MFMOBGI@?$AAu?$AAk?$AA?9?$AAU?$AAA?$AA?$AA@ 00000001400bd4a8     libucrt:lcidtoname_downlevel.obj
 0002:0002c4b8       ??_C@_1M@OBGLJIPL@?$AAb?$AAe?$AA?9?$AAB?$AAY?$AA?$AA@ 00000001400bd4b8     libucrt:lcidtoname_downlevel.obj
 0002:0002c4c8       ??_C@_1M@BCFAJEAD@?$AAs?$AAl?$AA?9?$AAS?$AAI?$AA?$AA@ 00000001400bd4c8     libucrt:lcidtoname_downlevel.obj
 0002:0002c4d8       ??_C@_1M@FKFFEDDN@?$AAe?$AAt?$AA?9?$AAE?$AAE?$AA?$AA@ 00000001400bd4d8     libucrt:lcidtoname_downlevel.obj
 0002:0002c4e8       ??_C@_1M@KGKKAACI@?$AAl?$AAv?$AA?9?$AAL?$AAV?$AA?$AA@ 00000001400bd4e8     libucrt:lcidtoname_downlevel.obj
 0002:0002c4f8       ??_C@_1M@IFGBIJO@?$AAl?$AAt?$AA?9?$AAL?$AAT?$AA?$AA@ 00000001400bd4f8     libucrt:lcidtoname_downlevel.obj
 0002:0002c508       ??_C@_1M@FGEAHEDM@?$AAf?$AAa?$AA?9?$AAI?$AAR?$AA?$AA@ 00000001400bd508     libucrt:lcidtoname_downlevel.obj
 0002:0002c518       ??_C@_1M@KBMAIBFN@?$AAv?$AAi?$AA?9?$AAV?$AAN?$AA?$AA@ 00000001400bd518     libucrt:lcidtoname_downlevel.obj
 0002:0002c528       ??_C@_1M@GPCBKDJK@?$AAh?$AAy?$AA?9?$AAA?$AAM?$AA?$AA@ 00000001400bd528     libucrt:lcidtoname_downlevel.obj
 0002:0002c538       ??_C@_1BG@BECMDDJB@?$AAa?$AAz?$AA?9?$AAA?$AAZ?$AA?9?$AAL?$AAa?$AAt?$AAn?$AA?$AA@ 00000001400bd538     libucrt:lcidtoname_downlevel.obj
 0002:0002c550       ??_C@_1M@MAOFCAEA@?$AAe?$AAu?$AA?9?$AAE?$AAS?$AA?$AA@ 00000001400bd550     libucrt:lcidtoname_downlevel.obj
 0002:0002c560       ??_C@_1M@IGHABKPI@?$AAm?$AAk?$AA?9?$AAM?$AAK?$AA?$AA@ 00000001400bd560     libucrt:lcidtoname_downlevel.obj
 0002:0002c570       ??_C@_1M@IAIGNEJG@?$AAt?$AAn?$AA?9?$AAZ?$AAA?$AA?$AA@ 00000001400bd570     libucrt:lcidtoname_downlevel.obj
 0002:0002c580       ??_C@_1M@IIJCOJFA@?$AAx?$AAh?$AA?9?$AAZ?$AAA?$AA?$AA@ 00000001400bd580     libucrt:lcidtoname_downlevel.obj
 0002:0002c590       ??_C@_1M@LGPJHNJH@?$AAz?$AAu?$AA?9?$AAZ?$AAA?$AA?$AA@ 00000001400bd590     libucrt:lcidtoname_downlevel.obj
 0002:0002c5a0       ??_C@_1M@HOKAOIO@?$AAa?$AAf?$AA?9?$AAZ?$AAA?$AA?$AA@ 00000001400bd5a0     libucrt:lcidtoname_downlevel.obj
 0002:0002c5b0       ??_C@_1M@DPCLHLIE@?$AAk?$AAa?$AA?9?$AAG?$AAE?$AA?$AA@ 00000001400bd5b0     libucrt:lcidtoname_downlevel.obj
 0002:0002c5c0       ??_C@_1M@BLKMHJBI@?$AAf?$AAo?$AA?9?$AAF?$AAO?$AA?$AA@ 00000001400bd5c0     libucrt:lcidtoname_downlevel.obj
 0002:0002c5d0       ??_C@_1M@LGGJAPPB@?$AAh?$AAi?$AA?9?$AAI?$AAN?$AA?$AA@ 00000001400bd5d0     libucrt:lcidtoname_downlevel.obj
 0002:0002c5e0       ??_C@_1M@FIKPIHFE@?$AAm?$AAt?$AA?9?$AAM?$AAT?$AA?$AA@ 00000001400bd5e0     libucrt:lcidtoname_downlevel.obj
 0002:0002c5f0       ??_C@_1M@HEGGPBFA@?$AAs?$AAe?$AA?9?$AAN?$AAO?$AA?$AA@ 00000001400bd5f0     libucrt:lcidtoname_downlevel.obj
 0002:0002c600       ??_C@_1M@EIBJEEPA@?$AAm?$AAs?$AA?9?$AAM?$AAY?$AA?$AA@ 00000001400bd600     libucrt:lcidtoname_downlevel.obj
 0002:0002c610       ??_C@_1M@FHLBGMPP@?$AAk?$AAk?$AA?9?$AAK?$AAZ?$AA?$AA@ 00000001400bd610     libucrt:lcidtoname_downlevel.obj
 0002:0002c620       ??_C@_1M@NGJJLCGI@?$AAk?$AAy?$AA?9?$AAK?$AAG?$AA?$AA@ 00000001400bd620     libucrt:lcidtoname_downlevel.obj
 0002:0002c630       ??_C@_1M@GIENNBFC@?$AAs?$AAw?$AA?9?$AAK?$AAE?$AA?$AA@ 00000001400bd630     libucrt:lcidtoname_downlevel.obj
 0002:0002c640       ??_C@_1BG@NDGMJIMJ@?$AAu?$AAz?$AA?9?$AAU?$AAZ?$AA?9?$AAL?$AAa?$AAt?$AAn?$AA?$AA@ 00000001400bd640     libucrt:lcidtoname_downlevel.obj
 0002:0002c658       ??_C@_1M@IDCCIHBC@?$AAt?$AAt?$AA?9?$AAR?$AAU?$AA?$AA@ 00000001400bd658     libucrt:lcidtoname_downlevel.obj
 0002:0002c668       ??_C@_1M@LOICPMOJ@?$AAb?$AAn?$AA?9?$AAI?$AAN?$AA?$AA@ 00000001400bd668     libucrt:lcidtoname_downlevel.obj
 0002:0002c678       ??_C@_1M@KPKKNEAH@?$AAp?$AAa?$AA?9?$AAI?$AAN?$AA?$AA@ 00000001400bd678     libucrt:lcidtoname_downlevel.obj
 0002:0002c688       ??_C@_1M@PJGPPBOG@?$AAg?$AAu?$AA?9?$AAI?$AAN?$AA?$AA@ 00000001400bd688     libucrt:lcidtoname_downlevel.obj
 0002:0002c698       ??_C@_1M@KMKMOPHI@?$AAt?$AAa?$AA?9?$AAI?$AAN?$AA?$AA@ 00000001400bd698     libucrt:lcidtoname_downlevel.obj
 0002:0002c6a8       ??_C@_1M@KFEHEPAC@?$AAt?$AAe?$AA?9?$AAI?$AAN?$AA?$AA@ 00000001400bd6a8     libucrt:lcidtoname_downlevel.obj
 0002:0002c6b8       ??_C@_1M@CDCLMGHI@?$AAk?$AAn?$AA?9?$AAI?$AAN?$AA?$AA@ 00000001400bd6b8     libucrt:lcidtoname_downlevel.obj
 0002:0002c6c8       ??_C@_1M@MIODLDKF@?$AAm?$AAl?$AA?9?$AAI?$AAN?$AA?$AA@ 00000001400bd6c8     libucrt:lcidtoname_downlevel.obj
 0002:0002c6d8       ??_C@_1M@PBIEACPO@?$AAm?$AAr?$AA?9?$AAI?$AAN?$AA?$AA@ 00000001400bd6d8     libucrt:lcidtoname_downlevel.obj
 0002:0002c6e8       ??_C@_1M@NIDEAGPH@?$AAs?$AAa?$AA?9?$AAI?$AAN?$AA?$AA@ 00000001400bd6e8     libucrt:lcidtoname_downlevel.obj
 0002:0002c6f8       ??_C@_1M@FHIHCBIO@?$AAm?$AAn?$AA?9?$AAM?$AAN?$AA?$AA@ 00000001400bd6f8     libucrt:lcidtoname_downlevel.obj
 0002:0002c708       ??_C@_1M@JAIJPENP@?$AAc?$AAy?$AA?9?$AAG?$AAB?$AA?$AA@ 00000001400bd708     libucrt:lcidtoname_downlevel.obj
 0002:0002c718       ??_C@_1M@PHGFBEPN@?$AAg?$AAl?$AA?9?$AAE?$AAS?$AA?$AA@ 00000001400bd718     libucrt:lcidtoname_downlevel.obj
 0002:0002c728       ??_C@_1O@KPIPDNCP@?$AAk?$AAo?$AAk?$AA?9?$AAI?$AAN?$AA?$AA@ 00000001400bd728     libucrt:lcidtoname_downlevel.obj
 0002:0002c738       ??_C@_1O@KNHJLDJA@?$AAs?$AAy?$AAr?$AA?9?$AAS?$AAY?$AA?$AA@ 00000001400bd738     libucrt:lcidtoname_downlevel.obj
 0002:0002c748       ??_C@_1O@MKEKBLAH@?$AAd?$AAi?$AAv?$AA?9?$AAM?$AAV?$AA?$AA@ 00000001400bd748     libucrt:lcidtoname_downlevel.obj
 0002:0002c758       ??_C@_1O@OHDCKDDF@?$AAq?$AAu?$AAz?$AA?9?$AAB?$AAO?$AA?$AA@ 00000001400bd758     libucrt:lcidtoname_downlevel.obj
 0002:0002c768       ??_C@_1M@LEPJNLFD@?$AAn?$AAs?$AA?9?$AAZ?$AAA?$AA?$AA@ 00000001400bd768     libucrt:lcidtoname_downlevel.obj
 0002:0002c778       ??_C@_1M@OMLEIIJB@?$AAm?$AAi?$AA?9?$AAN?$AAZ?$AA?$AA@ 00000001400bd778     libucrt:lcidtoname_downlevel.obj
 0002:0002c788       ??_C@_1M@PMPEAILG@?$AAa?$AAr?$AA?9?$AAI?$AAQ?$AA?$AA@ 00000001400bd788     libucrt:lcidtoname_downlevel.obj
 0002:0002c798       ??_C@_1M@CNKPNOEE@?$AAd?$AAe?$AA?9?$AAC?$AAH?$AA?$AA@ 00000001400bd798     libucrt:lcidtoname_downlevel.obj
 0002:0002c7a8       ??_C@_1M@LKMGMLKO@?$AAe?$AAn?$AA?9?$AAG?$AAB?$AA?$AA@ 00000001400bd7a8     libucrt:lcidtoname_downlevel.obj
 0002:0002c7b8       ??_C@_1M@PGKJFFGL@?$AAe?$AAs?$AA?9?$AAM?$AAX?$AA?$AA@ 00000001400bd7b8     libucrt:lcidtoname_downlevel.obj
 0002:0002c7c8       ??_C@_1M@DNNANBDC@?$AAf?$AAr?$AA?9?$AAB?$AAE?$AA?$AA@ 00000001400bd7c8     libucrt:lcidtoname_downlevel.obj
 0002:0002c7d8       ??_C@_1M@HLGMDFHM@?$AAi?$AAt?$AA?9?$AAC?$AAH?$AA?$AA@ 00000001400bd7d8     libucrt:lcidtoname_downlevel.obj
 0002:0002c7e8       ??_C@_1M@CLLBGJH@?$AAn?$AAl?$AA?9?$AAB?$AAE?$AA?$AA@ 00000001400bd7e8     libucrt:lcidtoname_downlevel.obj
 0002:0002c7f8       ??_C@_1M@BODBOGLF@?$AAn?$AAn?$AA?9?$AAN?$AAO?$AA?$AA@ 00000001400bd7f8     libucrt:lcidtoname_downlevel.obj
 0002:0002c808       ??_C@_1M@HFFAHKAD@?$AAp?$AAt?$AA?9?$AAP?$AAT?$AA?$AA@ 00000001400bd808     libucrt:lcidtoname_downlevel.obj
 0002:0002c818       ??_C@_1BG@LNOAKHIE@?$AAs?$AAr?$AA?9?$AAS?$AAP?$AA?9?$AAL?$AAa?$AAt?$AAn?$AA?$AA@ 00000001400bd818     libucrt:lcidtoname_downlevel.obj
 0002:0002c830       ??_C@_1M@HBMHBGAK@?$AAs?$AAv?$AA?9?$AAF?$AAI?$AA?$AA@ 00000001400bd830     libucrt:lcidtoname_downlevel.obj
 0002:0002c840       ??_C@_1BG@DGCJGJBE@?$AAa?$AAz?$AA?9?$AAA?$AAZ?$AA?9?$AAC?$AAy?$AAr?$AAl?$AA?$AA@ 00000001400bd840     libucrt:lcidtoname_downlevel.obj
 0002:0002c858       ??_C@_1M@KEJDAAHB@?$AAs?$AAe?$AA?9?$AAS?$AAE?$AA?$AA@ 00000001400bd858     libucrt:lcidtoname_downlevel.obj
 0002:0002c868       ??_C@_1M@HEIBJJAD@?$AAm?$AAs?$AA?9?$AAB?$AAN?$AA?$AA@ 00000001400bd868     libucrt:lcidtoname_downlevel.obj
 0002:0002c878       ??_C@_1BG@PBGJMCEM@?$AAu?$AAz?$AA?9?$AAU?$AAZ?$AA?9?$AAC?$AAy?$AAr?$AAl?$AA?$AA@ 00000001400bd878     libucrt:lcidtoname_downlevel.obj
 0002:0002c890       ??_C@_1O@LAOBCMDF@?$AAq?$AAu?$AAz?$AA?9?$AAE?$AAC?$AA?$AA@ 00000001400bd890     libucrt:lcidtoname_downlevel.obj
 0002:0002c8a0       ??_C@_1M@POEEMAIO@?$AAa?$AAr?$AA?9?$AAE?$AAG?$AA?$AA@ 00000001400bd8a0     libucrt:lcidtoname_downlevel.obj
 0002:0002c8b0       ??_C@_1M@EFAKDEDL@?$AAz?$AAh?$AA?9?$AAH?$AAK?$AA?$AA@ 00000001400bd8b0     libucrt:lcidtoname_downlevel.obj
 0002:0002c8c0       ??_C@_1M@HKKIJHGI@?$AAd?$AAe?$AA?9?$AAA?$AAT?$AA?$AA@ 00000001400bd8c0     libucrt:lcidtoname_downlevel.obj
 0002:0002c8d0       ??_C@_1M@KBFBEHJF@?$AAe?$AAn?$AA?9?$AAA?$AAU?$AA?$AA@ 00000001400bd8d0     libucrt:lcidtoname_downlevel.obj
 0002:0002c8e0       ??_C@_1M@MNPLFAAH@?$AAe?$AAs?$AA?9?$AAE?$AAS?$AA?$AA@ 00000001400bd8e0     libucrt:lcidtoname_downlevel.obj
 0002:0002c8f0       ??_C@_1M@HJOOJFMA@?$AAf?$AAr?$AA?9?$AAC?$AAA?$AA?$AA@ 00000001400bd8f0     libucrt:lcidtoname_downlevel.obj
 0002:0002c900       ??_C@_1BG@JPOFPNAB@?$AAs?$AAr?$AA?9?$AAS?$AAP?$AA?9?$AAC?$AAy?$AAr?$AAl?$AA?$AA@ 00000001400bd900     libucrt:lcidtoname_downlevel.obj
 0002:0002c918       ??_C@_1M@LNFOCMOB@?$AAs?$AAe?$AA?9?$AAF?$AAI?$AA?$AA@ 00000001400bd918     libucrt:lcidtoname_downlevel.obj
 0002:0002c928       ??_C@_1O@MGJBOAMB@?$AAq?$AAu?$AAz?$AA?9?$AAP?$AAE?$AA?$AA@ 00000001400bd928     libucrt:lcidtoname_downlevel.obj
 0002:0002c938       ??_C@_1M@GJINLBOK@?$AAa?$AAr?$AA?9?$AAL?$AAY?$AA?$AA@ 00000001400bd938     libucrt:lcidtoname_downlevel.obj
 0002:0002c948       ??_C@_1M@GGMNHJNL@?$AAz?$AAh?$AA?9?$AAS?$AAG?$AA?$AA@ 00000001400bd948     libucrt:lcidtoname_downlevel.obj
 0002:0002c958       ??_C@_1M@HOIKODND@?$AAd?$AAe?$AA?9?$AAL?$AAU?$AA?$AA@ 00000001400bd958     libucrt:lcidtoname_downlevel.obj
 0002:0002c968       ??_C@_1M@DDOCCGFG@?$AAe?$AAn?$AA?9?$AAC?$AAA?$AA?$AA@ 00000001400bd968     libucrt:lcidtoname_downlevel.obj
 0002:0002c978       ??_C@_1M@BNOEMJLF@?$AAe?$AAs?$AA?9?$AAG?$AAT?$AA?$AA@ 00000001400bd978     libucrt:lcidtoname_downlevel.obj
 0002:0002c988       ??_C@_1M@EOGNKEK@?$AAf?$AAr?$AA?9?$AAC?$AAH?$AA?$AA@ 00000001400bd988     libucrt:lcidtoname_downlevel.obj
 0002:0002c998       ??_C@_1M@FLIDJFHL@?$AAh?$AAr?$AA?9?$AAB?$AAA?$AA?$AA@ 00000001400bd998     libucrt:lcidtoname_downlevel.obj
 0002:0002c9a8       ??_C@_1O@FMCELNAJ@?$AAs?$AAm?$AAj?$AA?9?$AAN?$AAO?$AA?$AA@ 00000001400bd9a8     libucrt:lcidtoname_downlevel.obj
 0002:0002c9b8       ??_C@_1M@JHGLJMGJ@?$AAa?$AAr?$AA?9?$AAD?$AAZ?$AA?$AA@ 00000001400bd9b8     libucrt:lcidtoname_downlevel.obj
 0002:0002c9c8       ??_C@_1M@JKKFDCNP@?$AAz?$AAh?$AA?9?$AAM?$AAO?$AA?$AA@ 00000001400bd9c8     libucrt:lcidtoname_downlevel.obj
 0002:0002c9d8       ??_C@_1M@GEEFALPE@?$AAd?$AAe?$AA?9?$AAL?$AAI?$AA?$AA@ 00000001400bd9d8     libucrt:lcidtoname_downlevel.obj
 0002:0002c9e8       ??_C@_1M@IGEOFBG@?$AAe?$AAn?$AA?9?$AAN?$AAZ?$AA?$AA@ 00000001400bd9e8     libucrt:lcidtoname_downlevel.obj
 0002:0002c9f8       ??_C@_1M@KDBONEHP@?$AAe?$AAs?$AA?9?$AAC?$AAR?$AA?$AA@ 00000001400bd9f8     libucrt:lcidtoname_downlevel.obj
 0002:0002ca08       ??_C@_1M@FHMDOHNN@?$AAf?$AAr?$AA?9?$AAL?$AAU?$AA?$AA@ 00000001400bda08     libucrt:lcidtoname_downlevel.obj
 0002:0002ca18       ??_C@_1BG@NFKKMAFG@?$AAb?$AAs?$AA?9?$AAB?$AAA?$AA?9?$AAL?$AAa?$AAt?$AAn?$AA?$AA@ 00000001400bda18     libucrt:lcidtoname_downlevel.obj
 0002:0002ca30       ??_C@_1O@IMNBEMCI@?$AAs?$AAm?$AAj?$AA?9?$AAS?$AAE?$AA?$AA@ 00000001400bda30     libucrt:lcidtoname_downlevel.obj
 0002:0002ca40       ??_C@_1M@DHHMBNDP@?$AAa?$AAr?$AA?9?$AAM?$AAA?$AA?$AA@ 00000001400bda40     libucrt:lcidtoname_downlevel.obj
 0002:0002ca50       ??_C@_1M@BNBLJCGH@?$AAe?$AAn?$AA?9?$AAI?$AAE?$AA?$AA@ 00000001400bda50     libucrt:lcidtoname_downlevel.obj
 0002:0002ca60       ??_C@_1M@GEPAFMDL@?$AAe?$AAs?$AA?9?$AAP?$AAA?$AA?$AA@ 00000001400bda60     libucrt:lcidtoname_downlevel.obj
 0002:0002ca70       ??_C@_1M@OJONDMDL@?$AAf?$AAr?$AA?9?$AAM?$AAC?$AA?$AA@ 00000001400bda70     libucrt:lcidtoname_downlevel.obj
 0002:0002ca80       ??_C@_1BG@OBCNFJB@?$AAs?$AAr?$AA?9?$AAB?$AAA?$AA?9?$AAL?$AAa?$AAt?$AAn?$AA?$AA@ 00000001400bda80     libucrt:lcidtoname_downlevel.obj
 0002:0002ca98       ??_C@_1O@KEMEEGPO@?$AAs?$AAm?$AAa?$AA?9?$AAN?$AAO?$AA?$AA@ 00000001400bda98     libucrt:lcidtoname_downlevel.obj
 0002:0002caa8       ??_C@_1M@ELMGFODK@?$AAa?$AAr?$AA?9?$AAT?$AAN?$AA?$AA@ 00000001400bdaa8     libucrt:lcidtoname_downlevel.obj
 0002:0002cab8       ??_C@_1M@BHDLHFAF@?$AAe?$AAn?$AA?9?$AAZ?$AAA?$AA?$AA@ 00000001400bdab8     libucrt:lcidtoname_downlevel.obj
 0002:0002cac8       ??_C@_1M@BMGIGLIF@?$AAe?$AAs?$AA?9?$AAD?$AAO?$AA?$AA@ 00000001400bdac8     libucrt:lcidtoname_downlevel.obj
 0002:0002cad8       ??_C@_1BG@CMBHIPBE@?$AAs?$AAr?$AA?9?$AAB?$AAA?$AA?9?$AAC?$AAy?$AAr?$AAl?$AA?$AA@ 00000001400bdad8     libucrt:lcidtoname_downlevel.obj
 0002:0002caf0       ??_C@_1O@HEDBLHNP@?$AAs?$AAm?$AAa?$AA?9?$AAS?$AAE?$AA?$AA@ 00000001400bdaf0     libucrt:lcidtoname_downlevel.obj
 0002:0002cb00       ??_C@_1M@DAGCADIM@?$AAa?$AAr?$AA?9?$AAO?$AAM?$AA?$AA@ 00000001400bdb00     libucrt:lcidtoname_downlevel.obj
 0002:0002cb10       ??_C@_1M@FODLMICG@?$AAe?$AAn?$AA?9?$AAJ?$AAM?$AA?$AA@ 00000001400bdb10     libucrt:lcidtoname_downlevel.obj
 0002:0002cb20       ??_C@_1M@DNMLCIHB@?$AAe?$AAs?$AA?9?$AAV?$AAE?$AA?$AA@ 00000001400bdb20     libucrt:lcidtoname_downlevel.obj
 0002:0002cb30       ??_C@_1O@EOKHMKJK@?$AAs?$AAm?$AAs?$AA?9?$AAF?$AAI?$AA?$AA@ 00000001400bdb30     libucrt:lcidtoname_downlevel.obj
 0002:0002cb40       ??_C@_1M@CAFJMKOF@?$AAa?$AAr?$AA?9?$AAY?$AAE?$AA?$AA@ 00000001400bdb40     libucrt:lcidtoname_downlevel.obj
 0002:0002cb50       ??_C@_1M@CBFHIJLI@?$AAe?$AAn?$AA?9?$AAC?$AAB?$AA?$AA@ 00000001400bdb50     libucrt:lcidtoname_downlevel.obj
 0002:0002cb60       ??_C@_1M@BGNFLDN@?$AAe?$AAs?$AA?9?$AAC?$AAO?$AA?$AA@ 00000001400bdb60     libucrt:lcidtoname_downlevel.obj
 0002:0002cb70       ??_C@_1O@JMPHMAMC@?$AAs?$AAm?$AAn?$AA?9?$AAF?$AAI?$AA?$AA@ 00000001400bdb70     libucrt:lcidtoname_downlevel.obj
 0002:0002cb80       ??_C@_1M@JLANABKE@?$AAa?$AAr?$AA?9?$AAS?$AAY?$AA?$AA@ 00000001400bdb80     libucrt:lcidtoname_downlevel.obj
 0002:0002cb90       ??_C@_1M@HPKGCFGN@?$AAe?$AAn?$AA?9?$AAB?$AAZ?$AA?$AA@ 00000001400bdb90     libucrt:lcidtoname_downlevel.obj
 0002:0002cba0       ??_C@_1M@OLJCMLGM@?$AAe?$AAs?$AA?9?$AAP?$AAE?$AA?$AA@ 00000001400bdba0     libucrt:lcidtoname_downlevel.obj
 0002:0002cbb0       ??_C@_1M@MKKGFKLE@?$AAa?$AAr?$AA?9?$AAJ?$AAO?$AA?$AA@ 00000001400bdbb0     libucrt:lcidtoname_downlevel.obj
 0002:0002cbc0       ??_C@_1M@EKPGLDNI@?$AAe?$AAn?$AA?9?$AAT?$AAT?$AA?$AA@ 00000001400bdbc0     libucrt:lcidtoname_downlevel.obj
 0002:0002cbd0       ??_C@_1M@OONGHFHE@?$AAe?$AAs?$AA?9?$AAA?$AAR?$AA?$AA@ 00000001400bdbd0     libucrt:lcidtoname_downlevel.obj
 0002:0002cbe0       ??_C@_1M@OOJFGBHE@?$AAa?$AAr?$AA?9?$AAL?$AAB?$AA?$AA@ 00000001400bdbe0     libucrt:lcidtoname_downlevel.obj
 0002:0002cbf0       ??_C@_1M@GCEJHNEG@?$AAe?$AAn?$AA?9?$AAZ?$AAW?$AA?$AA@ 00000001400bdbf0     libucrt:lcidtoname_downlevel.obj
 0002:0002cc00       ??_C@_1M@JNOCAHJI@?$AAe?$AAs?$AA?9?$AAE?$AAC?$AA?$AA@ 00000001400bdc00     libucrt:lcidtoname_downlevel.obj
 0002:0002cc10       ??_C@_1M@JEFHPGGB@?$AAa?$AAr?$AA?9?$AAK?$AAW?$AA?$AA@ 00000001400bdc10     libucrt:lcidtoname_downlevel.obj
 0002:0002cc20       ??_C@_1M@MLKIBJOJ@?$AAe?$AAn?$AA?9?$AAP?$AAH?$AA?$AA@ 00000001400bdc20     libucrt:lcidtoname_downlevel.obj
 0002:0002cc30       ??_C@_1M@BDNIPEND@?$AAe?$AAs?$AA?9?$AAC?$AAL?$AA?$AA@ 00000001400bdc30     libucrt:lcidtoname_downlevel.obj
 0002:0002cc40       ??_C@_1M@MPNMEKBD@?$AAa?$AAr?$AA?9?$AAA?$AAE?$AA?$AA@ 00000001400bdc40     libucrt:lcidtoname_downlevel.obj
 0002:0002cc50       ??_C@_1M@KBJALCPI@?$AAe?$AAs?$AA?9?$AAU?$AAY?$AA?$AA@ 00000001400bdc50     libucrt:lcidtoname_downlevel.obj
 0002:0002cc60       ??_C@_1M@LLCCOAGA@?$AAa?$AAr?$AA?9?$AAB?$AAH?$AA?$AA@ 00000001400bdc60     libucrt:lcidtoname_downlevel.obj
 0002:0002cc70       ??_C@_1M@PBFNCDEL@?$AAe?$AAs?$AA?9?$AAP?$AAY?$AA?$AA@ 00000001400bdc70     libucrt:lcidtoname_downlevel.obj
 0002:0002cc80       ??_C@_1M@EDGINPNP@?$AAa?$AAr?$AA?9?$AAQ?$AAA?$AA?$AA@ 00000001400bdc80     libucrt:lcidtoname_downlevel.obj
 0002:0002cc90       ??_C@_1M@MKDBIIJI@?$AAe?$AAs?$AA?9?$AAB?$AAO?$AA?$AA@ 00000001400bdc90     libucrt:lcidtoname_downlevel.obj
 0002:0002cca0       ??_C@_1M@CPKKEBLD@?$AAe?$AAs?$AA?9?$AAS?$AAV?$AA?$AA@ 00000001400bdca0     libucrt:lcidtoname_downlevel.obj
 0002:0002ccb0       ??_C@_1M@NDBGMMJL@?$AAe?$AAs?$AA?9?$AAH?$AAN?$AA?$AA@ 00000001400bdcb0     libucrt:lcidtoname_downlevel.obj
 0002:0002ccc0       ??_C@_1M@JIJIBHDP@?$AAe?$AAs?$AA?9?$AAN?$AAI?$AA?$AA@ 00000001400bdcc0     libucrt:lcidtoname_downlevel.obj
 0002:0002ccd0       ??_C@_1M@CGFMKEEK@?$AAe?$AAs?$AA?9?$AAP?$AAR?$AA?$AA@ 00000001400bdcd0     libucrt:lcidtoname_downlevel.obj
 0002:0002cce0       ??_C@_1O@ICJHKIIK@?$AAz?$AAh?$AA?9?$AAC?$AAH?$AAT?$AA?$AA@ 00000001400bdce0     libucrt:lcidtoname_downlevel.obj
 0002:0002ccf0       ??_C@_15CLNEJCE@?$AAs?$AAr?$AA?$AA@ 00000001400bdcf0     libucrt:lcidtoname_downlevel.obj
 0002:0002db40       ??_C@_1M@KAHEKEIG@?$AAa?$AAf?$AA?9?$AAz?$AAa?$AA?$AA@ 00000001400beb40     libucrt:lcidtoname_downlevel.obj
 0002:0002db50       ??_C@_1M@GIECOABL@?$AAa?$AAr?$AA?9?$AAa?$AAe?$AA?$AA@ 00000001400beb50     libucrt:lcidtoname_downlevel.obj
 0002:0002db60       ??_C@_1M@BMLMEKGI@?$AAa?$AAr?$AA?9?$AAb?$AAh?$AA?$AA@ 00000001400beb60     libucrt:lcidtoname_downlevel.obj
 0002:0002db70       ??_C@_1M@DAPFDGGB@?$AAa?$AAr?$AA?9?$AAd?$AAz?$AA?$AA@ 00000001400beb70     libucrt:lcidtoname_downlevel.obj
 0002:0002db80       ??_C@_1M@FJNKGKIG@?$AAa?$AAr?$AA?9?$AAe?$AAg?$AA?$AA@ 00000001400beb80     libucrt:lcidtoname_downlevel.obj
 0002:0002db90       ??_C@_1M@FLGKKCLO@?$AAa?$AAr?$AA?9?$AAi?$AAq?$AA?$AA@ 00000001400beb90     libucrt:lcidtoname_downlevel.obj
 0002:0002dba0       ??_C@_1M@GNDIPALM@?$AAa?$AAr?$AA?9?$AAj?$AAo?$AA?$AA@ 00000001400beba0     libucrt:lcidtoname_downlevel.obj
 0002:0002dbb0       ??_C@_1M@DDMJFMGJ@?$AAa?$AAr?$AA?9?$AAk?$AAw?$AA?$AA@ 00000001400bebb0     libucrt:lcidtoname_downlevel.obj
 0002:0002dbc0       ??_C@_1M@EJALMLHM@?$AAa?$AAr?$AA?9?$AAl?$AAb?$AA?$AA@ 00000001400bebc0     libucrt:lcidtoname_downlevel.obj
 0002:0002dbd0       ??_C@_1M@MOBDBLOC@?$AAa?$AAr?$AA?9?$AAl?$AAy?$AA?$AA@ 00000001400bebd0     libucrt:lcidtoname_downlevel.obj
 0002:0002dbe0       ??_C@_1M@JAOCLHDH@?$AAa?$AAr?$AA?9?$AAm?$AAa?$AA?$AA@ 00000001400bebe0     libucrt:lcidtoname_downlevel.obj
 0002:0002dbf0       ??_C@_1M@JHPMKJIE@?$AAa?$AAr?$AA?9?$AAo?$AAm?$AA?$AA@ 00000001400bebf0     libucrt:lcidtoname_downlevel.obj
 0002:0002dc00       ??_C@_1M@OEPGHFNH@?$AAa?$AAr?$AA?9?$AAq?$AAa?$AA?$AA@ 00000001400bec00     libucrt:lcidtoname_downlevel.obj
 0002:0002dc10       ??_C@_1M@KJDONENM@?$AAa?$AAr?$AA?9?$AAs?$AAa?$AA?$AA@ 00000001400bec10     libucrt:lcidtoname_downlevel.obj
 0002:0002dc20       ??_C@_1M@DMJDKLKM@?$AAa?$AAr?$AA?9?$AAs?$AAy?$AA?$AA@ 00000001400bec20     libucrt:lcidtoname_downlevel.obj
 0002:0002dc30       ??_C@_1M@OMFIPEDC@?$AAa?$AAr?$AA?9?$AAt?$AAn?$AA?$AA@ 00000001400bec30     libucrt:lcidtoname_downlevel.obj
 0002:0002dc40       ??_C@_1M@IHMHGAON@?$AAa?$AAr?$AA?9?$AAy?$AAe?$AA?$AA@ 00000001400bec40     libucrt:lcidtoname_downlevel.obj
 0002:0002dc50       ??_C@_1BG@KDCPGJGB@?$AAa?$AAz?$AA?9?$AAa?$AAz?$AA?9?$AAc?$AAy?$AAr?$AAl?$AA?$AA@ 00000001400bec50     libucrt:lcidtoname_downlevel.obj
 0002:0002dc68       ??_C@_1BG@IBCKDDOE@?$AAa?$AAz?$AA?9?$AAa?$AAz?$AA?9?$AAl?$AAa?$AAt?$AAn?$AA?$AA@ 00000001400bec68     libucrt:lcidtoname_downlevel.obj
 0002:0002dc80       ??_C@_1M@EGPFDCPD@?$AAb?$AAe?$AA?9?$AAb?$AAy?$AA?$AA@ 00000001400bec80     libucrt:lcidtoname_downlevel.obj
 0002:0002dc90       ??_C@_1M@PCMGMCGC@?$AAb?$AAg?$AA?9?$AAb?$AAg?$AA?$AA@ 00000001400bec90     libucrt:lcidtoname_downlevel.obj
 0002:0002dca0       ??_C@_1M@BJBMFGOB@?$AAb?$AAn?$AA?9?$AAi?$AAn?$AA?$AA@ 00000001400beca0     libucrt:lcidtoname_downlevel.obj
 0002:0002dcb0       ??_C@_1BG@EAKMMACD@?$AAb?$AAs?$AA?9?$AAb?$AAa?$AA?9?$AAl?$AAa?$AAt?$AAn?$AA?$AA@ 00000001400becb0     libucrt:lcidtoname_downlevel.obj
 0002:0002dcc8       ??_C@_1M@KGADAODK@?$AAc?$AAa?$AA?9?$AAe?$AAs?$AA?$AA@ 00000001400becc8     libucrt:lcidtoname_downlevel.obj
 0002:0002dcd8       ??_C@_1M@COAJPDHI@?$AAc?$AAs?$AA?9?$AAc?$AAz?$AA?$AA@ 00000001400becd8     libucrt:lcidtoname_downlevel.obj
 0002:0002dce8       ??_C@_1M@DHBHFONH@?$AAc?$AAy?$AA?9?$AAg?$AAb?$AA?$AA@ 00000001400bece8     libucrt:lcidtoname_downlevel.obj
 0002:0002dcf8       ??_C@_1M@IMGKELGA@?$AAd?$AAa?$AA?9?$AAd?$AAk?$AA?$AA@ 00000001400becf8     libucrt:lcidtoname_downlevel.obj
 0002:0002dd08       ??_C@_1M@NNDGDNGA@?$AAd?$AAe?$AA?9?$AAa?$AAt?$AA?$AA@ 00000001400bed08     libucrt:lcidtoname_downlevel.obj
 0002:0002dd18       ??_C@_1M@IKDBHEEM@?$AAd?$AAe?$AA?9?$AAc?$AAh?$AA?$AA@ 00000001400bed18     libucrt:lcidtoname_downlevel.obj
 0002:0002dd28       ??_C@_1M@GFFOJMCJ@?$AAd?$AAe?$AA?9?$AAd?$AAe?$AA?$AA@ 00000001400bed28     libucrt:lcidtoname_downlevel.obj
 0002:0002dd38       ??_C@_1M@MDNLKBPM@?$AAd?$AAe?$AA?9?$AAl?$AAi?$AA?$AA@ 00000001400bed38     libucrt:lcidtoname_downlevel.obj
 0002:0002dd48       ??_C@_1M@NJBEEJNL@?$AAd?$AAe?$AA?9?$AAl?$AAu?$AA?$AA@ 00000001400bed48     libucrt:lcidtoname_downlevel.obj
 0002:0002dd58       ??_C@_1O@GNNELBAP@?$AAd?$AAi?$AAv?$AA?9?$AAm?$AAv?$AA?$AA@ 00000001400bed58     libucrt:lcidtoname_downlevel.obj
 0002:0002dd68       ??_C@_1M@EJLEOGAE@?$AAe?$AAl?$AA?9?$AAg?$AAr?$AA?$AA@ 00000001400bed68     libucrt:lcidtoname_downlevel.obj
 0002:0002dd78       ??_C@_1M@GMPONJN@?$AAe?$AAn?$AA?9?$AAa?$AAu?$AA?$AA@ 00000001400bed78     libucrt:lcidtoname_downlevel.obj
 0002:0002dd88       ??_C@_1M@NIDIIPGF@?$AAe?$AAn?$AA?9?$AAb?$AAz?$AA?$AA@ 00000001400bed88     libucrt:lcidtoname_downlevel.obj
 0002:0002dd98       ??_C@_1M@JEHMIMFO@?$AAe?$AAn?$AA?9?$AAc?$AAa?$AA?$AA@ 00000001400bed98     libucrt:lcidtoname_downlevel.obj
 0002:0002dda8       ??_C@_1M@IGMJCDLA@?$AAe?$AAn?$AA?9?$AAc?$AAb?$AA?$AA@ 00000001400beda8     libucrt:lcidtoname_downlevel.obj
 0002:0002ddb8       ??_C@_1M@BNFIGBKG@?$AAe?$AAn?$AA?9?$AAg?$AAb?$AA?$AA@ 00000001400bedb8     libucrt:lcidtoname_downlevel.obj
 0002:0002ddc8       ??_C@_1M@LKIFDIGP@?$AAe?$AAn?$AA?9?$AAi?$AAe?$AA?$AA@ 00000001400bedc8     libucrt:lcidtoname_downlevel.obj
 0002:0002ddd8       ??_C@_1M@PJKFGCCO@?$AAe?$AAn?$AA?9?$AAj?$AAm?$AA?$AA@ 00000001400bedd8     libucrt:lcidtoname_downlevel.obj
 0002:0002dde8       ??_C@_1M@KPPKEPBO@?$AAe?$AAn?$AA?9?$AAn?$AAz?$AA?$AA@ 00000001400bede8     libucrt:lcidtoname_downlevel.obj
 0002:0002ddf8       ??_C@_1M@GMDGLDOB@?$AAe?$AAn?$AA?9?$AAp?$AAh?$AA?$AA@ 00000001400bedf8     libucrt:lcidtoname_downlevel.obj
 0002:0002de08       ??_C@_1M@ONGIBJNA@?$AAe?$AAn?$AA?9?$AAt?$AAt?$AA?$AA@ 00000001400bee08     libucrt:lcidtoname_downlevel.obj
 0002:0002de18       ??_C@_1M@LLODPCMM@?$AAe?$AAn?$AA?9?$AAu?$AAs?$AA?$AA@ 00000001400bee18     libucrt:lcidtoname_downlevel.obj
 0002:0002de28       ??_C@_1M@LAKFNPAN@?$AAe?$AAn?$AA?9?$AAz?$AAa?$AA?$AA@ 00000001400bee28     libucrt:lcidtoname_downlevel.obj
 0002:0002de38       ??_C@_1M@MFNHNHEO@?$AAe?$AAn?$AA?9?$AAz?$AAw?$AA?$AA@ 00000001400bee38     libucrt:lcidtoname_downlevel.obj
 0002:0002de48       ??_C@_1M@EJEINPHM@?$AAe?$AAs?$AA?9?$AAa?$AAr?$AA?$AA@ 00000001400bee48     libucrt:lcidtoname_downlevel.obj
 0002:0002de58       ??_C@_1M@GNKPCCJA@?$AAe?$AAs?$AA?9?$AAb?$AAo?$AA?$AA@ 00000001400bee58     libucrt:lcidtoname_downlevel.obj
 0002:0002de68       ??_C@_1M@LEEGFONL@?$AAe?$AAs?$AA?9?$AAc?$AAl?$AA?$AA@ 00000001400bee68     libucrt:lcidtoname_downlevel.obj
 0002:0002de78       ??_C@_1M@KGPDPBDF@?$AAe?$AAs?$AA?9?$AAc?$AAo?$AA?$AA@ 00000001400bee78     libucrt:lcidtoname_downlevel.obj
 0002:0002de88       ??_C@_1M@EIAHOHH@?$AAe?$AAs?$AA?9?$AAc?$AAr?$AA?$AA@ 00000001400bee88     libucrt:lcidtoname_downlevel.obj
 0002:0002de98       ??_C@_1M@LLPGMBIN@?$AAe?$AAs?$AA?9?$AAd?$AAo?$AA?$AA@ 00000001400bee98     libucrt:lcidtoname_downlevel.obj
 0002:0002dea8       ??_C@_1M@DKHMKNJA@?$AAe?$AAs?$AA?9?$AAe?$AAc?$AA?$AA@ 00000001400beea8     libucrt:lcidtoname_downlevel.obj
 0002:0002deb8       ??_C@_1M@GKGFPKAP@?$AAe?$AAs?$AA?9?$AAe?$AAs?$AA?$AA@ 00000001400beeb8     libucrt:lcidtoname_downlevel.obj
 0002:0002dec8       ??_C@_1M@LKHKGDLN@?$AAe?$AAs?$AA?9?$AAg?$AAt?$AA?$AA@ 00000001400beec8     libucrt:lcidtoname_downlevel.obj
 0002:0002ded8       ??_C@_1M@HEIIGGJD@?$AAe?$AAs?$AA?9?$AAh?$AAn?$AA?$AA@ 00000001400beed8     libucrt:lcidtoname_downlevel.obj
 0002:0002dee8       ??_C@_1M@FBDHPPGD@?$AAe?$AAs?$AA?9?$AAm?$AAx?$AA?$AA@ 00000001400beee8     libucrt:lcidtoname_downlevel.obj
 0002:0002def8       ??_C@_1M@DPAGLNDH@?$AAe?$AAs?$AA?9?$AAn?$AAi?$AA?$AA@ 00000001400beef8     libucrt:lcidtoname_downlevel.obj
 0002:0002df08       ??_C@_1M@MDGOPGDD@?$AAe?$AAs?$AA?9?$AAp?$AAa?$AA?$AA@ 00000001400bef08     libucrt:lcidtoname_downlevel.obj
 0002:0002df18       ??_C@_1M@EMAMGBGE@?$AAe?$AAs?$AA?9?$AAp?$AAe?$AA?$AA@ 00000001400bef18     libucrt:lcidtoname_downlevel.obj
 0002:0002df28       ??_C@_1M@IBMCAOEC@?$AAe?$AAs?$AA?9?$AAp?$AAr?$AA?$AA@ 00000001400bef28     libucrt:lcidtoname_downlevel.obj
 0002:0002df38       ??_C@_1M@FGMDIJED@?$AAe?$AAs?$AA?9?$AAp?$AAy?$AA?$AA@ 00000001400bef38     libucrt:lcidtoname_downlevel.obj
 0002:0002df48       ??_C@_1M@IIDEOLLL@?$AAe?$AAs?$AA?9?$AAs?$AAv?$AA?$AA@ 00000001400bef48     libucrt:lcidtoname_downlevel.obj
 0002:0002df58       ??_C@_1M@GAOBIPA@?$AAe?$AAs?$AA?9?$AAu?$AAy?$AA?$AA@ 00000001400bef58     libucrt:lcidtoname_downlevel.obj
 0002:0002df68       ??_C@_1M@JKFFICHJ@?$AAe?$AAs?$AA?9?$AAv?$AAe?$AA?$AA@ 00000001400bef68     libucrt:lcidtoname_downlevel.obj
 0002:0002df78       ??_C@_1M@PNMLOJDF@?$AAe?$AAt?$AA?9?$AAe?$AAe?$AA?$AA@ 00000001400bef78     libucrt:lcidtoname_downlevel.obj
 0002:0002df88       ??_C@_1M@GHHLIKEI@?$AAe?$AAu?$AA?9?$AAe?$AAs?$AA?$AA@ 00000001400bef88     libucrt:lcidtoname_downlevel.obj
 0002:0002df98       ??_C@_1M@PBNONODE@?$AAf?$AAa?$AA?9?$AAi?$AAr?$AA?$AA@ 00000001400bef98     libucrt:lcidtoname_downlevel.obj
 0002:0002dfa8       ??_C@_1M@JEEHPMIL@?$AAf?$AAi?$AA?9?$AAf?$AAi?$AA?$AA@ 00000001400befa8     libucrt:lcidtoname_downlevel.obj
 0002:0002dfb8       ??_C@_1M@LMDCNDBA@?$AAf?$AAo?$AA?9?$AAf?$AAo?$AA?$AA@ 00000001400befb8     libucrt:lcidtoname_downlevel.obj
 0002:0002dfc8       ??_C@_1M@JKEOHLDK@?$AAf?$AAr?$AA?9?$AAb?$AAe?$AA?$AA@ 00000001400befc8     libucrt:lcidtoname_downlevel.obj
 0002:0002dfd8       ??_C@_1M@NOHADPMI@?$AAf?$AAr?$AA?9?$AAc?$AAa?$AA?$AA@ 00000001400befd8     libucrt:lcidtoname_downlevel.obj
 0002:0002dfe8       ??_C@_1M@KDHIHAEC@?$AAf?$AAr?$AA?9?$AAc?$AAh?$AA?$AA@ 00000001400befe8     libucrt:lcidtoname_downlevel.obj
 0002:0002dff8       ??_C@_1M@MMBBFGAK@?$AAf?$AAr?$AA?9?$AAf?$AAr?$AA?$AA@ 00000001400beff8     libucrt:lcidtoname_downlevel.obj
 0002:0002e008       ??_C@_1M@PAFNENNF@?$AAf?$AAr?$AA?9?$AAl?$AAu?$AA?$AA@ 00000001400bf008     libucrt:lcidtoname_downlevel.obj
 0002:0002e018       ??_C@_1M@EOHDJGDD@?$AAf?$AAr?$AA?9?$AAm?$AAc?$AA?$AA@ 00000001400bf018     libucrt:lcidtoname_downlevel.obj
 0002:0002e028       ??_C@_1M@FAPLLOPF@?$AAg?$AAl?$AA?9?$AAe?$AAs?$AA?$AA@ 00000001400bf028     libucrt:lcidtoname_downlevel.obj
 0002:0002e038       ??_C@_1M@FOPBFLOO@?$AAg?$AAu?$AA?9?$AAi?$AAn?$AA?$AA@ 00000001400bf038     libucrt:lcidtoname_downlevel.obj
 0002:0002e048       ??_C@_1M@KBMCINPM@?$AAh?$AAe?$AA?9?$AAi?$AAl?$AA?$AA@ 00000001400bf048     libucrt:lcidtoname_downlevel.obj
 0002:0002e058       ??_C@_1M@BBPHKFPJ@?$AAh?$AAi?$AA?9?$AAi?$AAn?$AA?$AA@ 00000001400bf058     libucrt:lcidtoname_downlevel.obj
 0002:0002e068       ??_C@_1M@PMBNDPHD@?$AAh?$AAr?$AA?9?$AAb?$AAa?$AA?$AA@ 00000001400bf068     libucrt:lcidtoname_downlevel.obj
 0002:0002e078       ??_C@_1M@BPCKOEGE@?$AAh?$AAr?$AA?9?$AAh?$AAr?$AA?$AA@ 00000001400bf078     libucrt:lcidtoname_downlevel.obj
 0002:0002e088       ??_C@_1M@GACBMHKE@?$AAh?$AAu?$AA?9?$AAh?$AAu?$AA?$AA@ 00000001400bf088     libucrt:lcidtoname_downlevel.obj
 0002:0002e098       ??_C@_1M@MILPAJJC@?$AAh?$AAy?$AA?9?$AAa?$AAm?$AA?$AA@ 00000001400bf098     libucrt:lcidtoname_downlevel.obj
 0002:0002e0a8       ??_C@_1M@BABBICEC@?$AAi?$AAd?$AA?9?$AAi?$AAd?$AA?$AA@ 00000001400bf0a8     libucrt:lcidtoname_downlevel.obj
 0002:0002e0b8       ??_C@_1M@BIKNHHPF@?$AAi?$AAs?$AA?9?$AAi?$AAs?$AA?$AA@ 00000001400bf0b8     libucrt:lcidtoname_downlevel.obj
 0002:0002e0c8       ??_C@_1M@NMPCJPHE@?$AAi?$AAt?$AA?9?$AAc?$AAh?$AA?$AA@ 00000001400bf0c8     libucrt:lcidtoname_downlevel.obj
 0002:0002e0d8       ??_C@_1M@GHKGFEDF@?$AAi?$AAt?$AA?9?$AAi?$AAt?$AA?$AA@ 00000001400bf0d8     libucrt:lcidtoname_downlevel.obj
 0002:0002e0e8       ??_C@_1M@NIEJCJJA@?$AAj?$AAa?$AA?9?$AAj?$AAp?$AA?$AA@ 00000001400bf0e8     libucrt:lcidtoname_downlevel.obj
 0002:0002e0f8       ??_C@_1M@JILFNBIM@?$AAk?$AAa?$AA?9?$AAg?$AAe?$AA?$AA@ 00000001400bf0f8     libucrt:lcidtoname_downlevel.obj
 0002:0002e108       ??_C@_1M@PACPMGPH@?$AAk?$AAk?$AA?9?$AAk?$AAz?$AA?$AA@ 00000001400bf108     libucrt:lcidtoname_downlevel.obj
 0002:0002e118       ??_C@_1M@IELFGMHA@?$AAk?$AAn?$AA?9?$AAi?$AAn?$AA?$AA@ 00000001400bf118     libucrt:lcidtoname_downlevel.obj
 0002:0002e128       ??_C@_1O@IBBJHCH@?$AAk?$AAo?$AAk?$AA?9?$AAi?$AAn?$AA?$AA@ 00000001400bf128     libucrt:lcidtoname_downlevel.obj
 0002:0002e138       ??_C@_1M@DMHAEOGC@?$AAk?$AAo?$AA?9?$AAk?$AAr?$AA?$AA@ 00000001400bf138     libucrt:lcidtoname_downlevel.obj
 0002:0002e148       ??_C@_1M@HBAHBIGA@?$AAk?$AAy?$AA?9?$AAk?$AAg?$AA?$AA@ 00000001400bf148     libucrt:lcidtoname_downlevel.obj
 0002:0002e158       ??_C@_1M@KPMILCJG@?$AAl?$AAt?$AA?9?$AAl?$AAt?$AA?$AA@ 00000001400bf158     libucrt:lcidtoname_downlevel.obj
 0002:0002e168       ??_C@_1M@BDEKKCA@?$AAl?$AAv?$AA?9?$AAl?$AAv?$AA?$AA@ 00000001400bf168     libucrt:lcidtoname_downlevel.obj
 0002:0002e178       ??_C@_1M@ELCKCCJJ@?$AAm?$AAi?$AA?9?$AAn?$AAz?$AA?$AA@ 00000001400bf178     libucrt:lcidtoname_downlevel.obj
 0002:0002e188       ??_C@_1M@CBOOLAPA@?$AAm?$AAk?$AA?9?$AAm?$AAk?$AA?$AA@ 00000001400bf188     libucrt:lcidtoname_downlevel.obj
 0002:0002e198       ??_C@_1M@GPHNBJKN@?$AAm?$AAl?$AA?9?$AAi?$AAn?$AA?$AA@ 00000001400bf198     libucrt:lcidtoname_downlevel.obj
 0002:0002e1a8       ??_C@_1M@PABJILIG@?$AAm?$AAn?$AA?9?$AAm?$AAn?$AA?$AA@ 00000001400bf1a8     libucrt:lcidtoname_downlevel.obj
 0002:0002e1b8       ??_C@_1M@FGBKKIPG@?$AAm?$AAr?$AA?9?$AAi?$AAn?$AA?$AA@ 00000001400bf1b8     libucrt:lcidtoname_downlevel.obj
 0002:0002e1c8       ??_C@_1M@NDBPDDAL@?$AAm?$AAs?$AA?9?$AAb?$AAn?$AA?$AA@ 00000001400bf1c8     libucrt:lcidtoname_downlevel.obj
 0002:0002e1d8       ??_C@_1M@OPIHOOPI@?$AAm?$AAs?$AA?9?$AAm?$AAy?$AA?$AA@ 00000001400bf1d8     libucrt:lcidtoname_downlevel.obj
 0002:0002e1e8       ??_C@_1M@PPDBCNFM@?$AAm?$AAt?$AA?9?$AAm?$AAt?$AA?$AA@ 00000001400bf1e8     libucrt:lcidtoname_downlevel.obj
 0002:0002e1f8       ??_C@_1M@KDJDKMDD@?$AAn?$AAb?$AA?9?$AAn?$AAo?$AA?$AA@ 00000001400bf1f8     libucrt:lcidtoname_downlevel.obj
 0002:0002e208       ??_C@_1M@KFCFLMJP@?$AAn?$AAl?$AA?9?$AAb?$AAe?$AA?$AA@ 00000001400bf208     libucrt:lcidtoname_downlevel.obj
 0002:0002e218       ??_C@_1M@KPOPDDGO@?$AAn?$AAl?$AA?9?$AAn?$AAl?$AA?$AA@ 00000001400bf218     libucrt:lcidtoname_downlevel.obj
 0002:0002e228       ??_C@_1M@LJKPEMLN@?$AAn?$AAn?$AA?9?$AAn?$AAo?$AA?$AA@ 00000001400bf228     libucrt:lcidtoname_downlevel.obj
 0002:0002e238       ??_C@_1M@BDGHHBFL@?$AAn?$AAs?$AA?9?$AAz?$AAa?$AA?$AA@ 00000001400bf238     libucrt:lcidtoname_downlevel.obj
 0002:0002e248       ??_C@_1M@IDEHOAP@?$AAp?$AAa?$AA?9?$AAi?$AAn?$AA?$AA@ 00000001400bf248     libucrt:lcidtoname_downlevel.obj
 0002:0002e258       ??_C@_1M@HDBKGOGH@?$AAp?$AAl?$AA?9?$AAp?$AAl?$AA?$AA@ 00000001400bf258     libucrt:lcidtoname_downlevel.obj
 0002:0002e268       ??_C@_1M@LJLLCMEH@?$AAp?$AAt?$AA?9?$AAb?$AAr?$AA?$AA@ 00000001400bf268     libucrt:lcidtoname_downlevel.obj
 0002:0002e278       ??_C@_1M@NCMONAAL@?$AAp?$AAt?$AA?9?$AAp?$AAt?$AA?$AA@ 00000001400bf278     libucrt:lcidtoname_downlevel.obj
 0002:0002e288       ??_C@_1O@EAKMAJDN@?$AAq?$AAu?$AAz?$AA?9?$AAb?$AAo?$AA?$AA@ 00000001400bf288     libucrt:lcidtoname_downlevel.obj
 0002:0002e298       ??_C@_1O@BHHPIGDN@?$AAq?$AAu?$AAz?$AA?9?$AAe?$AAc?$AA?$AA@ 00000001400bf298     libucrt:lcidtoname_downlevel.obj
 0002:0002e2a8       ??_C@_1O@GBAPEKMJ@?$AAq?$AAu?$AAz?$AA?9?$AAp?$AAe?$AA?$AA@ 00000001400bf2a8     libucrt:lcidtoname_downlevel.obj
 0002:0002e2b8       ??_C@_1M@CLGLEFBO@?$AAr?$AAo?$AA?9?$AAr?$AAo?$AA?$AA@ 00000001400bf2b8     libucrt:lcidtoname_downlevel.obj
 0002:0002e2c8       ??_C@_1M@CEEDODME@?$AAr?$AAu?$AA?9?$AAr?$AAu?$AA?$AA@ 00000001400bf2c8     libucrt:lcidtoname_downlevel.obj
 0002:0002e2d8       ??_C@_1M@HPKKKMPP@?$AAs?$AAa?$AA?9?$AAi?$AAn?$AA?$AA@ 00000001400bf2d8     libucrt:lcidtoname_downlevel.obj
 0002:0002e2e8       ??_C@_1M@BKMAIGOJ@?$AAs?$AAe?$AA?9?$AAf?$AAi?$AA?$AA@ 00000001400bf2e8     libucrt:lcidtoname_downlevel.obj
 0002:0002e2f8       ??_C@_1M@NDPIFLFI@?$AAs?$AAe?$AA?9?$AAn?$AAo?$AA?$AA@ 00000001400bf2f8     libucrt:lcidtoname_downlevel.obj
 0002:0002e308       ??_C@_1M@DANKKHJ@?$AAs?$AAe?$AA?9?$AAs?$AAe?$AA?$AA@ 00000001400bf308     libucrt:lcidtoname_downlevel.obj
 0002:0002e318       ??_C@_1M@PNBLONPJ@?$AAs?$AAk?$AA?9?$AAs?$AAk?$AA?$AA@ 00000001400bf318     libucrt:lcidtoname_downlevel.obj
 0002:0002e328       ??_C@_1M@LFMODOAL@?$AAs?$AAl?$AA?9?$AAs?$AAi?$AA?$AA@ 00000001400bf328     libucrt:lcidtoname_downlevel.obj
 0002:0002e338       ??_C@_1O@DFKOMPG@?$AAs?$AAm?$AAa?$AA?9?$AAn?$AAo?$AA?$AA@ 00000001400bf338     libucrt:lcidtoname_downlevel.obj
 0002:0002e348       ??_C@_1O@NDKPBNNH@?$AAs?$AAm?$AAa?$AA?9?$AAs?$AAe?$AA?$AA@ 00000001400bf348     libucrt:lcidtoname_downlevel.obj
 0002:0002e358       ??_C@_1O@PLLKBHAB@?$AAs?$AAm?$AAj?$AA?9?$AAn?$AAo?$AA?$AA@ 00000001400bf358     libucrt:lcidtoname_downlevel.obj
 0002:0002e368       ??_C@_1O@CLEPOGCA@?$AAs?$AAm?$AAj?$AA?9?$AAs?$AAe?$AA?$AA@ 00000001400bf368     libucrt:lcidtoname_downlevel.obj
 0002:0002e378       ??_C@_1O@DLGJGKMK@?$AAs?$AAm?$AAn?$AA?9?$AAf?$AAi?$AA?$AA@ 00000001400bf378     libucrt:lcidtoname_downlevel.obj
 0002:0002e388       ??_C@_1O@OJDJGAJC@?$AAs?$AAm?$AAs?$AA?9?$AAf?$AAi?$AA?$AA@ 00000001400bf388     libucrt:lcidtoname_downlevel.obj
 0002:0002e398       ??_C@_1M@BOFOGHPB@?$AAs?$AAq?$AA?9?$AAa?$AAl?$AA?$AA@ 00000001400bf398     libucrt:lcidtoname_downlevel.obj
 0002:0002e3a8       ??_C@_1BG@LJBBIPGB@?$AAs?$AAr?$AA?9?$AAb?$AAa?$AA?9?$AAc?$AAy?$AAr?$AAl?$AA?$AA@ 00000001400bf3a8     libucrt:lcidtoname_downlevel.obj
 0002:0002e3c0       ??_C@_1BG@JLBENFOE@?$AAs?$AAr?$AA?9?$AAb?$AAa?$AA?9?$AAl?$AAa?$AAt?$AAn?$AA?$AA@ 00000001400bf3c0     libucrt:lcidtoname_downlevel.obj
 0002:0002e3d8       ??_C@_1BG@KODPNHE@?$AAs?$AAr?$AA?9?$AAs?$AAp?$AA?9?$AAc?$AAy?$AAr?$AAl?$AA?$AA@ 00000001400bf3d8     libucrt:lcidtoname_downlevel.obj
 0002:0002e3f0       ??_C@_1BG@CIOGKHPB@?$AAs?$AAr?$AA?9?$AAs?$AAp?$AA?9?$AAl?$AAa?$AAt?$AAn?$AA?$AA@ 00000001400bf3f0     libucrt:lcidtoname_downlevel.obj
 0002:0002e408       ??_C@_1M@NGFJLMAC@?$AAs?$AAv?$AA?9?$AAf?$AAi?$AA?$AA@ 00000001400bf408     libucrt:lcidtoname_downlevel.obj
 0002:0002e418       ??_C@_1M@MPJEJAJC@?$AAs?$AAv?$AA?9?$AAs?$AAe?$AA?$AA@ 00000001400bf418     libucrt:lcidtoname_downlevel.obj
 0002:0002e428       ??_C@_1M@MPNDHLFK@?$AAs?$AAw?$AA?9?$AAk?$AAe?$AA?$AA@ 00000001400bf428     libucrt:lcidtoname_downlevel.obj
 0002:0002e438       ??_C@_1O@KOHBJJI@?$AAs?$AAy?$AAr?$AA?9?$AAs?$AAy?$AA?$AA@ 00000001400bf438     libucrt:lcidtoname_downlevel.obj
 0002:0002e448       ??_C@_1M@LDCEFHA@?$AAt?$AAa?$AA?9?$AAi?$AAn?$AA?$AA@ 00000001400bf448     libucrt:lcidtoname_downlevel.obj
 0002:0002e458       ??_C@_1M@CNJOFAK@?$AAt?$AAe?$AA?9?$AAi?$AAn?$AA?$AA@ 00000001400bf458     libucrt:lcidtoname_downlevel.obj
 0002:0002e468       ??_C@_1M@GNAECACD@?$AAt?$AAh?$AA?9?$AAt?$AAh?$AA?$AA@ 00000001400bf468     libucrt:lcidtoname_downlevel.obj
 0002:0002e478       ??_C@_1M@CHBIHOJO@?$AAt?$AAn?$AA?9?$AAz?$AAa?$AA?$AA@ 00000001400bf478     libucrt:lcidtoname_downlevel.obj
 0002:0002e488       ??_C@_1M@GCCMIGPJ@?$AAt?$AAr?$AA?9?$AAt?$AAr?$AA?$AA@ 00000001400bf488     libucrt:lcidtoname_downlevel.obj
 0002:0002e498       ??_C@_1M@CELMCNBK@?$AAt?$AAt?$AA?9?$AAr?$AAu?$AA?$AA@ 00000001400bf498     libucrt:lcidtoname_downlevel.obj
 0002:0002e4a8       ??_C@_1M@KLMCELGA@?$AAu?$AAk?$AA?9?$AAu?$AAa?$AA?$AA@ 00000001400bf4a8     libucrt:lcidtoname_downlevel.obj
 0002:0002e4b8       ??_C@_1M@EPAJJAJF@?$AAu?$AAr?$AA?9?$AAp?$AAk?$AA?$AA@ 00000001400bf4b8     libucrt:lcidtoname_downlevel.obj
 0002:0002e4c8       ??_C@_1BG@GEGPMCDJ@?$AAu?$AAz?$AA?9?$AAu?$AAz?$AA?9?$AAc?$AAy?$AAr?$AAl?$AA?$AA@ 00000001400bf4c8     libucrt:lcidtoname_downlevel.obj
 0002:0002e4e0       ??_C@_1BG@EGGKJILM@?$AAu?$AAz?$AA?9?$AAu?$AAz?$AA?9?$AAl?$AAa?$AAt?$AAn?$AA?$AA@ 00000001400bf4e0     libucrt:lcidtoname_downlevel.obj
 0002:0002e4f8       ??_C@_1M@GFOCLFF@?$AAv?$AAi?$AA?9?$AAv?$AAn?$AA?$AA@ 00000001400bf4f8     libucrt:lcidtoname_downlevel.obj
 0002:0002e508       ??_C@_1M@CPAMEDFI@?$AAx?$AAh?$AA?9?$AAz?$AAa?$AA?$AA@ 00000001400bf508     libucrt:lcidtoname_downlevel.obj
 0002:0002e518       ??_C@_1O@EBKIFIGN@?$AAz?$AAh?$AA?9?$AAc?$AAh?$AAs?$AA?$AA@ 00000001400bf518     libucrt:lcidtoname_downlevel.obj
 0002:0002e528       ??_C@_1O@NMHPGANE@?$AAz?$AAh?$AA?9?$AAc?$AAh?$AAt?$AA?$AA@ 00000001400bf528     libucrt:lcidtoname_downlevel.obj
 0002:0002e538       ??_C@_1M@LPINJOMC@?$AAz?$AAh?$AA?9?$AAc?$AAn?$AA?$AA@ 00000001400bf538     libucrt:lcidtoname_downlevel.obj
 0002:0002e548       ??_C@_1M@OCJEJODD@?$AAz?$AAh?$AA?9?$AAh?$AAk?$AA?$AA@ 00000001400bf548     libucrt:lcidtoname_downlevel.obj
 0002:0002e558       ??_C@_1M@DNDLJINH@?$AAz?$AAh?$AA?9?$AAm?$AAo?$AA?$AA@ 00000001400bf558     libucrt:lcidtoname_downlevel.obj
 0002:0002e568       ??_C@_1M@MBFDNDND@?$AAz?$AAh?$AA?9?$AAs?$AAg?$AA?$AA@ 00000001400bf568     libucrt:lcidtoname_downlevel.obj
 0002:0002e578       ??_C@_1M@IMEPLEPE@?$AAz?$AAh?$AA?9?$AAt?$AAw?$AA?$AA@ 00000001400bf578     libucrt:lcidtoname_downlevel.obj
 0002:0002e588       ??_C@_1M@BBGHNHJP@?$AAz?$AAu?$AA?9?$AAz?$AAa?$AA?$AA@ 00000001400bf588     libucrt:lcidtoname_downlevel.obj
 0002:0002e7f0       ??_C@_1BA@BALFACEM@?$AAC?$AAO?$AAN?$AAO?$AAU?$AAT?$AA$?$AA?$AA@ 00000001400bf7f0     libucrt:initcon.obj
 0002:0002e800       __log10_256_lead           00000001400bf800     libucrt:log10_256_lead_tail_table.obj
 0002:0002f010       __log10_256_tail           00000001400c0010     libucrt:log10_256_lead_tail_table.obj
 0002:0002f820       ??_7type_info@@6B@         00000001400c0820     LIBCMT:std_type_info_static.obj
 0002:0002f890       _load_config_used          00000001400c0890     LIBCMT:loadcfg.obj
 0002:0002f990       _tls_used                  00000001400c0990     LIBCMT:tlssup.obj
 0002:0002f9b8       ??_R4exception@std@@6B@    00000001400c09b8     libvcruntime:frame.obj
 0002:0002f9e0       ??_R3exception@std@@8      00000001400c09e0     libvcruntime:frame.obj
 0002:0002f9f8       ??_R2exception@std@@8      00000001400c09f8     libvcruntime:frame.obj
 0002:0002fa08       ??_R1A@?0A@EA@exception@std@@8 00000001400c0a08     libvcruntime:frame.obj
 0002:0002fa30       ??_R4bad_exception@std@@6B@ 00000001400c0a30     libvcruntime:frame.obj
 0002:0002fa58       ??_R3bad_exception@std@@8  00000001400c0a58     libvcruntime:frame.obj
 0002:0002fa70       ??_R2bad_exception@std@@8  00000001400c0a70     libvcruntime:frame.obj
 0002:0002fa88       ??_R1A@?0A@EA@bad_exception@std@@8 00000001400c0a88     libvcruntime:frame.obj
 0002:0002fab0       ??_R4type_info@@6B@        00000001400c0ab0     LIBCMT:std_type_info_static.obj
 0002:0002fad8       ??_R3type_info@@8          00000001400c0ad8     LIBCMT:std_type_info_static.obj
 0002:0002faf0       ??_R2type_info@@8          00000001400c0af0     LIBCMT:std_type_info_static.obj
 0002:0002fb00       ??_R1A@?0A@EA@type_info@@8 00000001400c0b00     LIBCMT:std_type_info_static.obj
 0002:0002fe98       __rtc_iaa                  00000001400c0e98     LIBCMT:initsect.obj
 0002:0002fea0       __rtc_izz                  00000001400c0ea0     LIBCMT:initsect.obj
 0002:0002fea8       __rtc_taa                  00000001400c0ea8     LIBCMT:initsect.obj
 0002:0002feb0       __rtc_tzz                  00000001400c0eb0     LIBCMT:initsect.obj
 0002:0002feb8       _tls_start                 00000001400c0eb8     LIBCMT:tlssup.obj
 0002:0002febc       _Init_thread_epoch         00000001400c0ebc     LIBCMT:thread_safe_statics.obj
 0002:0002fec0       _tls_end                   00000001400c0ec0     LIBCMT:tlssup.obj
 0002:000345a8       _TI2?AVbad_exception@std@@ 00000001400c55a8     libvcruntime:frame.obj
 0002:000345c8       _CTA2?AVbad_exception@std@@ 00000001400c55c8     libvcruntime:frame.obj
 0002:000345e0       _CT??_R0?AVbad_exception@std@@@8??0bad_exception@std@@QEAA@AEBV01@@Z24 00000001400c55e0     libvcruntime:frame.obj
 0002:00034608       _CT??_R0?AVexception@std@@@8??0exception@std@@QEAA@AEBV01@@Z24 00000001400c5608     libvcruntime:frame.obj
 0002:0003462c       __IMPORT_DESCRIPTOR_KERNEL32 00000001400c562c     kernel32:KERNEL32.dll
 0002:00034640       __IMPORT_DESCRIPTOR_USER32 00000001400c5640     user32:USER32.dll
 0002:00034654       __IMPORT_DESCRIPTOR_SHELL32 00000001400c5654     shell32:SHELL32.dll
 0002:00034668       __IMPORT_DESCRIPTOR_GDI32  00000001400c5668     gdi32:GDI32.dll
 0002:0003467c       __NULL_IMPORT_DESCRIPTOR   00000001400c567c     kernel32:KERNEL32.dll
 0003:0001d9e0       _glfwDefaultMappings       00000001400e49e0     glfw3:init.obj
 0003:0001eb00       __security_cookie_complement 00000001400e5b00     LIBCMT:gs_cookie.obj
 0003:0001eb08       __security_cookie          00000001400e5b08     LIBCMT:gs_cookie.obj
 0003:0001eb10       _fltused                   00000001400e5b10     LIBCMT:fltused.obj
 0003:0001eb14       _Init_global_epoch         00000001400e5b14     LIBCMT:thread_safe_statics.obj
 0003:0001eb18       __scrt_native_dllmain_reason 00000001400e5b18     LIBCMT:utility.obj
 0003:0001eb1c       __scrt_default_matherr     00000001400e5b1c     LIBCMT:matherr.obj
 0003:0001eb20       __isa_available            00000001400e5b20     LIBCMT:cpu_disp.obj
 0003:0001eb24       __isa_enabled              00000001400e5b24     LIBCMT:cpu_disp.obj
 0003:0001eb28       __memcpy_nt_iters          00000001400e5b28     LIBCMT:cpu_disp.obj
 0003:0001eb50       _iob                       00000001400e5b50     libucrt:_file.obj
 0003:0001ec60       __abort_behavior           00000001400e5c60     libucrt:abort.obj
 0003:0001ec68       _pwctype                   00000001400e5c68     libucrt:ctype.obj
 0003:0001ec80       __acrt_initial_locale_data 00000001400e5c80     libucrt:nlsdata.obj
 0003:0001edd8       __acrt_initial_locale_pointers 00000001400e5dd8     libucrt:nlsdata.obj
 0003:0001ede8       __acrt_wide_c_locale_string 00000001400e5de8     libucrt:nlsdata.obj
 0003:0001edf0       _lookuptrailbytes          00000001400e5df0     libucrt:read.obj
 0003:0001eef0       __badioinfo                00000001400e5ef0     libucrt:ioinit.obj
 0003:0001f300       __acrt_initial_multibyte_data 00000001400e6300     libucrt:mbctype.obj
 0003:0001f530       __acrt_lconv_c             00000001400e6530     libucrt:localeconv.obj
 0003:0001f5c8       __acrt_lconv_static_decimal 00000001400e65c8     libucrt:localeconv.obj
 0003:0001f5cc       __acrt_lconv_static_W_decimal 00000001400e65cc     libucrt:localeconv.obj
 0003:0001f5d0       __globallocalestatus       00000001400e65d0     libucrt:glstatus.obj
 0003:0001f5f0       ??_R0?AVbad_exception@std@@@8 00000001400e65f0     libvcruntime:frame.obj
 0003:0001f618       ??_R0?AVexception@std@@@8  00000001400e6618     libvcruntime:frame.obj
 0003:0001f640       ??_R0?AVtype_info@@@8      00000001400e6640     LIBCMT:std_type_info_static.obj
 0003:0001f660       ?blank_texture@@3UTexture@@A 00000001400e6660     asset_storage.obj
 0003:0001fa90       ?blank_shader@@3UShader@@A 00000001400e6a90     asset_storage.obj
 0003:00020ff0       ?_OptionsStorage@?1??__local_stdio_printf_options@@9@4_KA 00000001400e7ff0     asset_storage.obj
 0003:00021000       ?initialized_vao@@3HA      00000001400e8000     draw.obj
 0003:00021010       ?renderer_state@@3URenderer_State@@A 00000001400e8010     draw.obj
 0003:00021188       ?filewatch_error_reason@@3PEBDEB 00000001400e8188     game.obj
 0003:00021190       ?old_window_size@@3U?$vec@$01M$0A@@glm@@A 00000001400e8190     game.obj
 0003:00021198       ?player_entity@@3PEAUPlayer@@EA 00000001400e8198     game.obj
 0003:000211a0       ?main_tile_map@@3PEAUTile_Map@@EA 00000001400e81a0     game.obj
 0003:000211a8       ?last_selected_entity@@3PEAUEntity@@EA 00000001400e81a8     game.obj
 0003:000211b0       ?diff_on_selection@@3U?$vec@$01M$0A@@glm@@A 00000001400e81b0     game.obj
 0003:000212c8       ?_logger@@3PEAULogger@@EA  00000001400e82c8     logger.obj
 0003:00021320       _glfw                      00000001400e8320     glfw3:init.obj
 0003:000236e0       _tls_index                 00000001400ea6e0     LIBCMT:tlssup.obj
 0003:00023c60       __scrt_current_native_startup_state 00000001400eac60     LIBCMT:utility.obj
 0003:00023c68       __scrt_native_startup_lock 00000001400eac68     LIBCMT:utility.obj
 0003:00023ca8       __scrt_debugger_hook_flag  00000001400eaca8     LIBCMT:utility_desktop.obj
 0003:00023cb0       ?__type_info_root_node@@3U__type_info_node@@A 00000001400eacb0     LIBCMT:tncleanup.obj
 0003:00023cc0       __favor                    00000001400eacc0     LIBCMT:cpu_disp.obj
 0003:00023cc8       ?__WinRTOutOfMemoryExceptionCallback@@3P6APEAXXZEA 00000001400eacc8     libvcruntime:ehhelpers.obj
 0003:00023dd0       __pPurecall                00000001400eadd0     libvcruntime:purevirt_data.obj
 0003:00023dd8       ?pArgList@UnDecorator@@0PEAVReplicator@@EA 00000001400eadd8     libvcruntime:undname.obj
 0003:00023de0       ?pZNameList@UnDecorator@@0PEAVReplicator@@EA 00000001400eade0     libvcruntime:undname.obj
 0003:00023de8       ?pTemplateArgList@UnDecorator@@0PEAVReplicator@@EA 00000001400eade8     libvcruntime:undname.obj
 0003:00023df0       ?gName@UnDecorator@@0PEBDEB 00000001400eadf0     libvcruntime:undname.obj
 0003:00023df8       ?name@UnDecorator@@0PEBDEB 00000001400eadf8     libvcruntime:undname.obj
 0003:00023e00       ?disableFlags@UnDecorator@@0KA 00000001400eae00     libvcruntime:undname.obj
 0003:00023e04       ?fExplicitTemplateParams@UnDecorator@@0_NA 00000001400eae04     libvcruntime:undname.obj
 0003:00023e05       ?fGetTemplateArgumentList@UnDecorator@@0_NA 00000001400eae05     libvcruntime:undname.obj
 0003:00023e08       ?m_pGetParameter@UnDecorator@@0P6APEADJ@ZEA 00000001400eae08     libvcruntime:undname.obj
 0003:00023e10       ?m_CHPENameOffset@UnDecorator@@0KA 00000001400eae10     libvcruntime:undname.obj
 0003:00023e14       ?m_recursionLevel@UnDecorator@@0KA 00000001400eae14     libvcruntime:undname.obj
 0003:00023e40       _nstream                   00000001400eae40     libucrt:_file.obj
 0003:00023e48       __piob                     00000001400eae48     libucrt:_file.obj
 0003:00023e50       _cflush                    00000001400eae50     libucrt:_file.obj
 0003:00023e60       ?c_exit_complete@?1???R<lambda_6e4b09c48022b2350581041d5f6b0c4c>@@QEBA@XZ@4_NA 00000001400eae60     libucrt:exit.obj
 0003:00023f78       _environ_table             00000001400eaf78     libucrt:environment_initialization.obj
 0003:00023f80       _wenviron_table            00000001400eaf80     libucrt:environment_initialization.obj
 0003:00023f88       __dcrt_initial_wide_environment 00000001400eaf88     libucrt:environment_initialization.obj
 0003:00023f90       __dcrt_initial_narrow_environment 00000001400eaf90     libucrt:environment_initialization.obj
 0003:00023f98       _pgmptr                    00000001400eaf98     libucrt:argv_data.obj
 0003:00023fa0       __argc                     00000001400eafa0     libucrt:argv_data.obj
 0003:00023fa8       __argv                     00000001400eafa8     libucrt:argv_data.obj
 0003:00023fb0       __wargv                    00000001400eafb0     libucrt:argv_data.obj
 0003:00023fb8       _acmdln                    00000001400eafb8     libucrt:argv_data.obj
 0003:00023fc0       _wcmdln                    00000001400eafc0     libucrt:argv_data.obj
 0003:00023fc8       __acrt_locale_changed_data 00000001400eafc8     libucrt:wsetlocale.obj
 0003:00023fd0       _commode                   00000001400eafd0     libucrt:ncommode.obj
 0003:00023fd8       __acrt_atexit_table        00000001400eafd8     libucrt:onexit.obj
 0003:00023ff0       __acrt_at_quick_exit_table 00000001400eaff0     libucrt:onexit.obj
 0003:00024038       __acrt_current_locale_data 00000001400eb038     libucrt:nlsdata.obj
 0003:00024040       __pioinfo                  00000001400eb040     libucrt:ioinit.obj
 0003:00024440       _nhandle                   00000001400eb440     libucrt:ioinit.obj
 0003:00024458       __acrt_stdout_buffer       00000001400eb458     libucrt:_sftbuf.obj
 0003:00024460       __acrt_stderr_buffer       00000001400eb460     libucrt:_sftbuf.obj
 0003:00024468       __fma3_is_available        00000001400eb468     libucrt:fma3_available.obj
 0003:0002446c       __use_fma3_lib             00000001400eb46c     libucrt:fma3_available.obj
 0003:00024470       ?_timezone@@3V?$dual_state_global@J@__crt_state_management@@A 00000001400eb470     libucrt:timeset.obj
 0003:00024474       ?_daylight@@3V?$dual_state_global@H@__crt_state_management@@A 00000001400eb474     libucrt:timeset.obj
 0003:00024478       ?_dstbias@@3V?$dual_state_global@J@__crt_state_management@@A 00000001400eb478     libucrt:timeset.obj
 0003:00024940       _mbctype                   00000001400eb940     libucrt:mbctype.obj
 0003:00024948       _mbcasemap                 00000001400eb948     libucrt:mbctype.obj
 0003:00024950       __acrt_current_multibyte_data 00000001400eb950     libucrt:mbctype.obj
 0003:00024960       _fmode                     00000001400eb960     libucrt:txtmode.obj
 0003:00024964       __acrt_lconv_static_null   00000001400eb964     libucrt:localeconv.obj
 0003:00024968       __acrt_lconv_static_W_null 00000001400eb968     libucrt:localeconv.obj
 0003:00024970       __acrt_heap                00000001400eb970     libucrt:heap_handle.obj
 0003:00024980       _umaskval                  00000001400eb980     libucrt:umask.obj
 0003:00024990       ?_OptionsStorage@?1??__local_stdio_scanf_options@@9@9 00000001400eb990     <common>
 0003:00024998       glad_glVertexAttribL2ui64vNV 00000001400eb998     <common>
 0003:000249a0       GLAD_GL_AMD_sparse_texture 00000001400eb9a0     <common>
 0003:000249a4       GLAD_GL_AMD_shader_trinary_minmax 00000001400eb9a4     <common>
 0003:000249a8       GLAD_GL_AMD_shader_stencil_export 00000001400eb9a8     <common>
 0003:000249ac       GLAD_GL_AMD_shader_image_load_store_lod 00000001400eb9ac     <common>
 0003:000249b0       glad_glVertexAttribL1ui64vNV 00000001400eb9b0     <common>
 0003:000249b8       GLAD_GL_AMD_shader_explicit_vertex_parameter 00000001400eb9b8     <common>
 0003:000249bc       GLAD_GL_AMD_shader_ballot  00000001400eb9bc     <common>
 0003:000249c0       glad_glCopyMultiTexImage1DEXT 00000001400eb9c0     <common>
 0003:000249c8       GLAD_GL_AMD_shader_atomic_counter_ops 00000001400eb9c8     <common>
 0003:000249cc       GLAD_GL_AMD_seamless_cubemap_per_texture 00000001400eb9cc     <common>
 0003:000249d0       glad_glSetMultisamplefvAMD 00000001400eb9d0     <common>
 0003:000249d8       glad_glVertexAttribL4ui64NV 00000001400eb9d8     <common>
 0003:000249e0       GLAD_GL_AMD_sample_positions 00000001400eb9e0     <common>
 0003:000249e4       GLAD_GL_AMD_query_buffer_object 00000001400eb9e4     <common>
 0003:000249e8       GLAD_GL_AMD_pinned_memory  00000001400eb9e8     <common>
 0003:000249f0       glad_glGetPerfMonitorCounterDataAMD 00000001400eb9f0     <common>
 0003:000249f8       glad_glVertexAttribL3ui64NV 00000001400eb9f8     <common>
 0003:00024a00       glad_glMultiTexSubImage2DEXT 00000001400eba00     <common>
 0003:00024a08       glad_glVertexAttribL2ui64NV 00000001400eba08     <common>
 0003:00024a10       glad_glEndPerfMonitorAMD   00000001400eba10     <common>
 0003:00024a18       glad_glBeginPerfMonitorAMD 00000001400eba18     <common>
 0003:00024a20       glad_glSelectPerfMonitorCountersAMD 00000001400eba20     <common>
 0003:00024a28       glad_glVertexAttribL1ui64NV 00000001400eba28     <common>
 0003:00024a30       glad_glMultiTexSubImage1DEXT 00000001400eba30     <common>
 0003:00024a38       glad_glVertexAttribL4i64vNV 00000001400eba38     <common>
 0003:00024a40       glad_glVertexAttribL3i64vNV 00000001400eba40     <common>
 0003:00024a48       glad_glDeletePerfMonitorsAMD 00000001400eba48     <common>
 0003:00024a50       glad_glVertexAttribL2i64vNV 00000001400eba50     <common>
 0003:00024a58       glad_glGenPerfMonitorsAMD  00000001400eba58     <common>
 0003:00024a60       glad_glMultiTexImage2DEXT  00000001400eba60     <common>
 0003:00024a68       glad_glVertexAttribL1i64vNV 00000001400eba68     <common>
 0003:00024a70       glad_glGetPerfMonitorCounterInfoAMD 00000001400eba70     <common>
 0003:00024a78       glad_glVertexAttribL4i64NV 00000001400eba78     <common>
 0003:00024a80       glad_glGetPerfMonitorCounterStringAMD 00000001400eba80     <common>
 0003:00024a88       glad_glVertexAttribL3i64NV 00000001400eba88     <common>
 0003:00024a90       glad_glGetPerfMonitorGroupStringAMD 00000001400eba90     <common>
 0003:00024a98       glad_glMultiTexImage1DEXT  00000001400eba98     <common>
 0003:00024aa0       glad_glVertexAttribL2i64NV 00000001400ebaa0     <common>
 0003:00024aa8       glad_glGetPerfMonitorCountersAMD 00000001400ebaa8     <common>
 0003:00024ab0       glad_glVertexAttribL1i64NV 00000001400ebab0     <common>
 0003:00024ab8       GLAD_GL_NV_vertex_attrib_integer_64bit 00000001400ebab8     <common>
 0003:00024ac0       glad_glMultiTexParameterfvEXT 00000001400ebac0     <common>
 0003:00024ac8       GLAD_GL_NV_vertex_array_range2 00000001400ebac8     <common>
 0003:00024ad0       glad_glGetPerfMonitorGroupsAMD 00000001400ebad0     <common>
 0003:00024ad8       glad_glVertexArrayRangeNV  00000001400ebad8     <common>
 0003:00024ae0       glad_glFlushVertexArrayRangeNV 00000001400ebae0     <common>
 0003:00024ae8       GLAD_GL_AMD_performance_monitor 00000001400ebae8     <common>
 0003:00024af0       glad_glMultiTexParameterfEXT 00000001400ebaf0     <common>
 0003:00024af8       glad_glQueryObjectParameteruiAMD 00000001400ebaf8     <common>
 0003:00024b00       GLAD_GL_NV_vertex_array_range 00000001400ebb00     <common>
 0003:00024b08       glad_glVDPAUUnmapSurfacesNV 00000001400ebb08     <common>
 0003:00024b10       glad_glVDPAUMapSurfacesNV  00000001400ebb10     <common>
 0003:00024b18       glad_glMultiTexParameterivEXT 00000001400ebb18     <common>
 0003:00024b20       GLAD_GL_AMD_occlusion_query_event 00000001400ebb20     <common>
 0003:00024b28       glad_glIsNameAMD           00000001400ebb28     <common>
 0003:00024b30       glad_glVDPAUSurfaceAccessNV 00000001400ebb30     <common>
 0003:00024b38       glad_glDeleteNamesAMD      00000001400ebb38     <common>
 0003:00024b40       glad_glMultiTexParameteriEXT 00000001400ebb40     <common>
 0003:00024b48       glad_glVDPAUGetSurfaceivNV 00000001400ebb48     <common>
 0003:00024b50       glad_glGenNamesAMD         00000001400ebb50     <common>
 0003:00024b58       glad_glGetMultiTexGenivEXT 00000001400ebb58     <common>
 0003:00024b60       glad_glVDPAUUnregisterSurfaceNV 00000001400ebb60     <common>
 0003:00024b68       GLAD_GL_AMD_name_gen_delete 00000001400ebb68     <common>
 0003:00024b70       glad_glMultiDrawElementsIndirectAMD 00000001400ebb70     <common>
 0003:00024b78       glad_glVDPAUIsSurfaceNV    00000001400ebb78     <common>
 0003:00024b80       glad_glVDPAURegisterOutputSurfaceNV 00000001400ebb80     <common>
 0003:00024b88       glad_glGetMultiTexGenfvEXT 00000001400ebb88     <common>
 0003:00024b90       glad_glMultiDrawArraysIndirectAMD 00000001400ebb90     <common>
 0003:00024b98       glad_glGetMultiTexGendvEXT 00000001400ebb98     <common>
 0003:00024ba0       glad_glVDPAURegisterVideoSurfaceNV 00000001400ebba0     <common>
 0003:00024ba8       GLAD_GL_AMD_multi_draw_indirect 00000001400ebba8     <common>
 0003:00024bb0       glad_glVertexAttribParameteriAMD 00000001400ebbb0     <common>
 0003:00024bb8       glad_glVDPAUFiniNV         00000001400ebbb8     <common>
 0003:00024bc0       glad_glGetMultiTexEnvivEXT 00000001400ebbc0     <common>
 0003:00024bc8       glad_glVDPAUInitNV         00000001400ebbc8     <common>
 0003:00024bd0       GLAD_GL_AMD_interleaved_elements 00000001400ebbd0     <common>
 0003:00024bd8       glad_glProgramUniform4ui64vNV 00000001400ebbd8     <common>
 0003:00024be0       GLAD_GL_NV_vdpau_interop   00000001400ebbe0     <common>
 0003:00024be8       glad_glGetMultiTexEnvfvEXT 00000001400ebbe8     <common>
 0003:00024bf0       GLAD_GL_NV_uniform_buffer_unified_memory 00000001400ebbf0     <common>
 0003:00024bf8       glad_glDrawTransformFeedbackNV 00000001400ebbf8     <common>
 0003:00024c00       glad_glResumeTransformFeedbackNV 00000001400ebc00     <common>
 0003:00024c08       glad_glProgramUniform3ui64vNV 00000001400ebc08     <common>
 0003:00024c10       glad_glMultiTexGenivEXT    00000001400ebc10     <common>
 0003:00024c18       glad_glPauseTransformFeedbackNV 00000001400ebc18     <common>
 0003:00024c20       glad_glIsTransformFeedbackNV 00000001400ebc20     <common>
 0003:00024c28       glad_glProgramUniform2ui64vNV 00000001400ebc28     <common>
 0003:00024c30       glad_glGenTransformFeedbacksNV 00000001400ebc30     <common>
 0003:00024c38       glad_glMultiTexGeniEXT     00000001400ebc38     <common>
 0003:00024c40       glad_glDeleteTransformFeedbacksNV 00000001400ebc40     <common>
 0003:00024c48       glad_glProgramUniform1ui64vNV 00000001400ebc48     <common>
 0003:00024c50       glad_glBindTransformFeedbackNV 00000001400ebc50     <common>
 0003:00024c58       glad_glMultiTexGenfvEXT    00000001400ebc58     <common>
 0003:00024c60       GLAD_GL_NV_transform_feedback2 00000001400ebc60     <common>
 0003:00024c68       glad_glTransformFeedbackStreamAttribsNV 00000001400ebc68     <common>
 0003:00024c70       glad_glProgramUniform4ui64NV 00000001400ebc70     <common>
 0003:00024c78       glad_glMultiTexGenfEXT     00000001400ebc78     <common>
 0003:00024c80       glad_glGetTransformFeedbackVaryingNV 00000001400ebc80     <common>
 0003:00024c88       glad_glMultiTexGendvEXT    00000001400ebc88     <common>
 0003:00024c90       glad_glProgramUniform3ui64NV 00000001400ebc90     <common>
 0003:00024c98       glad_glGetActiveVaryingNV  00000001400ebc98     <common>
 0003:00024ca0       glad_glMultiTexGendEXT     00000001400ebca0     <common>
 0003:00024ca8       glad_glProgramUniform2ui64NV 00000001400ebca8     <common>
 0003:00024cb0       glad_glMultiTexEnvivEXT    00000001400ebcb0     <common>
 0003:00024cb8       glad_glGetVaryingLocationNV 00000001400ebcb8     <common>
 0003:00024cc0       glad_glProgramUniform1ui64NV 00000001400ebcc0     <common>
 0003:00024cc8       glad_glActiveVaryingNV     00000001400ebcc8     <common>
 0003:00024cd0       glad_glMultiTexEnviEXT     00000001400ebcd0     <common>
 0003:00024cd8       glad_glProgramUniform4i64vNV 00000001400ebcd8     <common>
 0003:00024ce0       glad_glTransformFeedbackVaryingsNV 00000001400ebce0     <common>
 0003:00024ce8       glad_glMultiTexEnvfvEXT    00000001400ebce8     <common>
 0003:00024cf0       glad_glProgramUniform3i64vNV 00000001400ebcf0     <common>
 0003:00024cf8       glad_glBindBufferBaseNV    00000001400ebcf8     <common>
 0003:00024d00       glad_glMultiTexEnvfEXT     00000001400ebd00     <common>
 0003:00024d08       glad_glProgramUniform2i64vNV 00000001400ebd08     <common>
 0003:00024d10       glad_glBindBufferOffsetNV  00000001400ebd10     <common>
 0003:00024d18       glad_glMultiTexCoordPointerEXT 00000001400ebd18     <common>
 0003:00024d20       glad_glProgramUniform1i64vNV 00000001400ebd20     <common>
 0003:00024d28       glad_glBindBufferRangeNV   00000001400ebd28     <common>
 0003:00024d30       glad_glProgramUniform4i64NV 00000001400ebd30     <common>
 0003:00024d38       glad_glBindMultiTextureEXT 00000001400ebd38     <common>
 0003:00024d40       glad_glTransformFeedbackAttribsNV 00000001400ebd40     <common>
 0003:00024d48       glad_glCopyTextureSubImage3DEXT 00000001400ebd48     <common>
 0003:00024d50       glad_glEndTransformFeedbackNV 00000001400ebd50     <common>
 0003:00024d58       glad_glBeginTransformFeedbackNV 00000001400ebd58     <common>
 0003:00024d60       glad_glProgramUniform3i64NV 00000001400ebd60     <common>
 0003:00024d68       GLAD_GL_NV_transform_feedback 00000001400ebd68     <common>
 0003:00024d6c       GLAD_GL_NV_texture_shader3 00000001400ebd6c     <common>
 0003:00024d70       GLAD_GL_NV_texture_shader2 00000001400ebd70     <common>
 0003:00024d74       GLAD_GL_NV_texture_shader  00000001400ebd74     <common>
 0003:00024d78       GLAD_GL_NV_texture_rectangle_compressed 00000001400ebd78     <common>
 0003:00024d7c       GLAD_GL_NV_texture_rectangle 00000001400ebd7c     <common>
 0003:00024d80       glad_glTextureImage3DMultisampleCoverageNV 00000001400ebd80     <common>
 0003:00024d88       glad_glProgramUniform2i64NV 00000001400ebd88     <common>
 0003:00024d90       glad_glTextureSubImage3DEXT 00000001400ebd90     <common>
 0003:00024d98       glad_glProgramUniform1i64NV 00000001400ebd98     <common>
 0003:00024da0       glad_glGetUniformui64vNV   00000001400ebda0     <common>
 0003:00024da8       glad_glTextureImage2DMultisampleCoverageNV 00000001400ebda8     <common>
 0003:00024db0       glad_glGetUniformi64vNV    00000001400ebdb0     <common>
 0003:00024db8       glad_glTextureImage3DEXT   00000001400ebdb8     <common>
 0003:00024dc0       glad_glUniform4ui64vNV     00000001400ebdc0     <common>
 0003:00024dc8       glad_glTextureImage3DMultisampleNV 00000001400ebdc8     <common>
 0003:00024dd0       glad_glUniform3ui64vNV     00000001400ebdd0     <common>
 0003:00024dd8       glad_glUniform2ui64vNV     00000001400ebdd8     <common>
 0003:00024de0       glad_glTextureImage2DMultisampleNV 00000001400ebde0     <common>
 0003:00024de8       glad_glGetTextureLevelParameterivEXT 00000001400ebde8     <common>
 0003:00024df0       glad_glUniform1ui64vNV     00000001400ebdf0     <common>
 0003:00024df8       glad_glUniform4ui64NV      00000001400ebdf8     <common>
 0003:00024e00       glad_glGetTextureLevelParameterfvEXT 00000001400ebe00     <common>
 0003:00024e08       glad_glTexImage3DMultisampleCoverageNV 00000001400ebe08     <common>
 0003:00024e10       glad_glUniform3ui64NV      00000001400ebe10     <common>
 0003:00024e18       glad_glGetTextureParameterivEXT 00000001400ebe18     <common>
 0003:00024e20       glad_glUniform2ui64NV      00000001400ebe20     <common>
 0003:00024e28       glad_glTexImage2DMultisampleCoverageNV 00000001400ebe28     <common>
 0003:00024e30       glad_glGetTextureParameterfvEXT 00000001400ebe30     <common>
 0003:00024e38       glad_glUniform1ui64NV      00000001400ebe38     <common>
 0003:00024e40       glad_glGetTextureImageEXT  00000001400ebe40     <common>
 0003:00024e48       glad_glUniform4i64vNV      00000001400ebe48     <common>
 0003:00024e50       GLAD_GL_NV_texture_multisample 00000001400ebe50     <common>
 0003:00024e54       GLAD_GL_NV_texture_expand_normal 00000001400ebe54     <common>
 0003:00024e58       GLAD_GL_NV_texture_env_combine4 00000001400ebe58     <common>
 0003:00024e5c       GLAD_GL_NV_texture_compression_vtc 00000001400ebe5c     <common>
 0003:00024e60       glad_glTextureBarrierNV    00000001400ebe60     <common>
 0003:00024e68       glad_glUniform3i64vNV      00000001400ebe68     <common>
 0003:00024e70       GLAD_GL_NV_texture_barrier 00000001400ebe70     <common>
 0003:00024e74       GLAD_GL_NV_texgen_reflection 00000001400ebe74     <common>
 0003:00024e78       glad_glCopyTextureSubImage2DEXT 00000001400ebe78     <common>
 0003:00024e80       GLAD_GL_NV_texgen_emboss   00000001400ebe80     <common>
 0003:00024e84       GLAD_GL_NV_tessellation_program5 00000001400ebe84     <common>
 0003:00024e88       GLAD_GL_NV_stereo_view_rendering 00000001400ebe88     <common>
 0003:00024e8c       GLAD_GL_NV_shader_thread_shuffle 00000001400ebe8c     <common>
 0003:00024e90       GLAD_GL_NV_shader_thread_group 00000001400ebe90     <common>
 0003:00024e94       GLAD_GL_NV_shader_storage_buffer_object 00000001400ebe94     <common>
 0003:00024e98       glad_glUniform2i64vNV      00000001400ebe98     <common>
 0003:00024ea0       GLAD_GL_NV_shader_buffer_store 00000001400ebea0     <common>
 0003:00024ea8       glad_glProgramUniformui64vNV 00000001400ebea8     <common>
 0003:00024eb0       glad_glUniform1i64vNV      00000001400ebeb0     <common>
 0003:00024eb8       glad_glProgramUniformui64NV 00000001400ebeb8     <common>
 0003:00024ec0       glad_glCopyTextureSubImage1DEXT 00000001400ebec0     <common>
 0003:00024ec8       glad_glUniform4i64NV       00000001400ebec8     <common>
 0003:00024ed0       glad_glUniformui64vNV      00000001400ebed0     <common>
 0003:00024ed8       glad_glUniform3i64NV       00000001400ebed8     <common>
 0003:00024ee0       glad_glUniformui64NV       00000001400ebee0     <common>
 0003:00024ee8       glad_glCopyTextureImage2DEXT 00000001400ebee8     <common>
 0003:00024ef0       glad_glGetIntegerui64vNV   00000001400ebef0     <common>
 0003:00024ef8       glad_glUniform2i64NV       00000001400ebef8     <common>
 0003:00024f00       glad_glGetNamedBufferParameterui64vNV 00000001400ebf00     <common>
 0003:00024f08       glad_glUniform1i64NV       00000001400ebf08     <common>
 0003:00024f10       glad_glGetBufferParameterui64vNV 00000001400ebf10     <common>
 0003:00024f18       glad_glCopyTextureImage1DEXT 00000001400ebf18     <common>
 0003:00024f20       GLAD_GL_AMD_gpu_shader_int64 00000001400ebf20     <common>
 0003:00024f24       GLAD_GL_AMD_gpu_shader_int16 00000001400ebf24     <common>
 0003:00024f28       GLAD_GL_AMD_gpu_shader_half_float 00000001400ebf28     <common>
 0003:00024f2c       GLAD_GL_AMD_gcn_shader     00000001400ebf2c     <common>
 0003:00024f30       glad_glIsNamedBufferResidentNV 00000001400ebf30     <common>
 0003:00024f38       glad_glGetNamedFramebufferParameterfvAMD 00000001400ebf38     <common>
 0003:00024f40       glad_glMakeNamedBufferNonResidentNV 00000001400ebf40     <common>
 0003:00024f48       glad_glMakeNamedBufferResidentNV 00000001400ebf48     <common>
 0003:00024f50       glad_glTextureSubImage2DEXT 00000001400ebf50     <common>
 0003:00024f58       glad_glIsBufferResidentNV  00000001400ebf58     <common>
 0003:00024f60       glad_glGetFramebufferParameterfvAMD 00000001400ebf60     <common>
 0003:00024f68       glad_glMakeBufferNonResidentNV 00000001400ebf68     <common>
 0003:00024f70       glad_glMakeBufferResidentNV 00000001400ebf70     <common>
 0003:00024f78       GLAD_GL_NV_shader_buffer_load 00000001400ebf78     <common>
 0003:00024f80       glad_glNamedFramebufferSamplePositionsfvAMD 00000001400ebf80     <common>
 0003:00024f88       GLAD_GL_NV_shader_atomic_int64 00000001400ebf88     <common>
 0003:00024f8c       GLAD_GL_NV_shader_atomic_fp16_vector 00000001400ebf8c     <common>
 0003:00024f90       GLAD_GL_NV_shader_atomic_float64 00000001400ebf90     <common>
 0003:00024f94       GLAD_GL_NV_shader_atomic_float 00000001400ebf94     <common>
 0003:00024f98       GLAD_GL_NV_shader_atomic_counters 00000001400ebf98     <common>
 0003:00024f9c       GLAD_GL_NV_sample_mask_override_coverage 00000001400ebf9c     <common>
 0003:00024fa0       glad_glResolveDepthValuesNV 00000001400ebfa0     <common>
 0003:00024fa8       glad_glTextureSubImage1DEXT 00000001400ebfa8     <common>
 0003:00024fb0       glad_glFramebufferSamplePositionsfvAMD 00000001400ebfb0     <common>
 0003:00024fb8       glad_glNamedFramebufferSampleLocationsfvNV 00000001400ebfb8     <common>
 0003:00024fc0       glad_glFramebufferSampleLocationsfvNV 00000001400ebfc0     <common>
 0003:00024fc8       GLAD_GL_AMD_framebuffer_sample_positions 00000001400ebfc8     <common>
 0003:00024fd0       glad_glBlendEquationSeparateIndexedAMD 00000001400ebfd0     <common>
 0003:00024fd8       glad_glTextureImage2DEXT   00000001400ebfd8     <common>
 0003:00024fe0       glad_glBlendEquationIndexedAMD 00000001400ebfe0     <common>
 0003:00024fe8       GLAD_GL_NV_sample_locations 00000001400ebfe8     <common>
 0003:00024fec       GLAD_GL_NV_robustness_video_memory_purge 00000001400ebfec     <common>
 0003:00024ff0       glad_glGetCombinerStageParameterfvNV 00000001400ebff0     <common>
 0003:00024ff8       glad_glBlendFuncSeparateIndexedAMD 00000001400ebff8     <common>
 0003:00025000       glad_glCombinerStageParameterfvNV 00000001400ec000     <common>
 0003:00025008       glad_glTextureImage1DEXT   00000001400ec008     <common>
 0003:00025010       glad_glBlendFuncIndexedAMD 00000001400ec010     <common>
 0003:00025018       GLAD_GL_NV_register_combiners2 00000001400ec018     <common>
 0003:00025020       glad_glGetFinalCombinerInputParameterivNV 00000001400ec020     <common>
 0003:00025028       GLAD_GL_AMD_draw_buffers_blend 00000001400ec028     <common>
 0003:0002502c       GLAD_GL_AMD_depth_clamp_separate 00000001400ec02c     <common>
 0003:00025030       glad_glGetFinalCombinerInputParameterfvNV 00000001400ec030     <common>
 0003:00025038       glad_glGetDebugMessageLogAMD 00000001400ec038     <common>
 0003:00025040       glad_glGetCombinerOutputParameterivNV 00000001400ec040     <common>
 0003:00025048       glad_glTextureParameterivEXT 00000001400ec048     <common>
 0003:00025050       glad_glDebugMessageCallbackAMD 00000001400ec050     <common>
 0003:00025058       glad_glGetCombinerOutputParameterfvNV 00000001400ec058     <common>
 0003:00025060       glad_glTextureParameteriEXT 00000001400ec060     <common>
 0003:00025068       glad_glDebugMessageInsertAMD 00000001400ec068     <common>
 0003:00025070       glad_glGetCombinerInputParameterivNV 00000001400ec070     <common>
 0003:00025078       glad_glTextureParameterfvEXT 00000001400ec078     <common>
 0003:00025080       glad_glDebugMessageEnableAMD 00000001400ec080     <common>
 0003:00025088       glad_glTextureParameterfEXT 00000001400ec088     <common>
 0003:00025090       glad_glGetCombinerInputParameterfvNV 00000001400ec090     <common>
 0003:00025098       GLAD_GL_AMD_debug_output   00000001400ec098     <common>
 0003:0002509c       GLAD_GL_AMD_conservative_depth 00000001400ec09c     <common>
 0003:000250a0       GLAD_GL_AMD_blend_minmax_factor 00000001400ec0a0     <common>
 0003:000250a4       GLAD_GL_3DFX_texture_compression_FXT1 00000001400ec0a4     <common>
 0003:000250a8       glad_glTbufferMask3DFX     00000001400ec0a8     <common>
 0003:000250b0       glad_glPushClientAttribDefaultEXT 00000001400ec0b0     <common>
 0003:000250b8       glad_glFinalCombinerInputNV 00000001400ec0b8     <common>
 0003:000250c0       glad_glClientAttribDefaultEXT 00000001400ec0c0     <common>
 0003:000250c8       GLAD_GL_3DFX_tbuffer       00000001400ec0c8     <common>
 0003:000250cc       GLAD_GL_3DFX_multisample   00000001400ec0cc     <common>
 0003:000250d0       glad_glTranslatex          00000001400ec0d0     <common>
 0003:000250d8       glad_glMatrixPushEXT       00000001400ec0d8     <common>
 0003:000250e0       glad_glMatrixPopEXT        00000001400ec0e0     <common>
 0003:000250e8       glad_glCombinerOutputNV    00000001400ec0e8     <common>
 0003:000250f0       glad_glTexParameterxv      00000001400ec0f0     <common>
 0003:000250f8       glad_glMatrixOrthoEXT      00000001400ec0f8     <common>
 0003:00025100       glad_glTexParameterx       00000001400ec100     <common>
 0003:00025108       glad_glTexEnvxv            00000001400ec108     <common>
 0003:00025110       glad_glMatrixFrustumEXT    00000001400ec110     <common>
 0003:00025118       glad_glCombinerInputNV     00000001400ec118     <common>
 0003:00025120       glad_glTexEnvx             00000001400ec120     <common>
 0003:00025128       glad_glScalex              00000001400ec128     <common>
 0003:00025130       glad_glMatrixTranslatedEXT 00000001400ec130     <common>
 0003:00025138       glad_glCombinerParameteriNV 00000001400ec138     <common>
 0003:00025140       glad_glSampleCoveragex     00000001400ec140     <common>
 0003:00025148       glad_glCombinerParameterivNV 00000001400ec148     <common>
 0003:00025150       glad_glMatrixTranslatefEXT 00000001400ec150     <common>
 0003:00025158       glad_glRotatex             00000001400ec158     <common>
 0003:00025160       glad_glCombinerParameterfNV 00000001400ec160     <common>
 0003:00025168       glad_glCombinerParameterfvNV 00000001400ec168     <common>
 0003:00025170       glad_glMatrixScaledEXT     00000001400ec170     <common>
 0003:00025178       glad_glPolygonOffsetx      00000001400ec178     <common>
 0003:00025180       GLAD_GL_NV_register_combiners 00000001400ec180     <common>
 0003:00025188       glad_glQueryResourceTagNV  00000001400ec188     <common>
 0003:00025190       glad_glPointSizex          00000001400ec190     <common>
 0003:00025198       glad_glMatrixScalefEXT     00000001400ec198     <common>
 0003:000251a0       glad_glDeleteQueryResourceTagNV 00000001400ec1a0     <common>
 0003:000251a8       glad_glPointParameterxv    00000001400ec1a8     <common>
 0003:000251b0       glad_glGenQueryResourceTagNV 00000001400ec1b0     <common>
 0003:000251b8       glad_glPointParameterx     00000001400ec1b8     <common>
 0003:000251c0       glad_glMatrixRotatedEXT    00000001400ec1c0     <common>
 0003:000251c8       GLAD_GL_NV_query_resource_tag 00000001400ec1c8     <common>
 0003:000251d0       glad_glOrthox              00000001400ec1d0     <common>
 0003:000251d8       glad_glQueryResourceNV     00000001400ec1d8     <common>
 0003:000251e0       glad_glMatrixRotatefEXT    00000001400ec1e0     <common>
 0003:000251e8       GLAD_GL_NV_query_resource  00000001400ec1e8     <common>
 0003:000251f0       glad_glPrimitiveRestartIndexNV 00000001400ec1f0     <common>
 0003:000251f8       glad_glNormal3x            00000001400ec1f8     <common>
 0003:00025200       glad_glPrimitiveRestartNV  00000001400ec200     <common>
 0003:00025208       GLAD_GL_NV_primitive_restart 00000001400ec208     <common>
 0003:00025210       glad_glGetVideoui64vNV     00000001400ec210     <common>
 0003:00025218       glad_glMatrixLoadIdentityEXT 00000001400ec218     <common>
 0003:00025220       glad_glMultiTexCoord4x     00000001400ec220     <common>
 0003:00025228       glad_glMatrixMultdEXT      00000001400ec228     <common>
 0003:00025230       glad_glGetVideoi64vNV      00000001400ec230     <common>
 0003:00025238       glad_glMatrixMultfEXT      00000001400ec238     <common>
 0003:00025240       glad_glMultMatrixx         00000001400ec240     <common>
 0003:00025248       glad_glGetVideouivNV       00000001400ec248     <common>
 0003:00025250       glad_glMatrixLoaddEXT      00000001400ec250     <common>
 0003:00025258       glad_glMaterialxv          00000001400ec258     <common>
 0003:00025260       glad_glMatrixLoadfEXT      00000001400ec260     <common>
 0003:00025268       glad_glGetVideoivNV        00000001400ec268     <common>
 0003:00025270       glad_glMaterialx           00000001400ec270     <common>
 0003:00025278       GLAD_GL_EXT_direct_state_access 00000001400ec278     <common>
 0003:00025280       glad_glDepthBoundsEXT      00000001400ec280     <common>
 0003:00025288       glad_glPresentFrameDualFillNV 00000001400ec288     <common>
 0003:00025290       glad_glLoadMatrixx         00000001400ec290     <common>
 0003:00025298       GLAD_GL_EXT_depth_bounds_test 00000001400ec298     <common>
 0003:000252a0       glad_glPopGroupMarkerEXT   00000001400ec2a0     <common>
 0003:000252a8       glad_glLineWidthx          00000001400ec2a8     <common>
 0003:000252b0       glad_glPushGroupMarkerEXT  00000001400ec2b0     <common>
 0003:000252b8       glad_glLightxv             00000001400ec2b8     <common>
 0003:000252c0       glad_glInsertEventMarkerEXT 00000001400ec2c0     <common>
 0003:000252c8       glad_glLightx              00000001400ec2c8     <common>
 0003:000252d0       GLAD_GL_EXT_debug_marker   00000001400ec2d0     <common>
 0003:000252d8       glad_glGetObjectLabelEXT   00000001400ec2d8     <common>
 0003:000252e0       glad_glLightModelxv        00000001400ec2e0     <common>
 0003:000252e8       glad_glPresentFrameKeyedNV 00000001400ec2e8     <common>
 0003:000252f0       glad_glLabelObjectEXT      00000001400ec2f0     <common>
 0003:000252f8       glad_glLightModelx         00000001400ec2f8     <common>
 0003:00025300       glad_glGetTexParameterxv   00000001400ec300     <common>
 0003:00025308       GLAD_GL_EXT_debug_label    00000001400ec308     <common>
 0003:00025310       glad_glCullParameterfvEXT  00000001400ec310     <common>
 0003:00025318       glad_glGetTexEnvxv         00000001400ec318     <common>
 0003:00025320       glad_glCullParameterdvEXT  00000001400ec320     <common>
 0003:00025328       GLAD_GL_NV_present_video   00000001400ec328     <common>
 0003:00025330       glad_glPointParameterivNV  00000001400ec330     <common>
 0003:00025338       glad_glGetMaterialxv       00000001400ec338     <common>
 0003:00025340       GLAD_GL_EXT_cull_vertex    00000001400ec340     <common>
 0003:00025348       glad_glCopyTexSubImage3DEXT 00000001400ec348     <common>
 0003:00025350       glad_glPointParameteriNV   00000001400ec350     <common>
 0003:00025358       glad_glGetLightxv          00000001400ec358     <common>
 0003:00025360       GLAD_GL_NV_point_sprite    00000001400ec360     <common>
 0003:00025368       glad_glFlushPixelDataRangeNV 00000001400ec368     <common>
 0003:00025370       glad_glPixelDataRangeNV    00000001400ec370     <common>
 0003:00025378       glad_glGetFixedv           00000001400ec378     <common>
 0003:00025380       glad_glGetClipPlanex       00000001400ec380     <common>
 0003:00025388       glad_glCopyTexSubImage2DEXT 00000001400ec388     <common>
 0003:00025390       GLAD_GL_NV_pixel_data_range 00000001400ec390     <common>
 0003:00025394       GLAD_GL_NV_path_rendering_shared_edge 00000001400ec394     <common>
 0003:00025398       glad_glGetPathTexGenfvNV   00000001400ec398     <common>
 0003:000253a0       glad_glFrustumx            00000001400ec3a0     <common>
 0003:000253a8       glad_glGetPathTexGenivNV   00000001400ec3a8     <common>
 0003:000253b0       glad_glCopyTexSubImage1DEXT 00000001400ec3b0     <common>
 0003:000253b8       glad_glGetPathColorGenfvNV 00000001400ec3b8     <common>
 0003:000253c0       glad_glFogxv               00000001400ec3c0     <common>
 0003:000253c8       glad_glFogx                00000001400ec3c8     <common>
 0003:000253d0       glad_glGetPathColorGenivNV 00000001400ec3d0     <common>
 0003:000253d8       glad_glDepthRangex         00000001400ec3d8     <common>
 0003:000253e0       glad_glCopyTexImage2DEXT   00000001400ec3e0     <common>
 0003:000253e8       glad_glPathFogGenNV        00000001400ec3e8     <common>
 0003:000253f0       glad_glColor4x             00000001400ec3f0     <common>
 0003:000253f8       glad_glPathTexGenNV        00000001400ec3f8     <common>
 0003:00025400       glad_glClipPlanex          00000001400ec400     <common>
 0003:00025408       glad_glPathColorGenNV      00000001400ec408     <common>
 0003:00025410       glad_glCopyTexImage1DEXT   00000001400ec410     <common>
 0003:00025418       glad_glClearDepthx         00000001400ec418     <common>
 0003:00025420       glad_glClearColorx         00000001400ec420     <common>
 0003:00025428       glad_glGetProgramResourcefvNV 00000001400ec428     <common>
 0003:00025430       GLAD_GL_EXT_copy_texture   00000001400ec430     <common>
 0003:00025438       glad_glBinormalPointerEXT  00000001400ec438     <common>
 0003:00025440       glad_glAlphaFuncx          00000001400ec440     <common>
 0003:00025448       glad_glOrthof              00000001400ec448     <common>
 0003:00025450       glad_glTangentPointerEXT   00000001400ec450     <common>
 0003:00025458       glad_glProgramPathFragmentInputGenNV 00000001400ec458     <common>
 0003:00025460       glad_glBinormal3svEXT      00000001400ec460     <common>
 0003:00025468       glad_glBinormal3sEXT       00000001400ec468     <common>
 0003:00025470       glad_glGetClipPlanef       00000001400ec470     <common>
 0003:00025478       glad_glPathMemoryGlyphIndexArrayNV 00000001400ec478     <common>
 0003:00025480       glad_glFrustumf            00000001400ec480     <common>
 0003:00025488       glad_glBinormal3ivEXT      00000001400ec488     <common>
 0003:00025490       glad_glBinormal3iEXT       00000001400ec490     <common>
 0003:00025498       glad_glBinormal3fvEXT      00000001400ec498     <common>
 0003:000254a0       glad_glClipPlanef          00000001400ec4a0     <common>
 0003:000254a8       glad_glPathGlyphIndexArrayNV 00000001400ec4a8     <common>
 0003:000254b0       glad_glBinormal3fEXT       00000001400ec4b0     <common>
 0003:000254b8       GLAD_GL_VERSION_ES_CM_1_0  00000001400ec4b8     <common>
 0003:000254c0       glad_glGetInternalformativ 00000001400ec4c0     <common>
 0003:000254c8       glad_glBinormal3dvEXT      00000001400ec4c8     <common>
 0003:000254d0       glad_glBinormal3dEXT       00000001400ec4d0     <common>
 0003:000254d8       glad_glPathGlyphIndexRangeNV 00000001400ec4d8     <common>
 0003:000254e0       glad_glTexStorage3D        00000001400ec4e0     <common>
 0003:000254e8       glad_glBinormal3bvEXT      00000001400ec4e8     <common>
 0003:000254f0       glad_glBinormal3bEXT       00000001400ec4f0     <common>
 0003:000254f8       glad_glStencilThenCoverStrokePathInstancedNV 00000001400ec4f8     <common>
 0003:00025500       glad_glTexStorage2D        00000001400ec500     <common>
 0003:00025508       glad_glTangent3svEXT       00000001400ec508     <common>
 0003:00025510       glad_glTangent3sEXT        00000001400ec510     <common>
 0003:00025518       glad_glInvalidateSubFramebuffer 00000001400ec518     <common>
 0003:00025520       glad_glTangent3ivEXT       00000001400ec520     <common>
 0003:00025528       glad_glTangent3iEXT        00000001400ec528     <common>
 0003:00025530       glad_glStencilThenCoverFillPathInstancedNV 00000001400ec530     <common>
 0003:00025538       glad_glTangent3fvEXT       00000001400ec538     <common>
 0003:00025540       glad_glInvalidateFramebuffer 00000001400ec540     <common>
 0003:00025548       glad_glTangent3fEXT        00000001400ec548     <common>
 0003:00025550       glad_glProgramParameteri   00000001400ec550     <common>
 0003:00025558       glad_glTangent3dvEXT       00000001400ec558     <common>
 0003:00025560       glad_glStencilThenCoverStrokePathNV 00000001400ec560     <common>
 0003:00025568       glad_glTangent3dEXT        00000001400ec568     <common>
 0003:00025570       glad_glProgramBinary       00000001400ec570     <common>
 0003:00025578       glad_glStencilThenCoverFillPathNV 00000001400ec578     <common>
 0003:00025580       glad_glTangent3bvEXT       00000001400ec580     <common>
 0003:00025588       glad_glGetProgramBinary    00000001400ec588     <common>
 0003:00025590       glad_glTangent3bEXT        00000001400ec590     <common>
 0003:00025598       glad_glMatrixMultTranspose3x3fNV 00000001400ec598     <common>
 0003:000255a0       GLAD_GL_EXT_coordinate_frame 00000001400ec5a0     <common>
 0003:000255a8       glad_glSeparableFilter2DEXT 00000001400ec5a8     <common>
 0003:000255b0       glad_glResumeTransformFeedback 00000001400ec5b0     <common>
 0003:000255b8       glad_glMatrixMult3x3fNV    00000001400ec5b8     <common>
 0003:000255c0       glad_glPauseTransformFeedback 00000001400ec5c0     <common>
 0003:000255c8       glad_glIsTransformFeedback 00000001400ec5c8     <common>
 0003:000255d0       glad_glMatrixMult3x2fNV    00000001400ec5d0     <common>
 0003:000255d8       glad_glGenTransformFeedbacks 00000001400ec5d8     <common>
 0003:000255e0       glad_glMatrixLoadTranspose3x3fNV 00000001400ec5e0     <common>
 0003:000255e8       glad_glGetSeparableFilterEXT 00000001400ec5e8     <common>
 0003:000255f0       glad_glDeleteTransformFeedbacks 00000001400ec5f0     <common>
 0003:000255f8       glad_glMatrixLoad3x3fNV    00000001400ec5f8     <common>
 0003:00025600       glad_glBindTransformFeedback 00000001400ec600     <common>
 0003:00025608       glad_glMatrixLoad3x2fNV    00000001400ec608     <common>
 0003:00025610       GLAD_GL_ES_VERSION_3_0     00000001400ec610     <common>
 0003:00025618       glad_glShaderBinary        00000001400ec618     <common>
 0003:00025620       glad_glGetConvolutionParameterivEXT 00000001400ec620     <common>
 0003:00025628       glad_glPointAlongPathNV    00000001400ec628     <common>
 0003:00025630       glad_glGetConvolutionParameterfvEXT 00000001400ec630     <common>
 0003:00025638       glad_glReleaseShaderCompiler 00000001400ec638     <common>
 0003:00025640       glad_glGetShaderPrecisionFormat 00000001400ec640     <common>
 0003:00025648       glad_glGetConvolutionFilterEXT 00000001400ec648     <common>
 0003:00025650       glad_glGetPathLengthNV     00000001400ec650     <common>
 0003:00025658       glad_glDepthRangef         00000001400ec658     <common>
 0003:00025660       glad_glCopyConvolutionFilter2DEXT 00000001400ec660     <common>
 0003:00025668       glad_glIsPointInStrokePathNV 00000001400ec668     <common>
 0003:00025670       glad_glClearDepthf         00000001400ec670     <common>
 0003:00025678       glad_glIsPointInFillPathNV 00000001400ec678     <common>
 0003:00025680       GLAD_GL_ES_VERSION_2_0     00000001400ec680     <common>
 0003:00025688       glad_glSecondaryColorP3uiv 00000001400ec688     <common>
 0003:00025690       glad_glCopyConvolutionFilter1DEXT 00000001400ec690     <common>
 0003:00025698       glad_glSecondaryColorP3ui  00000001400ec698     <common>
 0003:000256a0       glad_glGetPathSpacingNV    00000001400ec6a0     <common>
 0003:000256a8       glad_glColorP4uiv          00000001400ec6a8     <common>
 0003:000256b0       glad_glConvolutionParameterivEXT 00000001400ec6b0     <common>
 0003:000256b8       glad_glColorP4ui           00000001400ec6b8     <common>
 0003:000256c0       glad_glColorP3uiv          00000001400ec6c0     <common>
 0003:000256c8       glad_glConvolutionParameteriEXT 00000001400ec6c8     <common>
 0003:000256d0       glad_glGetPathMetricRangeNV 00000001400ec6d0     <common>
 0003:000256d8       glad_glColorP3ui           00000001400ec6d8     <common>
 0003:000256e0       glad_glConvolutionParameterfvEXT 00000001400ec6e0     <common>
 0003:000256e8       glad_glNormalP3uiv         00000001400ec6e8     <common>
 0003:000256f0       glad_glConvolutionParameterfEXT 00000001400ec6f0     <common>
 0003:000256f8       glad_glGetPathMetricsNV    00000001400ec6f8     <common>
 0003:00025700       glad_glNormalP3ui          00000001400ec700     <common>
 0003:00025708       glad_glConvolutionFilter2DEXT 00000001400ec708     <common>
 0003:00025710       glad_glMultiTexCoordP4uiv  00000001400ec710     <common>
 0003:00025718       glad_glMultiTexCoordP4ui   00000001400ec718     <common>
 0003:00025720       glad_glGetPathDashArrayNV  00000001400ec720     <common>
 0003:00025728       glad_glGetPathCoordsNV     00000001400ec728     <common>
 0003:00025730       glad_glConvolutionFilter1DEXT 00000001400ec730     <common>
 0003:00025738       glad_glMultiTexCoordP3uiv  00000001400ec738     <common>
 0003:00025740       glad_glGetPathCommandsNV   00000001400ec740     <common>
 0003:00025748       glad_glMultiTexCoordP3ui   00000001400ec748     <common>
 0003:00025750       glad_glGetPathParameterfvNV 00000001400ec750     <common>
 0003:00025758       GLAD_GL_EXT_convolution    00000001400ec758     <common>
 0003:00025760       glad_glUnlockArraysEXT     00000001400ec760     <common>
 0003:00025768       glad_glMultiTexCoordP2uiv  00000001400ec768     <common>
 0003:00025770       glad_glLockArraysEXT       00000001400ec770     <common>
 0003:00025778       glad_glGetPathParameterivNV 00000001400ec778     <common>
 0003:00025780       GLAD_GL_EXT_compiled_vertex_array 00000001400ec780     <common>
 0003:00025788       glad_glMultiTexCoordP2ui   00000001400ec788     <common>
 0003:00025790       glad_glCopyColorSubTableEXT 00000001400ec790     <common>
 0003:00025798       glad_glCoverStrokePathInstancedNV 00000001400ec798     <common>
 0003:000257a0       glad_glMultiTexCoordP1uiv  00000001400ec7a0     <common>
 0003:000257a8       glad_glColorSubTableEXT    00000001400ec7a8     <common>
 0003:000257b0       glad_glMultiTexCoordP1ui   00000001400ec7b0     <common>
 0003:000257b8       glad_glCoverFillPathInstancedNV 00000001400ec7b8     <common>
 0003:000257c0       glad_glTexCoordP4uiv       00000001400ec7c0     <common>
 0003:000257c8       GLAD_GL_EXT_color_subtable 00000001400ec7c8     <common>
 0003:000257cc       GLAD_GL_EXT_cmyka          00000001400ec7cc     <common>
 0003:000257d0       GLAD_GL_EXT_clip_volume_hint 00000001400ec7d0     <common>
 0003:000257d4       GLAD_GL_EXT_blend_subtract 00000001400ec7d4     <common>
 0003:000257d8       glad_glTexCoordP4ui        00000001400ec7d8     <common>
 0003:000257e0       glad_glBlendEquationEXT    00000001400ec7e0     <common>
 0003:000257e8       GLAD_GL_EXT_blend_minmax   00000001400ec7e8     <common>
 0003:000257f0       glad_glCoverStrokePathNV   00000001400ec7f0     <common>
 0003:000257f8       glad_glTexCoordP3uiv       00000001400ec7f8     <common>
 0003:00025800       GLAD_GL_EXT_blend_logic_op 00000001400ec800     <common>
 0003:00025808       glad_glBlendFuncSeparateEXT 00000001400ec808     <common>
 0003:00025810       glad_glCoverFillPathNV     00000001400ec810     <common>
 0003:00025818       glad_glTexCoordP3ui        00000001400ec818     <common>
 0003:00025820       glad_glPathCoverDepthFuncNV 00000001400ec820     <common>
 0003:00025828       GLAD_GL_EXT_blend_func_separate 00000001400ec828     <common>
 0003:00025830       glad_glBlendEquationSeparateEXT 00000001400ec830     <common>
 0003:00025838       glad_glTexCoordP2uiv       00000001400ec838     <common>
 0003:00025840       glad_glStencilStrokePathInstancedNV 00000001400ec840     <common>
 0003:00025848       glad_glTexCoordP2ui        00000001400ec848     <common>
 0003:00025850       GLAD_GL_EXT_blend_equation_separate 00000001400ec850     <common>
 0003:00025858       glad_glBlendColorEXT       00000001400ec858     <common>
 0003:00025860       glad_glTexCoordP1uiv       00000001400ec860     <common>
 0003:00025868       GLAD_GL_EXT_blend_color    00000001400ec868     <common>
 0003:00025870       glad_glGetUniformOffsetEXT 00000001400ec870     <common>
 0003:00025878       glad_glTexCoordP1ui        00000001400ec878     <common>
 0003:00025880       glad_glStencilFillPathInstancedNV 00000001400ec880     <common>
 0003:00025888       glad_glVertexP4uiv         00000001400ec888     <common>
 0003:00025890       glad_glGetUniformBufferSizeEXT 00000001400ec890     <common>
 0003:00025898       glad_glVertexP4ui          00000001400ec898     <common>
 0003:000258a0       glad_glUniformBufferEXT    00000001400ec8a0     <common>
 0003:000258a8       glad_glVertexP3uiv         00000001400ec8a8     <common>
 0003:000258b0       GLAD_GL_EXT_bindable_uniform 00000001400ec8b0     <common>
 0003:000258b4       GLAD_GL_EXT_bgra           00000001400ec8b4     <common>
 0003:000258b8       glad_glStencilStrokePathNV 00000001400ec8b8     <common>
 0003:000258c0       GLAD_GL_EXT_abgr           00000001400ec8c0     <common>
 0003:000258c4       GLAD_GL_EXT_422_pixels     00000001400ec8c4     <common>
 0003:000258c8       glad_glVertexP3ui          00000001400ec8c8     <common>
 0003:000258d0       glad_glVertexBlendEnvfATI  00000001400ec8d0     <common>
 0003:000258d8       glad_glStencilFillPathNV   00000001400ec8d8     <common>
 0003:000258e0       glad_glVertexBlendEnviATI  00000001400ec8e0     <common>
 0003:000258e8       glad_glVertexP2uiv         00000001400ec8e8     <common>
 0003:000258f0       glad_glClientActiveVertexStreamATI 00000001400ec8f0     <common>
 0003:000258f8       glad_glVertexP2ui          00000001400ec8f8     <common>
 0003:00025900       glad_glPathStencilDepthOffsetNV 00000001400ec900     <common>
 0003:00025908       glad_glNormalStream3dvATI  00000001400ec908     <common>
 0003:00025910       glad_glVertexAttribP4uiv   00000001400ec910     <common>
 0003:00025918       glad_glPathStencilFuncNV   00000001400ec918     <common>
 0003:00025920       glad_glNormalStream3dATI   00000001400ec920     <common>
 0003:00025928       glad_glPathDashArrayNV     00000001400ec928     <common>
 0003:00025930       glad_glVertexAttribP4ui    00000001400ec930     <common>
 0003:00025938       glad_glNormalStream3fvATI  00000001400ec938     <common>
 0003:00025940       glad_glPathParameterfNV    00000001400ec940     <common>
 0003:00025948       glad_glVertexAttribP3uiv   00000001400ec948     <common>
 0003:00025950       glad_glNormalStream3fATI   00000001400ec950     <common>
 0003:00025958       glad_glPathParameterfvNV   00000001400ec958     <common>
 0003:00025960       glad_glNormalStream3ivATI  00000001400ec960     <common>
 0003:00025968       glad_glVertexAttribP3ui    00000001400ec968     <common>
 0003:00025970       glad_glPathParameteriNV    00000001400ec970     <common>
 0003:00025978       glad_glNormalStream3iATI   00000001400ec978     <common>
 0003:00025980       glad_glVertexAttribP2uiv   00000001400ec980     <common>
 0003:00025988       glad_glPathParameterivNV   00000001400ec988     <common>
 0003:00025990       glad_glNormalStream3svATI  00000001400ec990     <common>
 0003:00025998       glad_glTransformPathNV     00000001400ec998     <common>
 0003:000259a0       glad_glVertexAttribP2ui    00000001400ec9a0     <common>
 0003:000259a8       glad_glNormalStream3sATI   00000001400ec9a8     <common>
 0003:000259b0       glad_glInterpolatePathsNV  00000001400ec9b0     <common>
 0003:000259b8       glad_glVertexAttribP1uiv   00000001400ec9b8     <common>
 0003:000259c0       glad_glNormalStream3bvATI  00000001400ec9c0     <common>
 0003:000259c8       glad_glNormalStream3bATI   00000001400ec9c8     <common>
 0003:000259d0       glad_glCopyPathNV          00000001400ec9d0     <common>
 0003:000259d8       glad_glVertexAttribP1ui    00000001400ec9d8     <common>
 0003:000259e0       glad_glWeightPathsNV       00000001400ec9e0     <common>
 0003:000259e8       glad_glVertexStream4dvATI  00000001400ec9e8     <common>
 0003:000259f0       glad_glVertexAttribDivisor 00000001400ec9f0     <common>
 0003:000259f8       glad_glVertexStream4dATI   00000001400ec9f8     <common>
 0003:00025a00       glad_glPathGlyphRangeNV    00000001400eca00     <common>
 0003:00025a08       glad_glGetQueryObjectui64v 00000001400eca08     <common>
 0003:00025a10       glad_glGetQueryObjecti64v  00000001400eca10     <common>
 0003:00025a18       glad_glVertexStream4fvATI  00000001400eca18     <common>
 0003:00025a20       glad_glVertexStream4fATI   00000001400eca20     <common>
 0003:00025a28       glad_glQueryCounter        00000001400eca28     <common>
 0003:00025a30       glad_glPathGlyphsNV        00000001400eca30     <common>
 0003:00025a38       glad_glGetSamplerParameterIuiv 00000001400eca38     <common>
 0003:00025a40       glad_glVertexStream4ivATI  00000001400eca40     <common>
 0003:00025a48       glad_glGetSamplerParameterfv 00000001400eca48     <common>
 0003:00025a50       glad_glVertexStream4iATI   00000001400eca50     <common>
 0003:00025a58       glad_glGetSamplerParameterIiv 00000001400eca58     <common>
 0003:00025a60       glad_glPathStringNV        00000001400eca60     <common>
 0003:00025a68       glad_glVertexStream4svATI  00000001400eca68     <common>
 0003:00025a70       glad_glGetSamplerParameteriv 00000001400eca70     <common>
 0003:00025a78       glad_glPathSubCoordsNV     00000001400eca78     <common>
 0003:00025a80       glad_glVertexStream4sATI   00000001400eca80     <common>
 0003:00025a88       glad_glSamplerParameterIuiv 00000001400eca88     <common>
 0003:00025a90       glad_glSamplerParameterIiv 00000001400eca90     <common>
 0003:00025a98       glad_glPathSubCommandsNV   00000001400eca98     <common>
 0003:00025aa0       glad_glVertexStream3dvATI  00000001400ecaa0     <common>
 0003:00025aa8       glad_glVertexStream3dATI   00000001400ecaa8     <common>
 0003:00025ab0       glad_glSamplerParameterfv  00000001400ecab0     <common>
 0003:00025ab8       glad_glSamplerParameterf   00000001400ecab8     <common>
 0003:00025ac0       glad_glVertexStream3fvATI  00000001400ecac0     <common>
 0003:00025ac8       glad_glPathCoordsNV        00000001400ecac8     <common>
 0003:00025ad0       glad_glVertexStream3fATI   00000001400ecad0     <common>
 0003:00025ad8       glad_glSamplerParameteriv  00000001400ecad8     <common>
 0003:00025ae0       glad_glPathCommandsNV      00000001400ecae0     <common>
 0003:00025ae8       glad_glSamplerParameteri   00000001400ecae8     <common>
 0003:00025af0       glad_glVertexStream3ivATI  00000001400ecaf0     <common>
 0003:00025af8       glad_glVertexStream3iATI   00000001400ecaf8     <common>
 0003:00025b00       glad_glBindSampler         00000001400ecb00     <common>
 0003:00025b08       glad_glIsPathNV            00000001400ecb08     <common>
 0003:00025b10       glad_glIsSampler           00000001400ecb10     <common>
 0003:00025b18       glad_glDeletePathsNV       00000001400ecb18     <common>
 0003:00025b20       glad_glDeleteSamplers      00000001400ecb20     <common>
 0003:00025b28       glad_glVertexStream3svATI  00000001400ecb28     <common>
 0003:00025b30       glad_glGenPathsNV          00000001400ecb30     <common>
 0003:00025b38       glad_glGenSamplers         00000001400ecb38     <common>
 0003:00025b40       glad_glVertexStream3sATI   00000001400ecb40     <common>
 0003:00025b48       GLAD_GL_NV_path_rendering  00000001400ecb48     <common>
 0003:00025b4c       GLAD_GL_NV_parameter_buffer_object2 00000001400ecb4c     <common>
 0003:00025b50       glad_glProgramBufferParametersIuivNV 00000001400ecb50     <common>
 0003:00025b58       glad_glGetFragDataIndex    00000001400ecb58     <common>
 0003:00025b60       glad_glVertexStream2dvATI  00000001400ecb60     <common>
 0003:00025b68       glad_glBindFragDataLocationIndexed 00000001400ecb68     <common>
 0003:00025b70       glad_glProgramBufferParametersIivNV 00000001400ecb70     <common>
 0003:00025b78       glad_glVertexStream2dATI   00000001400ecb78     <common>
 0003:00025b80       GLAD_GL_VERSION_3_3        00000001400ecb80     <common>
 0003:00025b88       glad_glSampleMaski         00000001400ecb88     <common>
 0003:00025b90       glad_glVertexStream2fvATI  00000001400ecb90     <common>
 0003:00025b98       glad_glProgramBufferParametersfvNV 00000001400ecb98     <common>
 0003:00025ba0       glad_glGetMultisamplefv    00000001400ecba0     <common>
 0003:00025ba8       glad_glVertexStream2fATI   00000001400ecba8     <common>
 0003:00025bb0       glad_glTexImage3DMultisample 00000001400ecbb0     <common>
 0003:00025bb8       glad_glVertexStream2ivATI  00000001400ecbb8     <common>
 0003:00025bc0       GLAD_GL_NV_parameter_buffer_object 00000001400ecbc0     <common>
 0003:00025bc4       GLAD_GL_NV_packed_depth_stencil 00000001400ecbc4     <common>
 0003:00025bc8       glad_glGetOcclusionQueryuivNV 00000001400ecbc8     <common>
 0003:00025bd0       glad_glVertexStream2iATI   00000001400ecbd0     <common>
 0003:00025bd8       glad_glGetOcclusionQueryivNV 00000001400ecbd8     <common>
 0003:00025be0       glad_glVertexStream2svATI  00000001400ecbe0     <common>
 0003:00025be8       glad_glTexImage2DMultisample 00000001400ecbe8     <common>
 0003:00025bf0       glad_glEndOcclusionQueryNV 00000001400ecbf0     <common>
 0003:00025bf8       glad_glVertexStream2sATI   00000001400ecbf8     <common>
 0003:00025c00       glad_glBeginOcclusionQueryNV 00000001400ecc00     <common>
 0003:00025c08       glad_glIsOcclusionQueryNV  00000001400ecc08     <common>
 0003:00025c10       glad_glVertexStream1dvATI  00000001400ecc10     <common>
 0003:00025c18       glad_glFramebufferTexture  00000001400ecc18     <common>
 0003:00025c20       glad_glDeleteOcclusionQueriesNV 00000001400ecc20     <common>
 0003:00025c28       glad_glVertexStream1dATI   00000001400ecc28     <common>
 0003:00025c30       glad_glGenOcclusionQueriesNV 00000001400ecc30     <common>
 0003:00025c38       glad_glGetBufferParameteri64v 00000001400ecc38     <common>
 0003:00025c40       glad_glVertexStream1fvATI  00000001400ecc40     <common>
 0003:00025c48       GLAD_GL_NV_occlusion_query 00000001400ecc48     <common>
 0003:00025c4c       GLAD_GL_NV_multisample_filter_hint 00000001400ecc4c     <common>
 0003:00025c50       GLAD_GL_NV_multisample_coverage 00000001400ecc50     <common>
 0003:00025c54       GLAD_GL_NV_light_max_exponent 00000001400ecc54     <common>
 0003:00025c58       glad_glGetInternalformatSampleivNV 00000001400ecc58     <common>
 0003:00025c60       glad_glVertexStream1fATI   00000001400ecc60     <common>
 0003:00025c68       glad_glGetInteger64i_v     00000001400ecc68     <common>
 0003:00025c70       glad_glVertexStream1ivATI  00000001400ecc70     <common>
 0003:00025c78       glad_glGetSynciv           00000001400ecc78     <common>
 0003:00025c80       glad_glVertexStream1iATI   00000001400ecc80     <common>
 0003:00025c88       GLAD_GL_NV_internalformat_sample_query 00000001400ecc88     <common>
 0003:00025c90       glad_glVertexAttribs4hvNV  00000001400ecc90     <common>
 0003:00025c98       glad_glVertexStream1svATI  00000001400ecc98     <common>
 0003:00025ca0       glad_glGetInteger64v       00000001400ecca0     <common>
 0003:00025ca8       glad_glVertexAttribs3hvNV  00000001400ecca8     <common>
 0003:00025cb0       glad_glVertexStream1sATI   00000001400eccb0     <common>
 0003:00025cb8       glad_glWaitSync            00000001400eccb8     <common>
 0003:00025cc0       GLAD_GL_ATI_vertex_streams 00000001400eccc0     <common>
 0003:00025cc8       glad_glGetVertexAttribArrayObjectivATI 00000001400eccc8     <common>
 0003:00025cd0       glad_glVertexAttribs2hvNV  00000001400eccd0     <common>
 0003:00025cd8       glad_glClientWaitSync      00000001400eccd8     <common>
 0003:00025ce0       glad_glGetVertexAttribArrayObjectfvATI 00000001400ecce0     <common>
 0003:00025ce8       glad_glVertexAttribs1hvNV  00000001400ecce8     <common>
 0003:00025cf0       glad_glDeleteSync          00000001400eccf0     <common>
 0003:00025cf8       glad_glIsSync              00000001400eccf8     <common>
 0003:00025d00       glad_glVertexAttribArrayObjectATI 00000001400ecd00     <common>
 0003:00025d08       glad_glVertexAttrib4hvNV   00000001400ecd08     <common>
 0003:00025d10       glad_glFenceSync           00000001400ecd10     <common>
 0003:00025d18       glad_glVertexAttrib4hNV    00000001400ecd18     <common>
 0003:00025d20       glad_glProvokingVertex     00000001400ecd20     <common>
 0003:00025d28       glad_glMultiDrawElementsBaseVertex 00000001400ecd28     <common>
 0003:00025d30       GLAD_GL_ATI_vertex_attrib_array_object 00000001400ecd30     <common>
 0003:00025d38       glad_glGetVariantArrayObjectivATI 00000001400ecd38     <common>
 0003:00025d40       glad_glVertexAttrib3hvNV   00000001400ecd40     <common>
 0003:00025d48       glad_glVertexAttrib3hNV    00000001400ecd48     <common>
 0003:00025d50       glad_glGetVariantArrayObjectfvATI 00000001400ecd50     <common>
 0003:00025d58       glad_glDrawElementsInstancedBaseVertex 00000001400ecd58     <common>
 0003:00025d60       glad_glVariantArrayObjectATI 00000001400ecd60     <common>
 0003:00025d68       glad_glVertexAttrib2hvNV   00000001400ecd68     <common>
 0003:00025d70       glad_glVertexAttrib2hNV    00000001400ecd70     <common>
 0003:00025d78       glad_glDrawRangeElementsBaseVertex 00000001400ecd78     <common>
 0003:00025d80       glad_glGetArrayObjectivATI 00000001400ecd80     <common>
 0003:00025d88       glad_glVertexAttrib1hvNV   00000001400ecd88     <common>
 0003:00025d90       glad_glGetArrayObjectfvATI 00000001400ecd90     <common>
 0003:00025d98       glad_glVertexAttrib1hNV    00000001400ecd98     <common>
 0003:00025da0       glad_glDrawElementsBaseVertex 00000001400ecda0     <common>
 0003:00025da8       glad_glVertexWeighthvNV    00000001400ecda8     <common>
 0003:00025db0       glad_glArrayObjectATI      00000001400ecdb0     <common>
 0003:00025db8       glad_glVertexWeighthNV     00000001400ecdb8     <common>
 0003:00025dc0       glad_glSecondaryColor3hvNV 00000001400ecdc0     <common>
 0003:00025dc8       GLAD_GL_VERSION_3_2        00000001400ecdc8     <common>
 0003:00025dd0       glad_glUniformBlockBinding 00000001400ecdd0     <common>
 0003:00025dd8       glad_glSecondaryColor3hNV  00000001400ecdd8     <common>
 0003:00025de0       glad_glFreeObjectBufferATI 00000001400ecde0     <common>
 0003:00025de8       glad_glGetActiveUniformBlockName 00000001400ecde8     <common>
 0003:00025df0       glad_glGetObjectBufferivATI 00000001400ecdf0     <common>
 0003:00025df8       glad_glFogCoordhvNV        00000001400ecdf8     <common>
 0003:00025e00       glad_glFogCoordhNV         00000001400ece00     <common>
 0003:00025e08       glad_glGetObjectBufferfvATI 00000001400ece08     <common>
 0003:00025e10       glad_glMultiTexCoord4hvNV  00000001400ece10     <common>
 0003:00025e18       glad_glGetActiveUniformBlockiv 00000001400ece18     <common>
 0003:00025e20       glad_glMultiTexCoord4hNV   00000001400ece20     <common>
 0003:00025e28       glad_glUpdateObjectBufferATI 00000001400ece28     <common>
 0003:00025e30       glad_glGetUniformBlockIndex 00000001400ece30     <common>
 0003:00025e38       glad_glMultiTexCoord3hvNV  00000001400ece38     <common>
 0003:00025e40       glad_glGetActiveUniformName 00000001400ece40     <common>
 0003:00025e48       glad_glIsObjectBufferATI   00000001400ece48     <common>
 0003:00025e50       glad_glNewObjectBufferATI  00000001400ece50     <common>
 0003:00025e58       glad_glMultiTexCoord3hNV   00000001400ece58     <common>
 0003:00025e60       glad_glGetActiveUniformsiv 00000001400ece60     <common>
 0003:00025e68       GLAD_GL_ATI_vertex_array_object 00000001400ece68     <common>
 0003:00025e6c       GLAD_GL_ATI_texture_mirror_once 00000001400ece6c     <common>
 0003:00025e70       GLAD_GL_ATI_texture_float  00000001400ece70     <common>
 0003:00025e74       GLAD_GL_ATI_texture_env_combine3 00000001400ece74     <common>
 0003:00025e78       glad_glMultiTexCoord2hvNV  00000001400ece78     <common>
 0003:00025e80       GLAD_GL_ATI_text_fragment_shader 00000001400ece80     <common>
 0003:00025e88       glad_glStencilFuncSeparateATI 00000001400ece88     <common>
 0003:00025e90       glad_glMultiTexCoord2hNV   00000001400ece90     <common>
 0003:00025e98       glad_glGetUniformIndices   00000001400ece98     <common>
 0003:00025ea0       glad_glStencilOpSeparateATI 00000001400ecea0     <common>
 0003:00025ea8       glad_glMultiTexCoord1hvNV  00000001400ecea8     <common>
 0003:00025eb0       glad_glCopyBufferSubData   00000001400eceb0     <common>
 0003:00025eb8       glad_glMultiTexCoord1hNV   00000001400eceb8     <common>
 0003:00025ec0       GLAD_GL_ATI_separate_stencil 00000001400ecec0     <common>
 0003:00025ec8       glad_glPNTrianglesfATI     00000001400ecec8     <common>
 0003:00025ed0       glad_glTexCoord4hvNV       00000001400eced0     <common>
 0003:00025ed8       glad_glPNTrianglesiATI     00000001400eced8     <common>
 0003:00025ee0       glad_glTexCoord4hNV        00000001400ecee0     <common>
 0003:00025ee8       glad_glPrimitiveRestartIndex 00000001400ecee8     <common>
 0003:00025ef0       glad_glTexBuffer           00000001400ecef0     <common>
 0003:00025ef8       GLAD_GL_ATI_pn_triangles   00000001400ecef8     <common>
 0003:00025efc       GLAD_GL_ATI_pixel_format_float 00000001400ecefc     <common>
 0003:00025f00       GLAD_GL_ATI_meminfo        00000001400ecf00     <common>
 0003:00025f08       glad_glUnmapObjectBufferATI 00000001400ecf08     <common>
 0003:00025f10       glad_glTexCoord3hvNV       00000001400ecf10     <common>
 0003:00025f18       glad_glMapObjectBufferATI  00000001400ecf18     <common>
 0003:00025f20       glad_glDrawElementsInstanced 00000001400ecf20     <common>
 0003:00025f28       glad_glTexCoord3hNV        00000001400ecf28     <common>
 0003:00025f30       GLAD_GL_ATI_map_object_buffer 00000001400ecf30     <common>
 0003:00025f38       glad_glSetFragmentShaderConstantATI 00000001400ecf38     <common>
 0003:00025f40       glad_glTexCoord2hvNV       00000001400ecf40     <common>
 0003:00025f48       glad_glAlphaFragmentOp3ATI 00000001400ecf48     <common>
 0003:00025f50       glad_glDrawArraysInstanced 00000001400ecf50     <common>
 0003:00025f58       glad_glTexCoord2hNV        00000001400ecf58     <common>
 0003:00025f60       glad_glTexCoord1hvNV       00000001400ecf60     <common>
 0003:00025f68       GLAD_GL_VERSION_3_1        00000001400ecf68     <common>
 0003:00025f70       glad_glIsVertexArray       00000001400ecf70     <common>
 0003:00025f78       glad_glTexCoord1hNV        00000001400ecf78     <common>
 0003:00025f80       glad_glColor4hvNV          00000001400ecf80     <common>
 0003:00025f88       glad_glGenVertexArrays     00000001400ecf88     <common>
 0003:00025f90       glad_glColor4hNV           00000001400ecf90     <common>
 0003:00025f98       glad_glDeleteVertexArrays  00000001400ecf98     <common>
 0003:00025fa0       glad_glAlphaFragmentOp2ATI 00000001400ecfa0     <common>
 0003:00025fa8       glad_glBindVertexArray     00000001400ecfa8     <common>
 0003:00025fb0       glad_glColor3hvNV          00000001400ecfb0     <common>
 0003:00025fb8       glad_glFlushMappedBufferRange 00000001400ecfb8     <common>
 0003:00025fc0       glad_glColor3hNV           00000001400ecfc0     <common>
 0003:00025fc8       glad_glMapBufferRange      00000001400ecfc8     <common>
 0003:00025fd0       glad_glNormal3hvNV         00000001400ecfd0     <common>
 0003:00025fd8       glad_glAlphaFragmentOp1ATI 00000001400ecfd8     <common>
 0003:00025fe0       glad_glNormal3hNV          00000001400ecfe0     <common>
 0003:00025fe8       glad_glFramebufferTextureLayer 00000001400ecfe8     <common>
 0003:00025ff0       glad_glVertex4hvNV         00000001400ecff0     <common>
 0003:00025ff8       glad_glVertex4hNV          00000001400ecff8     <common>
 0003:00026000       glad_glColorFragmentOp3ATI 00000001400ed000     <common>
 0003:00026008       glad_glRenderbufferStorageMultisample 00000001400ed008     <common>
 0003:00026010       glad_glVertex3hvNV         00000001400ed010     <common>
 0003:00026018       glad_glVertex3hNV          00000001400ed018     <common>
 0003:00026020       glad_glBlitFramebuffer     00000001400ed020     <common>
 0003:00026028       glad_glVertex2hvNV         00000001400ed028     <common>
 0003:00026030       glad_glVertex2hNV          00000001400ed030     <common>
 0003:00026038       glad_glColorFragmentOp2ATI 00000001400ed038     <common>
 0003:00026040       GLAD_GL_NV_half_float      00000001400ed040     <common>
 0003:00026044       GLAD_GL_NV_gpu_shader5     00000001400ed044     <common>
 0003:00026048       GLAD_GL_NV_gpu_program5_mem_extended 00000001400ed048     <common>
 0003:00026050       glad_glGetProgramSubroutineParameteruivNV 00000001400ed050     <common>
 0003:00026058       glad_glGenerateMipmap      00000001400ed058     <common>
 0003:00026060       glad_glGetFramebufferAttachmentParameteriv 00000001400ed060     <common>
 0003:00026068       glad_glProgramSubroutineParametersuivNV 00000001400ed068     <common>
 0003:00026070       GLAD_GL_NV_gpu_program5    00000001400ed070     <common>
 0003:00026078       glad_glColorFragmentOp1ATI 00000001400ed078     <common>
 0003:00026080       glad_glFramebufferRenderbuffer 00000001400ed080     <common>
 0003:00026088       glad_glGetProgramEnvParameterIuivNV 00000001400ed088     <common>
 0003:00026090       glad_glGetProgramEnvParameterIivNV 00000001400ed090     <common>
 0003:00026098       glad_glFramebufferTexture3D 00000001400ed098     <common>
 0003:000260a0       glad_glSampleMapATI        00000001400ed0a0     <common>
 0003:000260a8       glad_glGetProgramLocalParameterIuivNV 00000001400ed0a8     <common>
 0003:000260b0       glad_glPassTexCoordATI     00000001400ed0b0     <common>
 0003:000260b8       glad_glGetProgramLocalParameterIivNV 00000001400ed0b8     <common>
 0003:000260c0       glad_glFramebufferTexture2D 00000001400ed0c0     <common>
 0003:000260c8       glad_glEndFragmentShaderATI 00000001400ed0c8     <common>
 0003:000260d0       glad_glProgramEnvParametersI4uivNV 00000001400ed0d0     <common>
 0003:000260d8       glad_glBeginFragmentShaderATI 00000001400ed0d8     <common>
 0003:000260e0       glad_glFramebufferTexture1D 00000001400ed0e0     <common>
 0003:000260e8       glad_glDeleteFragmentShaderATI 00000001400ed0e8     <common>
 0003:000260f0       glad_glBindFragmentShaderATI 00000001400ed0f0     <common>
 0003:000260f8       glad_glProgramEnvParameterI4uivNV 00000001400ed0f8     <common>
 0003:00026100       glad_glGenFragmentShadersATI 00000001400ed100     <common>
 0003:00026108       glad_glCheckFramebufferStatus 00000001400ed108     <common>
 0003:00026110       GLAD_GL_ATI_fragment_shader 00000001400ed110     <common>
 0003:00026118       glad_glProgramEnvParameterI4uiNV 00000001400ed118     <common>
 0003:00026120       glad_glGetTexBumpParameterfvATI 00000001400ed120     <common>
 0003:00026128       glad_glGenFramebuffers     00000001400ed128     <common>
 0003:00026130       glad_glGetTexBumpParameterivATI 00000001400ed130     <common>
 0003:00026138       glad_glDeleteFramebuffers  00000001400ed138     <common>
 0003:00026140       glad_glTexBumpParameterfvATI 00000001400ed140     <common>
 0003:00026148       glad_glBindFramebuffer     00000001400ed148     <common>
 0003:00026150       glad_glProgramEnvParametersI4ivNV 00000001400ed150     <common>
 0003:00026158       glad_glTexBumpParameterivATI 00000001400ed158     <common>
 0003:00026160       glad_glIsFramebuffer       00000001400ed160     <common>
 0003:00026168       glad_glProgramEnvParameterI4ivNV 00000001400ed168     <common>
 0003:00026170       GLAD_GL_ATI_envmap_bumpmap 00000001400ed170     <common>
 0003:00026178       glad_glGetRenderbufferParameteriv 00000001400ed178     <common>
 0003:00026180       glad_glDrawRangeElementArrayATI 00000001400ed180     <common>
 0003:00026188       glad_glProgramEnvParameterI4iNV 00000001400ed188     <common>
 0003:00026190       glad_glRenderbufferStorage 00000001400ed190     <common>
 0003:00026198       glad_glDrawElementArrayATI 00000001400ed198     <common>
 0003:000261a0       glad_glElementPointerATI   00000001400ed1a0     <common>
 0003:000261a8       glad_glGenRenderbuffers    00000001400ed1a8     <common>
 0003:000261b0       glad_glProgramLocalParametersI4uivNV 00000001400ed1b0     <common>
 0003:000261b8       GLAD_GL_ATI_element_array  00000001400ed1b8     <common>
 0003:000261c0       glad_glDrawBuffersATI      00000001400ed1c0     <common>
 0003:000261c8       glad_glDeleteRenderbuffers 00000001400ed1c8     <common>
 0003:000261d0       GLAD_GL_ATI_draw_buffers   00000001400ed1d0     <common>
 0003:000261d8       glad_glBindRenderbuffer    00000001400ed1d8     <common>
 0003:000261e0       glad_glWindowPos3svARB     00000001400ed1e0     <common>
 0003:000261e8       glad_glProgramLocalParameterI4uivNV 00000001400ed1e8     <common>
 0003:000261f0       glad_glWindowPos3sARB      00000001400ed1f0     <common>
 0003:000261f8       glad_glIsRenderbuffer      00000001400ed1f8     <common>
 0003:00026200       glad_glGetStringi          00000001400ed200     <common>
 0003:00026208       glad_glProgramLocalParameterI4uiNV 00000001400ed208     <common>
 0003:00026210       glad_glWindowPos3ivARB     00000001400ed210     <common>
 0003:00026218       glad_glClearBufferfi       00000001400ed218     <common>
 0003:00026220       glad_glWindowPos3iARB      00000001400ed220     <common>
 0003:00026228       glad_glProgramLocalParametersI4ivNV 00000001400ed228     <common>
 0003:00026230       glad_glWindowPos3fvARB     00000001400ed230     <common>
 0003:00026238       glad_glClearBufferfv       00000001400ed238     <common>
 0003:00026240       glad_glWindowPos3fARB      00000001400ed240     <common>
 0003:00026248       glad_glClearBufferuiv      00000001400ed248     <common>
 0003:00026250       glad_glProgramLocalParameterI4ivNV 00000001400ed250     <common>
 0003:00026258       glad_glWindowPos3dvARB     00000001400ed258     <common>
 0003:00026260       glad_glWindowPos3dARB      00000001400ed260     <common>
 0003:00026268       glad_glProgramLocalParameterI4iNV 00000001400ed268     <common>
 0003:00026270       glad_glClearBufferiv       00000001400ed270     <common>
 0003:00026278       glad_glWindowPos2svARB     00000001400ed278     <common>
 0003:00026280       glad_glGetTexParameterIuiv 00000001400ed280     <common>
 0003:00026288       glad_glWindowPos2sARB      00000001400ed288     <common>
 0003:00026290       GLAD_GL_NV_gpu_program4    00000001400ed290     <common>
 0003:00026298       glad_glMulticastGetQueryObjectui64vNV 00000001400ed298     <common>
 0003:000262a0       glad_glGetTexParameterIiv  00000001400ed2a0     <common>
 0003:000262a8       glad_glWindowPos2ivARB     00000001400ed2a8     <common>
 0003:000262b0       glad_glWindowPos2iARB      00000001400ed2b0     <common>
 0003:000262b8       glad_glTexParameterIuiv    00000001400ed2b8     <common>
 0003:000262c0       glad_glMulticastGetQueryObjecti64vNV 00000001400ed2c0     <common>
 0003:000262c8       glad_glWindowPos2fvARB     00000001400ed2c8     <common>
 0003:000262d0       glad_glWindowPos2fARB      00000001400ed2d0     <common>
 0003:000262d8       glad_glTexParameterIiv     00000001400ed2d8     <common>
 0003:000262e0       glad_glMulticastGetQueryObjectuivNV 00000001400ed2e0     <common>
 0003:000262e8       glad_glWindowPos2dvARB     00000001400ed2e8     <common>
 0003:000262f0       glad_glUniform4uiv         00000001400ed2f0     <common>
 0003:000262f8       glad_glWindowPos2dARB      00000001400ed2f8     <common>
 0003:00026300       glad_glMulticastGetQueryObjectivNV 00000001400ed300     <common>
 0003:00026308       GLAD_GL_ARB_window_pos     00000001400ed308     <common>
 0003:00026310       glad_glUniform3uiv         00000001400ed310     <common>
 0003:00026318       glad_glGetDoublei_v        00000001400ed318     <common>
 0003:00026320       glad_glMulticastWaitSyncNV 00000001400ed320     <common>
 0003:00026328       glad_glGetFloati_v         00000001400ed328     <common>
 0003:00026330       glad_glUniform2uiv         00000001400ed330     <common>
 0003:00026338       glad_glMulticastBarrierNV  00000001400ed338     <common>
 0003:00026340       glad_glUniform1uiv         00000001400ed340     <common>
 0003:00026348       glad_glDepthRangeIndexed   00000001400ed348     <common>
 0003:00026350       glad_glMulticastFramebufferSampleLocationsfvNV 00000001400ed350     <common>
 0003:00026358       glad_glDepthRangeArrayv    00000001400ed358     <common>
 0003:00026360       glad_glUniform4ui          00000001400ed360     <common>
 0003:00026368       glad_glMulticastBlitFramebufferNV 00000001400ed368     <common>
 0003:00026370       glad_glScissorIndexedv     00000001400ed370     <common>
 0003:00026378       glad_glUniform3ui          00000001400ed378     <common>
 0003:00026380       glad_glScissorIndexed      00000001400ed380     <common>
 0003:00026388       glad_glUniform2ui          00000001400ed388     <common>
 0003:00026390       glad_glScissorArrayv       00000001400ed390     <common>
 0003:00026398       glad_glUniform1ui          00000001400ed398     <common>
 0003:000263a0       glad_glMulticastCopyImageSubDataNV 00000001400ed3a0     <common>
 0003:000263a8       glad_glViewportIndexedfv   00000001400ed3a8     <common>
 0003:000263b0       glad_glGetFragDataLocation 00000001400ed3b0     <common>
 0003:000263b8       glad_glViewportIndexedf    00000001400ed3b8     <common>
 0003:000263c0       glad_glBindFragDataLocation 00000001400ed3c0     <common>
 0003:000263c8       glad_glGetUniformuiv       00000001400ed3c8     <common>
 0003:000263d0       glad_glViewportArrayv      00000001400ed3d0     <common>
 0003:000263d8       glad_glVertexAttribI4usv   00000001400ed3d8     <common>
 0003:000263e0       GLAD_GL_ARB_viewport_array 00000001400ed3e0     <common>
 0003:000263e4       GLAD_GL_ARB_vertex_JTYPE_2_10_10_10_rev 00000001400ed3e4     <common>
 0003:000263e8       GLAD_GL_ARB_vertex_JTYPE_10f_11f_11f_rev 00000001400ed3e8     <common>
 0003:000263f0       glad_glGetAttribLocationARB 00000001400ed3f0     <common>
 0003:000263f8       glad_glVertexAttribI4ubv   00000001400ed3f8     <common>
 0003:00026400       glad_glMulticastCopyBufferSubDataNV 00000001400ed400     <common>
 0003:00026408       glad_glGetActiveAttribARB  00000001400ed408     <common>
 0003:00026410       glad_glVertexAttribI4sv    00000001400ed410     <common>
 0003:00026418       glad_glVertexAttribI4bv    00000001400ed418     <common>
 0003:00026420       glad_glMulticastBufferSubDataNV 00000001400ed420     <common>
 0003:00026428       glad_glVertexAttribI4uiv   00000001400ed428     <common>
 0003:00026430       glad_glBindAttribLocationARB 00000001400ed430     <common>
 0003:00026438       glad_glVertexAttribI3uiv   00000001400ed438     <common>
 0003:00026440       GLAD_GL_ARB_vertex_shader  00000001400ed440     <common>
 0003:00026448       glad_glGetVertexAttribPointervARB 00000001400ed448     <common>
 0003:00026450       glad_glRenderGpuMaskNV     00000001400ed450     <common>
 0003:00026458       glad_glVertexAttribI2uiv   00000001400ed458     <common>
 0003:00026460       GLAD_GL_NV_gpu_multicast   00000001400ed460     <common>
 0003:00026464       GLAD_GL_NV_geometry_shader_passthrough 00000001400ed464     <common>
 0003:00026468       glad_glVertexAttribI1uiv   00000001400ed468     <common>
 0003:00026470       GLAD_GL_NV_geometry_shader4 00000001400ed470     <common>
 0003:00026478       glad_glFramebufferTextureFaceEXT 00000001400ed478     <common>
 0003:00026480       glad_glGetVertexAttribivARB 00000001400ed480     <common>
 0003:00026488       glad_glVertexAttribI4iv    00000001400ed488     <common>
 0003:00026490       glad_glGetVertexAttribfvARB 00000001400ed490     <common>
 0003:00026498       glad_glVertexAttribI3iv    00000001400ed498     <common>
 0003:000264a0       glad_glFramebufferTextureEXT 00000001400ed4a0     <common>
 0003:000264a8       glad_glGetVertexAttribdvARB 00000001400ed4a8     <common>
 0003:000264b0       glad_glVertexAttribI2iv    00000001400ed4b0     <common>
 0003:000264b8       glad_glProgramVertexLimitNV 00000001400ed4b8     <common>
 0003:000264c0       glad_glVertexAttribI1iv    00000001400ed4c0     <common>
 0003:000264c8       glad_glDisableVertexAttribArrayARB 00000001400ed4c8     <common>
 0003:000264d0       GLAD_GL_NV_geometry_program4 00000001400ed4d0     <common>
 0003:000264d8       glad_glRenderbufferStorageMultisampleCoverageNV 00000001400ed4d8     <common>
 0003:000264e0       glad_glEnableVertexAttribArrayARB 00000001400ed4e0     <common>
 0003:000264e8       glad_glVertexAttribI4ui    00000001400ed4e8     <common>
 0003:000264f0       glad_glVertexAttribPointerARB 00000001400ed4f0     <common>
 0003:000264f8       glad_glVertexAttribI3ui    00000001400ed4f8     <common>
 0003:00026500       GLAD_GL_NV_framebuffer_multisample_coverage 00000001400ed500     <common>
 0003:00026508       glad_glCoverageModulationNV 00000001400ed508     <common>
 0003:00026510       glad_glVertexAttrib4usvARB 00000001400ed510     <common>
 0003:00026518       glad_glGetCoverageModulationTableNV 00000001400ed518     <common>
 0003:00026520       glad_glVertexAttribI2ui    00000001400ed520     <common>
 0003:00026528       glad_glVertexAttrib4uivARB 00000001400ed528     <common>
 0003:00026530       glad_glCoverageModulationTableNV 00000001400ed530     <common>
 0003:00026538       glad_glVertexAttribI1ui    00000001400ed538     <common>
 0003:00026540       glad_glVertexAttrib4ubvARB 00000001400ed540     <common>
 0003:00026548       GLAD_GL_NV_framebuffer_mixed_samples 00000001400ed548     <common>
 0003:0002654c       GLAD_GL_NV_fragment_shader_interlock 00000001400ed54c     <common>
 0003:00026550       GLAD_GL_NV_fragment_program_option 00000001400ed550     <common>
 0003:00026554       GLAD_GL_NV_fragment_program4 00000001400ed554     <common>
 0003:00026558       GLAD_GL_NV_fragment_program2 00000001400ed558     <common>
 0003:00026560       glad_glVertexAttrib4svARB  00000001400ed560     <common>
 0003:00026568       glad_glGetProgramNamedParameterdvNV 00000001400ed568     <common>
 0003:00026570       glad_glVertexAttribI4i     00000001400ed570     <common>
 0003:00026578       glad_glVertexAttrib4sARB   00000001400ed578     <common>
 0003:00026580       glad_glGetProgramNamedParameterfvNV 00000001400ed580     <common>
 0003:00026588       glad_glVertexAttribI3i     00000001400ed588     <common>
 0003:00026590       glad_glVertexAttrib4ivARB  00000001400ed590     <common>
 0003:00026598       glad_glProgramNamedParameter4dvNV 00000001400ed598     <common>
 0003:000265a0       glad_glVertexAttribI2i     00000001400ed5a0     <common>
 0003:000265a8       glad_glVertexAttrib4fvARB  00000001400ed5a8     <common>
 0003:000265b0       glad_glProgramNamedParameter4dNV 00000001400ed5b0     <common>
 0003:000265b8       glad_glVertexAttribI1i     00000001400ed5b8     <common>
 0003:000265c0       glad_glVertexAttrib4fARB   00000001400ed5c0     <common>
 0003:000265c8       glad_glGetVertexAttribIuiv 00000001400ed5c8     <common>
 0003:000265d0       glad_glVertexAttrib4dvARB  00000001400ed5d0     <common>
 0003:000265d8       glad_glGetVertexAttribIiv  00000001400ed5d8     <common>
 0003:000265e0       glad_glProgramNamedParameter4fvNV 00000001400ed5e0     <common>
 0003:000265e8       glad_glVertexAttrib4dARB   00000001400ed5e8     <common>
 0003:000265f0       glad_glVertexAttribIPointer 00000001400ed5f0     <common>
 0003:000265f8       glad_glProgramNamedParameter4fNV 00000001400ed5f8     <common>
 0003:00026600       glad_glVertexAttrib4bvARB  00000001400ed600     <common>
 0003:00026608       glad_glEndConditionalRender 00000001400ed608     <common>
 0003:00026610       glad_glVertexAttrib4NusvARB 00000001400ed610     <common>
 0003:00026618       glad_glBeginConditionalRender 00000001400ed618     <common>
 0003:00026620       GLAD_GL_NV_fragment_program 00000001400ed620     <common>
 0003:00026628       glad_glVertexAttrib4NuivARB 00000001400ed628     <common>
 0003:00026630       glad_glClampColor          00000001400ed630     <common>
 0003:00026638       glad_glFragmentCoverageColorNV 00000001400ed638     <common>
 0003:00026640       GLAD_GL_NV_fragment_coverage_to_color 00000001400ed640     <common>
 0003:00026644       GLAD_GL_NV_fog_distance    00000001400ed644     <common>
 0003:00026648       glad_glVertexAttrib4NubvARB 00000001400ed648     <common>
 0003:00026650       glad_glGetTransformFeedbackVarying 00000001400ed650     <common>
 0003:00026658       GLAD_GL_NV_float_buffer    00000001400ed658     <common>
 0003:0002665c       GLAD_GL_NV_fill_rectangle  00000001400ed65c     <common>
 0003:00026660       glad_glSetFenceNV          00000001400ed660     <common>
 0003:00026668       glad_glVertexAttrib4NubARB 00000001400ed668     <common>
 0003:00026670       glad_glFinishFenceNV       00000001400ed670     <common>
 0003:00026678       glad_glGetFenceivNV        00000001400ed678     <common>
 0003:00026680       glad_glTransformFeedbackVaryings 00000001400ed680     <common>
 0003:00026688       glad_glVertexAttrib4NsvARB 00000001400ed688     <common>
 0003:00026690       glad_glTestFenceNV         00000001400ed690     <common>
 0003:00026698       glad_glVertexAttrib4NivARB 00000001400ed698     <common>
 0003:000266a0       glad_glIsFenceNV           00000001400ed6a0     <common>
 0003:000266a8       glad_glBindBufferBase      00000001400ed6a8     <common>
 0003:000266b0       glad_glGenFencesNV         00000001400ed6b0     <common>
 0003:000266b8       glad_glVertexAttrib4NbvARB 00000001400ed6b8     <common>
 0003:000266c0       glad_glBindBufferRange     00000001400ed6c0     <common>
 0003:000266c8       glad_glDeleteFencesNV      00000001400ed6c8     <common>
 0003:000266d0       glad_glVertexAttrib3svARB  00000001400ed6d0     <common>
 0003:000266d8       GLAD_GL_NV_fence           00000001400ed6d8     <common>
 0003:000266e0       glad_glVertexAttrib3sARB   00000001400ed6e0     <common>
 0003:000266e8       glad_glTexRenderbufferNV   00000001400ed6e8     <common>
 0003:000266f0       glad_glEndTransformFeedback 00000001400ed6f0     <common>
 0003:000266f8       glad_glSampleMaskIndexedNV 00000001400ed6f8     <common>
 0003:00026700       glad_glBeginTransformFeedback 00000001400ed700     <common>
 0003:00026708       glad_glVertexAttrib3fvARB  00000001400ed708     <common>
 0003:00026710       glad_glGetMultisamplefvNV  00000001400ed710     <common>
 0003:00026718       glad_glIsEnabledi          00000001400ed718     <common>
 0003:00026720       glad_glVertexAttrib3fARB   00000001400ed720     <common>
 0003:00026728       glad_glDisablei            00000001400ed728     <common>
 0003:00026730       GLAD_GL_NV_explicit_multisample 00000001400ed730     <common>
 0003:00026738       glad_glEvalMapsNV          00000001400ed738     <common>
 0003:00026740       glad_glEnablei             00000001400ed740     <common>
 0003:00026748       glad_glVertexAttrib3dvARB  00000001400ed748     <common>
 0003:00026750       glad_glGetMapAttribParameterfvNV 00000001400ed750     <common>
 0003:00026758       glad_glGetIntegeri_v       00000001400ed758     <common>
 0003:00026760       glad_glVertexAttrib3dARB   00000001400ed760     <common>
 0003:00026768       glad_glGetMapAttribParameterivNV 00000001400ed768     <common>
 0003:00026770       glad_glGetBooleani_v       00000001400ed770     <common>
 0003:00026778       glad_glVertexAttrib2svARB  00000001400ed778     <common>
 0003:00026780       glad_glColorMaski          00000001400ed780     <common>
 0003:00026788       glad_glGetMapParameterfvNV 00000001400ed788     <common>
 0003:00026790       glad_glVertexAttrib2sARB   00000001400ed790     <common>
 0003:00026798       glad_glGetMapParameterivNV 00000001400ed798     <common>
 0003:000267a0       glad_glVertexAttrib2fvARB  00000001400ed7a0     <common>
 0003:000267a8       GLAD_GL_VERSION_3_0        00000001400ed7a8     <common>
 0003:000267b0       glad_glUniformMatrix4x3fv  00000001400ed7b0     <common>
 0003:000267b8       glad_glVertexAttrib2fARB   00000001400ed7b8     <common>
 0003:000267c0       glad_glGetMapControlPointsNV 00000001400ed7c0     <common>
 0003:000267c8       glad_glUniformMatrix3x4fv  00000001400ed7c8     <common>
 0003:000267d0       glad_glVertexAttrib2dvARB  00000001400ed7d0     <common>
 0003:000267d8       glad_glVertexAttrib2dARB   00000001400ed7d8     <common>
 0003:000267e0       glad_glUniformMatrix4x2fv  00000001400ed7e0     <common>
 0003:000267e8       glad_glMapParameterfvNV    00000001400ed7e8     <common>
 0003:000267f0       glad_glVertexAttrib1svARB  00000001400ed7f0     <common>
 0003:000267f8       glad_glMapParameterivNV    00000001400ed7f8     <common>
 0003:00026800       glad_glUniformMatrix2x4fv  00000001400ed800     <common>
 0003:00026808       glad_glVertexAttrib1sARB   00000001400ed808     <common>
 0003:00026810       glad_glMapControlPointsNV  00000001400ed810     <common>
 0003:00026818       glad_glVertexAttrib1fvARB  00000001400ed818     <common>
 0003:00026820       glad_glUniformMatrix3x2fv  00000001400ed820     <common>
 0003:00026828       glad_glVertexAttrib1fARB   00000001400ed828     <common>
 0003:00026830       glad_glVertexAttrib1dvARB  00000001400ed830     <common>
 0003:00026838       glad_glUniformMatrix2x3fv  00000001400ed838     <common>
 0003:00026840       GLAD_GL_OES_texture_mirrored_repeat 00000001400ed840     <common>
 0003:00026844       GLAD_GL_OES_texture_env_crossbar 00000001400ed844     <common>
 0003:00026848       glad_glGetTexGenivOES      00000001400ed848     <common>
 0003:00026850       glad_glVertexAttrib1dARB   00000001400ed850     <common>
 0003:00026858       GLAD_GL_NV_evaluators      00000001400ed858     <common>
 0003:00026860       glad_glSignalVkFenceNV     00000001400ed860     <common>
 0003:00026868       GLAD_GL_VERSION_2_1        00000001400ed868     <common>
 0003:0002686c       GLAD_GL_ARB_vertex_program 00000001400ed86c     <common>
 0003:00026870       glad_glVertexAttribPointer 00000001400ed870     <common>
 0003:00026878       glad_glSignalVkSemaphoreNV 00000001400ed878     <common>
 0003:00026880       glad_glGetBufferPointervARB 00000001400ed880     <common>
 0003:00026888       glad_glGetTexGenfvOES      00000001400ed888     <common>
 0003:00026890       glad_glWaitVkSemaphoreNV   00000001400ed890     <common>
 0003:00026898       glad_glGetVkProcAddrNV     00000001400ed898     <common>
 0003:000268a0       glad_glTexGenivOES         00000001400ed8a0     <common>
 0003:000268a8       glad_glGetBufferParameterivARB 00000001400ed8a8     <common>
 0003:000268b0       glad_glDrawVkImageNV       00000001400ed8b0     <common>
 0003:000268b8       glad_glVertexAttrib4usv    00000001400ed8b8     <common>
 0003:000268c0       glad_glUnmapBufferARB      00000001400ed8c0     <common>
 0003:000268c8       glad_glTexGeniOES          00000001400ed8c8     <common>
 0003:000268d0       glad_glVertexAttrib4uiv    00000001400ed8d0     <common>
 0003:000268d8       glad_glMapBufferARB        00000001400ed8d8     <common>
 0003:000268e0       glad_glTexGenfvOES         00000001400ed8e0     <common>
 0003:000268e8       glad_glVertexAttrib4ubv    00000001400ed8e8     <common>
 0003:000268f0       glad_glGetBufferSubDataARB 00000001400ed8f0     <common>
 0003:000268f8       glad_glVertexAttrib4sv     00000001400ed8f8     <common>
 0003:00026900       glad_glTexGenfOES          00000001400ed900     <common>
 0003:00026908       GLAD_GL_NV_draw_vulkan_image 00000001400ed908     <common>
 0003:00026910       glad_glBufferSubDataARB    00000001400ed910     <common>
 0003:00026918       glad_glDrawTextureNV       00000001400ed918     <common>
 0003:00026920       glad_glVertexAttrib4s      00000001400ed920     <common>
 0003:00026928       GLAD_GL_OES_texture_cube_map 00000001400ed928     <common>
 0003:0002692c       GLAD_GL_OES_stencil_wrap   00000001400ed92c     <common>
 0003:00026930       GLAD_GL_OES_stencil8       00000001400ed930     <common>
 0003:00026934       GLAD_GL_OES_point_sprite   00000001400ed934     <common>
 0003:00026938       glad_glPointSizePointerOES 00000001400ed938     <common>
 0003:00026940       glad_glBufferDataARB       00000001400ed940     <common>
 0003:00026948       glad_glVertexAttrib4iv     00000001400ed948     <common>
 0003:00026950       GLAD_GL_OES_point_size_array 00000001400ed950     <common>
 0003:00026958       glad_glWeightPointerOES    00000001400ed958     <common>
 0003:00026960       glad_glVertexAttrib4fv     00000001400ed960     <common>
 0003:00026968       glad_glIsBufferARB         00000001400ed968     <common>
 0003:00026970       glad_glGenBuffersARB       00000001400ed970     <common>
 0003:00026978       GLAD_GL_NV_draw_texture    00000001400ed978     <common>
 0003:0002697c       GLAD_GL_NV_depth_clamp     00000001400ed97c     <common>
 0003:00026980       glad_glVertexAttrib4f      00000001400ed980     <common>
 0003:00026988       glad_glDepthBoundsdNV      00000001400ed988     <common>
 0003:00026990       glad_glMatrixIndexPointerOES 00000001400ed990     <common>
 0003:00026998       glad_glDeleteBuffersARB    00000001400ed998     <common>
 0003:000269a0       glad_glClearDepthdNV       00000001400ed9a0     <common>
 0003:000269a8       glad_glBindBufferARB       00000001400ed9a8     <common>
 0003:000269b0       glad_glDepthRangedNV       00000001400ed9b0     <common>
 0003:000269b8       glad_glLoadPaletteFromModelViewMatrixOES 00000001400ed9b8     <common>
 0003:000269c0       glad_glVertexAttrib4dv     00000001400ed9c0     <common>
 0003:000269c8       glad_glCurrentPaletteMatrixOES 00000001400ed9c8     <common>
 0003:000269d0       GLAD_GL_ARB_vertex_buffer_object 00000001400ed9d0     <common>
 0003:000269d4       GLAD_GL_NV_depth_buffer_float 00000001400ed9d4     <common>
 0003:000269d8       glad_glVertexBlendARB      00000001400ed9d8     <common>
 0003:000269e0       glad_glVertexAttrib4d      00000001400ed9e0     <common>
 0003:000269e8       GLAD_GL_NV_deep_texture3D  00000001400ed9e8     <common>
 0003:000269f0       glad_glCopyImageSubDataNV  00000001400ed9f0     <common>
 0003:000269f8       GLAD_GL_OES_matrix_palette 00000001400ed9f8     <common>
 0003:000269fc       GLAD_GL_OES_matrix_get     00000001400ed9fc     <common>
 0003:00026a00       glad_glGenerateMipmapOES   00000001400eda00     <common>
 0003:00026a08       glad_glWeightPointerARB    00000001400eda08     <common>
 0003:00026a10       glad_glGetFramebufferAttachmentParameterivOES 00000001400eda10     <common>
 0003:00026a18       glad_glVertexAttrib4bv     00000001400eda18     <common>
 0003:00026a20       glad_glWeightuivARB        00000001400eda20     <common>
 0003:00026a28       glad_glFramebufferTexture2DOES 00000001400eda28     <common>
 0003:00026a30       glad_glVertexAttrib4Nusv   00000001400eda30     <common>
 0003:00026a38       glad_glWeightusvARB        00000001400eda38     <common>
 0003:00026a40       glad_glVertexAttrib4Nuiv   00000001400eda40     <common>
 0003:00026a48       glad_glWeightubvARB        00000001400eda48     <common>
 0003:00026a50       glad_glFramebufferRenderbufferOES 00000001400eda50     <common>
 0003:00026a58       glad_glVertexAttrib4Nubv   00000001400eda58     <common>
 0003:00026a60       glad_glWeightdvARB         00000001400eda60     <common>
 0003:00026a68       GLAD_GL_NV_copy_image      00000001400eda68     <common>
 0003:00026a6c       GLAD_GL_NV_copy_depth_to_color 00000001400eda6c     <common>
 0003:00026a70       GLAD_GL_NV_conservative_raster_underestimation 00000001400eda70     <common>
 0003:00026a78       glad_glConservativeRasterParameteriNV 00000001400eda78     <common>
 0003:00026a80       glad_glVertexAttrib4Nub    00000001400eda80     <common>
 0003:00026a88       glad_glWeightfvARB         00000001400eda88     <common>
 0003:00026a90       glad_glCheckFramebufferStatusOES 00000001400eda90     <common>
 0003:00026a98       GLAD_GL_NV_conservative_raster_pre_snap_triangles 00000001400eda98     <common>
 0003:00026aa0       glad_glGenFramebuffersOES  00000001400edaa0     <common>
 0003:00026aa8       GLAD_GL_NV_conservative_raster_pre_snap 00000001400edaa8     <common>
 0003:00026ab0       glad_glWeightivARB         00000001400edab0     <common>
 0003:00026ab8       glad_glConservativeRasterParameterfNV 00000001400edab8     <common>
 0003:00026ac0       glad_glVertexAttrib4Nsv    00000001400edac0     <common>
 0003:00026ac8       glad_glDeleteFramebuffersOES 00000001400edac8     <common>
 0003:00026ad0       GLAD_GL_NV_conservative_raster_dilate 00000001400edad0     <common>
 0003:00026ad8       glad_glWeightsvARB         00000001400edad8     <common>
 0003:00026ae0       glad_glSubpixelPrecisionBiasNV 00000001400edae0     <common>
 0003:00026ae8       glad_glVertexAttrib4Niv    00000001400edae8     <common>
 0003:00026af0       glad_glBindFramebufferOES  00000001400edaf0     <common>
 0003:00026af8       glad_glWeightbvARB         00000001400edaf8     <common>
 0003:00026b00       GLAD_GL_NV_conservative_raster 00000001400edb00     <common>
 0003:00026b08       glad_glEndConditionalRenderNV 00000001400edb08     <common>
 0003:00026b10       glad_glVertexAttrib4Nbv    00000001400edb10     <common>
 0003:00026b18       glad_glIsFramebufferOES    00000001400edb18     <common>
 0003:00026b20       glad_glBeginConditionalRenderNV 00000001400edb20     <common>
 0003:00026b28       GLAD_GL_ARB_vertex_blend   00000001400edb28     <common>
 0003:00026b30       glad_glVertexBindingDivisor 00000001400edb30     <common>
 0003:00026b38       glad_glGetRenderbufferParameterivOES 00000001400edb38     <common>
 0003:00026b40       glad_glVertexAttrib3sv     00000001400edb40     <common>
 0003:00026b48       GLAD_GL_NV_conditional_render 00000001400edb48     <common>
 0003:00026b4c       GLAD_GL_NV_compute_program5 00000001400edb4c     <common>
 0003:00026b50       glad_glCallCommandListNV   00000001400edb50     <common>
 0003:00026b58       glad_glVertexAttribBinding 00000001400edb58     <common>
 0003:00026b60       glad_glVertexAttrib3s      00000001400edb60     <common>
 0003:00026b68       glad_glRenderbufferStorageOES 00000001400edb68     <common>
 0003:00026b70       glad_glCompileCommandListNV 00000001400edb70     <common>
 0003:00026b78       glad_glVertexAttribLFormat 00000001400edb78     <common>
 0003:00026b80       glad_glCommandListSegmentsNV 00000001400edb80     <common>
 0003:00026b88       glad_glVertexAttrib3fv     00000001400edb88     <common>
 0003:00026b90       glad_glListDrawCommandsStatesClientNV 00000001400edb90     <common>
 0003:00026b98       glad_glGenRenderbuffersOES 00000001400edb98     <common>
 0003:00026ba0       glad_glVertexAttribIFormat 00000001400edba0     <common>
 0003:00026ba8       glad_glVertexAttrib3f      00000001400edba8     <common>
 0003:00026bb0       glad_glDeleteRenderbuffersOES 00000001400edbb0     <common>
 0003:00026bb8       glad_glBindRenderbufferOES 00000001400edbb8     <common>
 0003:00026bc0       glad_glVertexAttribFormat  00000001400edbc0     <common>
 0003:00026bc8       glad_glVertexAttrib3dv     00000001400edbc8     <common>
 0003:00026bd0       glad_glIsCommandListNV     00000001400edbd0     <common>
 0003:00026bd8       glad_glIsRenderbufferOES   00000001400edbd8     <common>
 0003:00026be0       glad_glDeleteCommandListsNV 00000001400edbe0     <common>
 0003:00026be8       glad_glVertexAttrib3d      00000001400edbe8     <common>
 0003:00026bf0       GLAD_GL_OES_framebuffer_object 00000001400edbf0     <common>
 0003:00026bf4       GLAD_GL_OES_extended_matrix_palette 00000001400edbf4     <common>
 0003:00026bf8       glad_glDrawTexfvOES        00000001400edbf8     <common>
 0003:00026c00       glad_glBindVertexBuffer    00000001400edc00     <common>
 0003:00026c08       glad_glCreateCommandListsNV 00000001400edc08     <common>
 0003:00026c10       glad_glDrawTexfOES         00000001400edc10     <common>
 0003:00026c18       glad_glVertexAttrib2sv     00000001400edc18     <common>
 0003:00026c20       glad_glDrawCommandsStatesAddressNV 00000001400edc20     <common>
 0003:00026c28       GLAD_GL_ARB_vertex_attrib_binding 00000001400edc28     <common>
 0003:00026c30       glad_glGetVertexAttribLdv  00000001400edc30     <common>
 0003:00026c38       glad_glVertexAttrib2s      00000001400edc38     <common>
 0003:00026c40       glad_glDrawTexxvOES        00000001400edc40     <common>
 0003:00026c48       glad_glVertexAttribLPointer 00000001400edc48     <common>
 0003:00026c50       glad_glDrawTexivOES        00000001400edc50     <common>
 0003:00026c58       glad_glDrawCommandsStatesNV 00000001400edc58     <common>
 0003:00026c60       glad_glVertexAttrib2fv     00000001400edc60     <common>
 0003:00026c68       glad_glDrawTexsvOES        00000001400edc68     <common>
 0003:00026c70       glad_glVertexAttrib2f      00000001400edc70     <common>
 0003:00026c78       glad_glDrawTexxOES         00000001400edc78     <common>
 0003:00026c80       glad_glVertexAttribL4dv    00000001400edc80     <common>
 0003:00026c88       glad_glDrawCommandsAddressNV 00000001400edc88     <common>
 0003:00026c90       glad_glVertexAttrib2dv     00000001400edc90     <common>
 0003:00026c98       glad_glVertexAttribL3dv    00000001400edc98     <common>
 0003:00026ca0       glad_glDrawTexiOES         00000001400edca0     <common>
 0003:00026ca8       glad_glVertexAttrib2d      00000001400edca8     <common>
 0003:00026cb0       glad_glVertexAttribL2dv    00000001400edcb0     <common>
 0003:00026cb8       glad_glDrawCommandsNV      00000001400edcb8     <common>
 0003:00026cc0       glad_glVertexAttribL1dv    00000001400edcc0     <common>
 0003:00026cc8       glad_glVertexAttrib1sv     00000001400edcc8     <common>
 0003:00026cd0       glad_glDrawTexsOES         00000001400edcd0     <common>
 0003:00026cd8       glad_glVertexAttribL4d     00000001400edcd8     <common>
 0003:00026ce0       glad_glVertexAttrib1s      00000001400edce0     <common>
 0003:00026ce8       glad_glGetStageIndexNV     00000001400edce8     <common>
 0003:00026cf0       glad_glGetCommandHeaderNV  00000001400edcf0     <common>
 0003:00026cf8       glad_glVertexAttrib1fv     00000001400edcf8     <common>
 0003:00026d00       GLAD_GL_OES_draw_texture   00000001400edd00     <common>
 0003:00026d08       glad_glBlendEquationOES    00000001400edd08     <common>
 0003:00026d10       glad_glStateCaptureNV      00000001400edd10     <common>
 0003:00026d18       glad_glVertexAttribL3d     00000001400edd18     <common>
 0003:00026d20       glad_glVertexAttrib1f      00000001400edd20     <common>
 0003:00026d28       GLAD_GL_OES_blend_subtract 00000001400edd28     <common>
 0003:00026d30       glad_glBlendFuncSeparateOES 00000001400edd30     <common>
 0003:00026d38       glad_glIsStateNV           00000001400edd38     <common>
 0003:00026d40       glad_glVertexAttrib1dv     00000001400edd40     <common>
 0003:00026d48       glad_glDeleteStatesNV      00000001400edd48     <common>
 0003:00026d50       glad_glVertexAttribL2d     00000001400edd50     <common>
 0003:00026d58       glad_glVertexAttrib1d      00000001400edd58     <common>
 0003:00026d60       GLAD_GL_OES_blend_func_separate 00000001400edd60     <common>
 0003:00026d68       glad_glBlendEquationSeparateOES 00000001400edd68     <common>
 0003:00026d70       glad_glCreateStatesNV      00000001400edd70     <common>
 0003:00026d78       glad_glValidateProgram     00000001400edd78     <common>
 0003:00026d80       glad_glVertexAttribL1d     00000001400edd80     <common>
 0003:00026d88       GLAD_GL_OES_blend_equation_separate 00000001400edd88     <common>
 0003:00026d8c       GLAD_GL_NV_command_list    00000001400edd8c     <common>
 0003:00026d90       glad_glClipPlanexIMG       00000001400edd90     <common>
 0003:00026d98       glad_glViewportPositionWScaleNV 00000001400edd98     <common>
 0003:00026da0       glad_glUniformMatrix4fv    00000001400edda0     <common>
 0003:00026da8       GLAD_GL_ARB_vertex_attrib_64bit 00000001400edda8     <common>
 0003:00026dac       GLAD_GL_ARB_vertex_array_object 00000001400eddac     <common>
 0003:00026db0       GLAD_GL_ARB_vertex_array_bgra 00000001400eddb0     <common>
 0003:00026db8       glad_glClipPlanefIMG       00000001400eddb8     <common>
 0003:00026dc0       GLAD_GL_ARB_uniform_buffer_object 00000001400eddc0     <common>
 0003:00026dc8       glad_glMultTransposeMatrixdARB 00000001400eddc8     <common>
 0003:00026dd0       GLAD_GL_NV_clip_space_w_scaling 00000001400eddd0     <common>
 0003:00026dd4       GLAD_GL_NV_blend_square    00000001400eddd4     <common>
 0003:00026dd8       GLAD_GL_NV_blend_minmax_factor 00000001400eddd8     <common>
 0003:00026de0       glad_glUniformMatrix3fv    00000001400edde0     <common>
 0003:00026de8       glad_glMultTransposeMatrixfARB 00000001400edde8     <common>
 0003:00026df0       GLAD_GL_IMG_user_clip_plane 00000001400eddf0     <common>
 0003:00026df4       GLAD_GL_NV_blend_equation_advanced_coherent 00000001400eddf4     <common>
 0003:00026df8       glad_glBlendBarrierNV      00000001400eddf8     <common>
 0003:00026e00       GLAD_GL_IMG_texture_env_enhanced_fixed_function 00000001400ede00     <common>
 0003:00026e04       GLAD_GL_APPLE_texture_2D_limited_npot 00000001400ede04     <common>
 0003:00026e08       GLAD_GL_VIV_shader_binary  00000001400ede08     <common>
 0003:00026e10       glad_glLoadTransposeMatrixdARB 00000001400ede10     <common>
 0003:00026e18       GLAD_GL_QCOM_writeonly_rendering 00000001400ede18     <common>
 0003:00026e20       glad_glBlendParameteriNV   00000001400ede20     <common>
 0003:00026e28       glad_glEndTilingQCOM       00000001400ede28     <common>
 0003:00026e30       glad_glLoadTransposeMatrixfARB 00000001400ede30     <common>
 0003:00026e38       glad_glUniformMatrix2fv    00000001400ede38     <common>
 0003:00026e40       glad_glStartTilingQCOM     00000001400ede40     <common>
 0003:00026e48       GLAD_GL_NV_blend_equation_advanced 00000001400ede48     <common>
 0003:00026e4c       GLAD_GL_ARB_transpose_matrix 00000001400ede4c     <common>
 0003:00026e50       glad_glIsImageHandleResidentNV 00000001400ede50     <common>
 0003:00026e58       GLAD_GL_ARB_transform_feedback_overflow_query 00000001400ede58     <common>
 0003:00026e60       glad_glDrawTransformFeedbackStreamInstanced 00000001400ede60     <common>
 0003:00026e68       glad_glIsTextureHandleResidentNV 00000001400ede68     <common>
 0003:00026e70       glad_glProgramUniformHandleui64vNV 00000001400ede70     <common>
 0003:00026e78       glad_glUniform4iv          00000001400ede78     <common>
 0003:00026e80       GLAD_GL_QCOM_tiled_rendering 00000001400ede80     <common>
 0003:00026e88       glad_glTextureFoveationParametersQCOM 00000001400ede88     <common>
 0003:00026e90       glad_glDrawTransformFeedbackInstanced 00000001400ede90     <common>
 0003:00026e98       glad_glUniform3iv          00000001400ede98     <common>
 0003:00026ea0       glad_glProgramUniformHandleui64NV 00000001400edea0     <common>
 0003:00026ea8       GLAD_GL_ARB_transform_feedback_instanced 00000001400edea8     <common>
 0003:00026eb0       glad_glGetQueryIndexediv   00000001400edeb0     <common>
 0003:00026eb8       glad_glUniform2iv          00000001400edeb8     <common>
 0003:00026ec0       glad_glUniformHandleui64vNV 00000001400edec0     <common>
 0003:00026ec8       GLAD_GL_QCOM_texture_foveated 00000001400edec8     <common>
 0003:00026ed0       glad_glFramebufferFetchBarrierQCOM 00000001400eded0     <common>
 0003:00026ed8       glad_glEndQueryIndexed     00000001400eded8     <common>
 0003:00026ee0       glad_glUniform1iv          00000001400edee0     <common>
 0003:00026ee8       GLAD_GL_QCOM_shader_framebuffer_fetch_noncoherent 00000001400edee8     <common>
 0003:00026eec       GLAD_GL_QCOM_perfmon_global_mode 00000001400edeec     <common>
 0003:00026ef0       glad_glUniformHandleui64NV 00000001400edef0     <common>
 0003:00026ef8       glad_glFramebufferFoveationParametersQCOM 00000001400edef8     <common>
 0003:00026f00       glad_glBeginQueryIndexed   00000001400edf00     <common>
 0003:00026f08       glad_glUniform4fv          00000001400edf08     <common>
 0003:00026f10       glad_glMakeImageHandleNonResidentNV 00000001400edf10     <common>
 0003:00026f18       glad_glMakeImageHandleResidentNV 00000001400edf18     <common>
 0003:00026f20       glad_glDrawTransformFeedbackStream 00000001400edf20     <common>
 0003:00026f28       glad_glUniform3fv          00000001400edf28     <common>
 0003:00026f30       glad_glGetImageHandleNV    00000001400edf30     <common>
 0003:00026f38       glad_glFramebufferFoveationConfigQCOM 00000001400edf38     <common>
 0003:00026f40       GLAD_GL_ARB_transform_feedback3 00000001400edf40     <common>
 0003:00026f48       glad_glDrawTransformFeedback 00000001400edf48     <common>
 0003:00026f50       glad_glUniform2fv          00000001400edf50     <common>
 0003:00026f58       GLAD_GL_ARB_transform_feedback2 00000001400edf58     <common>
 0003:00026f5c       GLAD_GL_ARB_timer_query    00000001400edf5c     <common>
 0003:00026f60       glad_glTextureView         00000001400edf60     <common>
 0003:00026f68       glad_glMakeTextureHandleNonResidentNV 00000001400edf68     <common>
 0003:00026f70       glad_glUniform1fv          00000001400edf70     <common>
 0003:00026f78       GLAD_GL_QCOM_framebuffer_foveated 00000001400edf78     <common>
 0003:00026f80       glad_glExtGetProgramBinarySourceQCOM 00000001400edf80     <common>
 0003:00026f88       glad_glMakeTextureHandleResidentNV 00000001400edf88     <common>
 0003:00026f90       glad_glGetTextureSamplerHandleNV 00000001400edf90     <common>
 0003:00026f98       glad_glUniform4i           00000001400edf98     <common>
 0003:00026fa0       glad_glExtIsProgramBinaryQCOM 00000001400edfa0     <common>
 0003:00026fa8       glad_glGetTextureHandleNV  00000001400edfa8     <common>
 0003:00026fb0       GLAD_GL_ARB_texture_view   00000001400edfb0     <common>
 0003:00026fb4       GLAD_GL_NV_bindless_texture 00000001400edfb4     <common>
 0003:00026fb8       glad_glExtGetProgramsQCOM  00000001400edfb8     <common>
 0003:00026fc0       glad_glMultiDrawElementsIndirectBindlessCountNV 00000001400edfc0     <common>
 0003:00026fc8       GLAD_GL_ARB_texture_swizzle 00000001400edfc8     <common>
 0003:00026fd0       glad_glTexStorage3DMultisample 00000001400edfd0     <common>
 0003:00026fd8       glad_glUniform3i           00000001400edfd8     <common>
 0003:00026fe0       glad_glExtGetShadersQCOM   00000001400edfe0     <common>
 0003:00026fe8       glad_glUniform2i           00000001400edfe8     <common>
 0003:00026ff0       GLAD_GL_QCOM_extended_get2 00000001400edff0     <common>
 0003:00026ff8       glad_glExtGetBufferPointervQCOM 00000001400edff8     <common>
 0003:00027000       glad_glMultiDrawArraysIndirectBindlessCountNV 00000001400ee000     <common>
 0003:00027008       glad_glTexStorage2DMultisample 00000001400ee008     <common>
 0003:00027010       glad_glUniform1i           00000001400ee010     <common>
 0003:00027018       glad_glExtGetTexSubImageQCOM 00000001400ee018     <common>
 0003:00027020       glad_glUniform4f           00000001400ee020     <common>
 0003:00027028       GLAD_GL_NV_bindless_multi_draw_indirect_count 00000001400ee028     <common>
 0003:0002702c       GLAD_GL_ARB_texture_storage_multisample 00000001400ee02c     <common>
 0003:00027030       glad_glMultiDrawElementsIndirectBindlessNV 00000001400ee030     <common>
 0003:00027038       glad_glTexStorage1D        00000001400ee038     <common>
 0003:00027040       glad_glUniform3f           00000001400ee040     <common>
 0003:00027048       GLAD_GL_ARB_texture_storage 00000001400ee048     <common>
 0003:0002704c       GLAD_GL_ARB_texture_stencil8 00000001400ee04c     <common>
 0003:00027050       GLAD_GL_ARB_texture_rgb10_a2ui 00000001400ee050     <common>
 0003:00027054       GLAD_GL_ARB_texture_rg     00000001400ee054     <common>
 0003:00027058       glad_glMultiDrawArraysIndirectBindlessNV 00000001400ee058     <common>
 0003:00027060       GLAD_GL_ARB_texture_rectangle 00000001400ee060     <common>
 0003:00027068       glad_glExtTexObjectStateOverrideiQCOM 00000001400ee068     <common>
 0003:00027070       GLAD_GL_ARB_texture_query_lod 00000001400ee070     <common>
 0003:00027074       GLAD_GL_ARB_texture_query_levels 00000001400ee074     <common>
 0003:00027078       glad_glUniform2f           00000001400ee078     <common>
 0003:00027080       GLAD_GL_ARB_texture_non_power_of_two 00000001400ee080     <common>
 0003:00027084       GLAD_GL_ARB_texture_multisample 00000001400ee084     <common>
 0003:00027088       GLAD_GL_ARB_texture_mirrored_repeat 00000001400ee088     <common>
 0003:0002708c       GLAD_GL_ARB_texture_mirror_clamp_to_edge 00000001400ee08c     <common>
 0003:00027090       GLAD_GL_ARB_texture_gather 00000001400ee090     <common>
 0003:00027094       GLAD_GL_ARB_texture_float  00000001400ee094     <common>
 0003:00027098       glad_glExtGetTexLevelParameterivQCOM 00000001400ee098     <common>
 0003:000270a0       GLAD_GL_ARB_texture_filter_minmax 00000001400ee0a0     <common>
 0003:000270a4       GLAD_GL_ARB_texture_filter_anisotropic 00000001400ee0a4     <common>
 0003:000270a8       GLAD_GL_NV_bindless_multi_draw_indirect 00000001400ee0a8     <common>
 0003:000270ac       GLAD_GL_ARB_texture_env_dot3 00000001400ee0ac     <common>
 0003:000270b0       glad_glUniform1f           00000001400ee0b0     <common>
 0003:000270b8       GLAD_GL_ARB_texture_env_crossbar 00000001400ee0b8     <common>
 0003:000270c0       glad_glAlphaToCoverageDitherControlNV 00000001400ee0c0     <common>
 0003:000270c8       GLAD_GL_ARB_texture_env_combine 00000001400ee0c8     <common>
 0003:000270cc       GLAD_GL_ARB_texture_env_add 00000001400ee0cc     <common>
 0003:000270d0       GLAD_GL_ARB_texture_cube_map_array 00000001400ee0d0     <common>
 0003:000270d4       GLAD_GL_ARB_texture_cube_map 00000001400ee0d4     <common>
 0003:000270d8       GLAD_GL_NV_alpha_to_coverage_dither_control 00000001400ee0d8     <common>
 0003:000270dc       GLAD_GL_ARB_texture_compression_rgtc 00000001400ee0dc     <common>
 0003:000270e0       glad_glLGPUInterlockNVX    00000001400ee0e0     <common>
 0003:000270e8       glad_glUseProgram          00000001400ee0e8     <common>
 0003:000270f0       GLAD_GL_ARB_texture_compression_bptc 00000001400ee0f0     <common>
 0003:000270f8       glad_glGetCompressedTexImageARB 00000001400ee0f8     <common>
 0003:00027100       glad_glLGPUCopyImageSubDataNVX 00000001400ee100     <common>
 0003:00027108       glad_glExtGetFramebuffersQCOM 00000001400ee108     <common>
 0003:00027110       glad_glShaderSource        00000001400ee110     <common>
 0003:00027118       glad_glCompressedTexSubImage1DARB 00000001400ee118     <common>
 0003:00027120       glad_glExtGetRenderbuffersQCOM 00000001400ee120     <common>
 0003:00027128       glad_glLinkProgram         00000001400ee128     <common>
 0003:00027130       glad_glIsShader            00000001400ee130     <common>
 0003:00027138       glad_glExtGetBuffersQCOM   00000001400ee138     <common>
 0003:00027140       glad_glIsProgram           00000001400ee140     <common>
 0003:00027148       glad_glCompressedTexSubImage2DARB 00000001400ee148     <common>
 0003:00027150       glad_glGetVertexAttribPointerv 00000001400ee150     <common>
 0003:00027158       glad_glExtGetTexturesQCOM  00000001400ee158     <common>
 0003:00027160       glad_glGetVertexAttribiv   00000001400ee160     <common>
 0003:00027168       GLAD_GL_QCOM_extended_get  00000001400ee168     <common>
 0003:00027170       glad_glDisableDriverControlQCOM 00000001400ee170     <common>
 0003:00027178       glad_glLGPUNamedBufferSubDataNVX 00000001400ee178     <common>
 0003:00027180       glad_glEnableDriverControlQCOM 00000001400ee180     <common>
 0003:00027188       glad_glGetVertexAttribfv   00000001400ee188     <common>
 0003:00027190       glad_glGetDriverControlStringQCOM 00000001400ee190     <common>
 0003:00027198       glad_glCompressedTexSubImage3DARB 00000001400ee198     <common>
 0003:000271a0       glad_glGetVertexAttribdv   00000001400ee1a0     <common>
 0003:000271a8       GLAD_GL_NVX_linked_gpu_multicast 00000001400ee1a8     <common>
 0003:000271ac       GLAD_GL_NVX_gpu_memory_info 00000001400ee1ac     <common>
 0003:000271b0       glad_glEndConditionalRenderNVX 00000001400ee1b0     <common>
 0003:000271b8       glad_glGetDriverControlsQCOM 00000001400ee1b8     <common>
 0003:000271c0       glad_glBeginConditionalRenderNVX 00000001400ee1c0     <common>
 0003:000271c8       glad_glGetUniformiv        00000001400ee1c8     <common>
 0003:000271d0       GLAD_GL_NVX_conditional_render 00000001400ee1d0     <common>
 0003:000271d4       GLAD_GL_NVX_blend_equation_advanced_multi_draw_buffers 00000001400ee1d4     <common>
 0003:000271d8       GLAD_GL_MESA_ycbcr_texture 00000001400ee1d8     <common>
 0003:000271dc       GLAD_GL_QCOM_driver_control 00000001400ee1dc     <common>
 0003:000271e0       glad_glWindowPos4svMESA    00000001400ee1e0     <common>
 0003:000271e8       GLAD_GL_QCOM_binning_control 00000001400ee1e8     <common>
 0003:000271f0       glad_glAlphaFuncQCOM       00000001400ee1f0     <common>
 0003:000271f8       glad_glGetUniformfv        00000001400ee1f8     <common>
 0003:00027200       glad_glWindowPos4sMESA     00000001400ee200     <common>
 0003:00027208       GLAD_GL_QCOM_alpha_test    00000001400ee208     <common>
 0003:00027210       glad_glCompressedTexImage1DARB 00000001400ee210     <common>
 0003:00027218       glad_glFramebufferTextureMultisampleMultiviewOVR 00000001400ee218     <common>
 0003:00027220       glad_glGetUniformLocation  00000001400ee220     <common>
 0003:00027228       glad_glWindowPos4ivMESA    00000001400ee228     <common>
 0003:00027230       glad_glGetShaderSource     00000001400ee230     <common>
 0003:00027238       glad_glWindowPos4iMESA     00000001400ee238     <common>
 0003:00027240       glad_glCompressedTexImage2DARB 00000001400ee240     <common>
 0003:00027248       GLAD_GL_OVR_multiview_multisampled_render_to_texture 00000001400ee248     <common>
 0003:00027250       glad_glGetFloati_vOES      00000001400ee250     <common>
 0003:00027258       glad_glGetShaderInfoLog    00000001400ee258     <common>
 0003:00027260       glad_glWindowPos4fvMESA    00000001400ee260     <common>
 0003:00027268       glad_glWindowPos4fMESA     00000001400ee268     <common>
 0003:00027270       glad_glDepthRangeIndexedfOES 00000001400ee270     <common>
 0003:00027278       glad_glGetShaderiv         00000001400ee278     <common>
 0003:00027280       glad_glDepthRangeArrayfvOES 00000001400ee280     <common>
 0003:00027288       glad_glCompressedTexImage3DARB 00000001400ee288     <common>
 0003:00027290       glad_glWindowPos4dvMESA    00000001400ee290     <common>
 0003:00027298       glad_glGetProgramInfoLog   00000001400ee298     <common>
 0003:000272a0       glad_glWindowPos4dMESA     00000001400ee2a0     <common>
 0003:000272a8       glad_glScissorIndexedvOES  00000001400ee2a8     <common>
 0003:000272b0       glad_glGetProgramiv        00000001400ee2b0     <common>
 0003:000272b8       glad_glScissorIndexedOES   00000001400ee2b8     <common>
 0003:000272c0       glad_glWindowPos3svMESA    00000001400ee2c0     <common>
 0003:000272c8       glad_glWindowPos3sMESA     00000001400ee2c8     <common>
 0003:000272d0       GLAD_GL_ARB_texture_compression 00000001400ee2d0     <common>
 0003:000272d8       glad_glTexBufferRange      00000001400ee2d8     <common>
 0003:000272e0       glad_glGetAttribLocation   00000001400ee2e0     <common>
 0003:000272e8       glad_glScissorArrayvOES    00000001400ee2e8     <common>
 0003:000272f0       glad_glWindowPos3ivMESA    00000001400ee2f0     <common>
 0003:000272f8       glad_glGetAttachedShaders  00000001400ee2f8     <common>
 0003:00027300       glad_glWindowPos3iMESA     00000001400ee300     <common>
 0003:00027308       GLAD_GL_ARB_texture_buffer_range 00000001400ee308     <common>
 0003:00027310       glad_glViewportIndexedfvOES 00000001400ee310     <common>
 0003:00027318       GLAD_GL_ARB_texture_buffer_object_rgb32 00000001400ee318     <common>
 0003:00027320       glad_glTexBufferARB        00000001400ee320     <common>
 0003:00027328       glad_glGetActiveUniform    00000001400ee328     <common>
 0003:00027330       glad_glWindowPos3fvMESA    00000001400ee330     <common>
 0003:00027338       glad_glViewportIndexedfOES 00000001400ee338     <common>
 0003:00027340       GLAD_GL_ARB_texture_buffer_object 00000001400ee340     <common>
 0003:00027348       glad_glWindowPos3fMESA     00000001400ee348     <common>
 0003:00027350       GLAD_GL_ARB_texture_border_clamp 00000001400ee350     <common>
 0003:00027358       glad_glTextureBarrier      00000001400ee358     <common>
 0003:00027360       GLAD_GL_ARB_texture_barrier 00000001400ee360     <common>
 0003:00027368       glad_glPatchParameterfv    00000001400ee368     <common>
 0003:00027370       glad_glWindowPos3dvMESA    00000001400ee370     <common>
 0003:00027378       glad_glViewportArrayvOES   00000001400ee378     <common>
 0003:00027380       glad_glGetActiveAttrib     00000001400ee380     <common>
 0003:00027388       glad_glWindowPos3dMESA     00000001400ee388     <common>
 0003:00027390       glad_glPatchParameteri     00000001400ee390     <common>
 0003:00027398       GLAD_GL_OES_viewport_array 00000001400ee398     <common>
 0003:0002739c       GLAD_GL_OES_vertex_JTYPE_10_10_10_2 00000001400ee39c     <common>
 0003:000273a0       GLAD_GL_ARB_tessellation_shader 00000001400ee3a0     <common>
 0003:000273a4       GLAD_GL_OES_vertex_half_float 00000001400ee3a4     <common>
 0003:000273a8       GLAD_GL_ARB_sync           00000001400ee3a8     <common>
 0003:000273b0       glad_glWindowPos2svMESA    00000001400ee3b0     <common>
 0003:000273b8       GLAD_GL_ARB_stencil_texturing 00000001400ee3b8     <common>
 0003:000273c0       glad_glIsVertexArrayOES    00000001400ee3c0     <common>
 0003:000273c8       GLAD_GL_ARB_spirv_extensions 00000001400ee3c8     <common>
 0003:000273cc       GLAD_GL_ARB_sparse_texture_clamp 00000001400ee3cc     <common>
 0003:000273d0       GLAD_GL_ARB_sparse_texture2 00000001400ee3d0     <common>
 0003:000273d8       glad_glWindowPos2sMESA     00000001400ee3d8     <common>
 0003:000273e0       glad_glTexPageCommitmentARB 00000001400ee3e0     <common>
 0003:000273e8       glad_glGenVertexArraysOES  00000001400ee3e8     <common>
 0003:000273f0       glad_glEnableVertexAttribArray 00000001400ee3f0     <common>
 0003:000273f8       glad_glDeleteVertexArraysOES 00000001400ee3f8     <common>
 0003:00027400       glad_glWindowPos2ivMESA    00000001400ee400     <common>
 0003:00027408       glad_glDisableVertexAttribArray 00000001400ee408     <common>
 0003:00027410       glad_glWindowPos2iMESA     00000001400ee410     <common>
 0003:00027418       glad_glDetachShader        00000001400ee418     <common>
 0003:00027420       glad_glBindVertexArrayOES  00000001400ee420     <common>
 0003:00027428       glad_glWindowPos2fvMESA    00000001400ee428     <common>
 0003:00027430       GLAD_GL_OES_vertex_array_object 00000001400ee430     <common>
 0003:00027438       glad_glTextureViewOES      00000001400ee438     <common>
 0003:00027440       glad_glDeleteShader        00000001400ee440     <common>
 0003:00027448       glad_glWindowPos2fMESA     00000001400ee448     <common>
 0003:00027450       GLAD_GL_ARB_sparse_texture 00000001400ee450     <common>
 0003:00027458       glad_glDeleteProgram       00000001400ee458     <common>
 0003:00027460       glad_glNamedBufferPageCommitmentARB 00000001400ee460     <common>
 0003:00027468       glad_glCreateShader        00000001400ee468     <common>
 0003:00027470       glad_glWindowPos2dvMESA    00000001400ee470     <common>
 0003:00027478       glad_glCreateProgram       00000001400ee478     <common>
 0003:00027480       glad_glWindowPos2dMESA     00000001400ee480     <common>
 0003:00027488       glad_glNamedBufferPageCommitmentEXT 00000001400ee488     <common>
 0003:00027490       glad_glCompileShader       00000001400ee490     <common>
 0003:00027498       GLAD_GL_OES_texture_view   00000001400ee498     <common>
 0003:000274a0       glad_glTexStorage3DMultisampleOES 00000001400ee4a0     <common>
 0003:000274a8       GLAD_GL_MESA_window_pos    00000001400ee4a8     <common>
 0003:000274b0       glad_glBindAttribLocation  00000001400ee4b0     <common>
 0003:000274b8       GLAD_GL_MESA_tile_raster_order 00000001400ee4b8     <common>
 0003:000274bc       GLAD_GL_MESA_shader_integer_functions 00000001400ee4bc     <common>
 0003:000274c0       glad_glResizeBuffersMESA   00000001400ee4c0     <common>
 0003:000274c8       glad_glBufferPageCommitmentARB 00000001400ee4c8     <common>
 0003:000274d0       GLAD_GL_MESA_resize_buffers 00000001400ee4d0     <common>
 0003:000274d4       GLAD_GL_MESA_program_binary_formats 00000001400ee4d4     <common>
 0003:000274d8       GLAD_GL_MESA_pack_invert   00000001400ee4d8     <common>
 0003:000274e0       glad_glAttachShader        00000001400ee4e0     <common>
 0003:000274e8       GLAD_GL_MESAX_texture_stack 00000001400ee4e8     <common>
 0003:000274ec       GLAD_GL_KHR_texture_compression_astc_sliced_3d 00000001400ee4ec     <common>
 0003:000274f0       GLAD_GL_KHR_texture_compression_astc_ldr 00000001400ee4f0     <common>
 0003:000274f4       GLAD_GL_KHR_texture_compression_astc_hdr 00000001400ee4f4     <common>
 0003:000274f8       glad_glGetnUniformuivKHR   00000001400ee4f8     <common>
 0003:00027500       glad_glStencilMaskSeparate 00000001400ee500     <common>
 0003:00027508       GLAD_GL_ARB_sparse_buffer  00000001400ee508     <common>
 0003:0002750c       GLAD_GL_ARB_shadow_ambient 00000001400ee50c     <common>
 0003:00027510       GLAD_GL_OES_texture_storage_multisample_2d_array 00000001400ee510     <common>
 0003:00027514       GLAD_GL_OES_texture_stencil8 00000001400ee514     <common>
 0003:00027518       GLAD_GL_ARB_shadow         00000001400ee518     <common>
 0003:0002751c       GLAD_GL_ARB_shading_language_packing 00000001400ee51c     <common>
 0003:00027520       GLAD_GL_OES_texture_npot   00000001400ee520     <common>
 0003:00027524       GLAD_GL_OES_texture_half_float_linear 00000001400ee524     <common>
 0003:00027528       glad_glGetNamedStringivARB 00000001400ee528     <common>
 0003:00027530       glad_glStencilFuncSeparate 00000001400ee530     <common>
 0003:00027538       GLAD_GL_OES_texture_half_float 00000001400ee538     <common>
 0003:0002753c       GLAD_GL_OES_texture_float_linear 00000001400ee53c     <common>
 0003:00027540       GLAD_GL_OES_texture_float  00000001400ee540     <common>
 0003:00027544       GLAD_GL_OES_texture_cube_map_array 00000001400ee544     <common>
 0003:00027548       glad_glGetnUniformivKHR    00000001400ee548     <common>
 0003:00027550       GLAD_GL_OES_texture_compression_astc 00000001400ee550     <common>
 0003:00027558       glad_glTexBufferRangeOES   00000001400ee558     <common>
 0003:00027560       glad_glGetNamedStringARB   00000001400ee560     <common>
 0003:00027568       glad_glStencilOpSeparate   00000001400ee568     <common>
 0003:00027570       glad_glGetnUniformfvKHR    00000001400ee570     <common>
 0003:00027578       glad_glTexBufferOES        00000001400ee578     <common>
 0003:00027580       glad_glDrawBuffers         00000001400ee580     <common>
 0003:00027588       glad_glIsNamedStringARB    00000001400ee588     <common>
 0003:00027590       glad_glReadnPixelsKHR      00000001400ee590     <common>
 0003:00027598       GLAD_GL_OES_texture_buffer 00000001400ee598     <common>
 0003:000275a0       glad_glGetSamplerParameterIuivOES 00000001400ee5a0     <common>
 0003:000275a8       glad_glBlendEquationSeparate 00000001400ee5a8     <common>
 0003:000275b0       glad_glCompileShaderIncludeARB 00000001400ee5b0     <common>
 0003:000275b8       GLAD_GL_VERSION_2_0        00000001400ee5b8     <common>
 0003:000275c0       glad_glGetBufferPointerv   00000001400ee5c0     <common>
 0003:000275c8       glad_glGetSamplerParameterIivOES 00000001400ee5c8     <common>
 0003:000275d0       glad_glDeleteNamedStringARB 00000001400ee5d0     <common>
 0003:000275d8       glad_glGetGraphicsResetStatusKHR 00000001400ee5d8     <common>
 0003:000275e0       glad_glGetBufferParameteriv 00000001400ee5e0     <common>
 0003:000275e8       glad_glSamplerParameterIuivOES 00000001400ee5e8     <common>
 0003:000275f0       glad_glNamedStringARB      00000001400ee5f0     <common>
 0003:000275f8       glad_glGetnUniformuiv      00000001400ee5f8     <common>
 0003:00027600       glad_glUnmapBuffer         00000001400ee600     <common>
 0003:00027608       glad_glSamplerParameterIivOES 00000001400ee608     <common>
 0003:00027610       glad_glMapBuffer           00000001400ee610     <common>
 0003:00027618       glad_glGetnUniformiv       00000001400ee618     <common>
 0003:00027620       GLAD_GL_ARB_shading_language_include 00000001400ee620     <common>
 0003:00027624       GLAD_GL_ARB_shading_language_420pack 00000001400ee624     <common>
 0003:00027628       GLAD_GL_ARB_shading_language_100 00000001400ee628     <common>
 0003:0002762c       GLAD_GL_ARB_shader_viewport_layer_array 00000001400ee62c     <common>
 0003:00027630       glad_glGetTexParameterIuivOES 00000001400ee630     <common>
 0003:00027638       GLAD_GL_ARB_shader_texture_lod 00000001400ee638     <common>
 0003:00027640       glad_glGetBufferSubData    00000001400ee640     <common>
 0003:00027648       GLAD_GL_ARB_shader_texture_image_samples 00000001400ee648     <common>
 0003:00027650       glad_glGetProgramStageiv   00000001400ee650     <common>
 0003:00027658       glad_glGetnUniformfv       00000001400ee658     <common>
 0003:00027660       glad_glGetTexParameterIivOES 00000001400ee660     <common>
 0003:00027668       glad_glBufferSubData       00000001400ee668     <common>
 0003:00027670       glad_glGetUniformSubroutineuiv 00000001400ee670     <common>
 0003:00027678       glad_glTexParameterIuivOES 00000001400ee678     <common>
 0003:00027680       glad_glReadnPixels         00000001400ee680     <common>
 0003:00027688       glad_glUniformSubroutinesuiv 00000001400ee688     <common>
 0003:00027690       glad_glBufferData          00000001400ee690     <common>
 0003:00027698       glad_glTexParameterIivOES  00000001400ee698     <common>
 0003:000276a0       glad_glGetActiveSubroutineName 00000001400ee6a0     <common>
 0003:000276a8       glad_glIsBuffer            00000001400ee6a8     <common>
 0003:000276b0       GLAD_GL_OES_texture_border_clamp 00000001400ee6b0     <common>
 0003:000276b8       glad_glFramebufferTexture3DOES 00000001400ee6b8     <common>
 0003:000276c0       glad_glGetGraphicsResetStatus 00000001400ee6c0     <common>
 0003:000276c8       glad_glGenBuffers          00000001400ee6c8     <common>
 0003:000276d0       GLAD_GL_KHR_robustness     00000001400ee6d0     <common>
 0003:000276d4       GLAD_GL_KHR_robust_buffer_access_behavior 00000001400ee6d4     <common>
 0003:000276d8       glad_glMaxShaderCompilerThreadsKHR 00000001400ee6d8     <common>
 0003:000276e0       glad_glDeleteBuffers       00000001400ee6e0     <common>
 0003:000276e8       GLAD_GL_KHR_parallel_shader_compile 00000001400ee6e8     <common>
 0003:000276f0       glad_glGetActiveSubroutineUniformName 00000001400ee6f0     <common>
 0003:000276f8       GLAD_GL_KHR_no_error       00000001400ee6f8     <common>
 0003:00027700       glad_glGetPointervKHR      00000001400ee700     <common>
 0003:00027708       glad_glCompressedTexSubImage3DOES 00000001400ee708     <common>
 0003:00027710       glad_glBindBuffer          00000001400ee710     <common>
 0003:00027718       glad_glGetObjectPtrLabelKHR 00000001400ee718     <common>
 0003:00027720       glad_glGetQueryObjectuiv   00000001400ee720     <common>
 0003:00027728       glad_glGetActiveSubroutineUniformiv 00000001400ee728     <common>
 0003:00027730       glad_glGetQueryObjectiv    00000001400ee730     <common>
 0003:00027738       glad_glObjectPtrLabelKHR   00000001400ee738     <common>
 0003:00027740       glad_glGetObjectLabelKHR   00000001400ee740     <common>
 0003:00027748       glad_glGetSubroutineIndex  00000001400ee748     <common>
 0003:00027750       glad_glGetQueryiv          00000001400ee750     <common>
 0003:00027758       glad_glCompressedTexImage3DOES 00000001400ee758     <common>
 0003:00027760       glad_glEndQuery            00000001400ee760     <common>
 0003:00027768       glad_glGetSubroutineUniformLocation 00000001400ee768     <common>
 0003:00027770       glad_glBeginQuery          00000001400ee770     <common>
 0003:00027778       glad_glObjectLabelKHR      00000001400ee778     <common>
 0003:00027780       GLAD_GL_ARB_shader_subroutine 00000001400ee780     <common>
 0003:00027788       glad_glShaderStorageBlockBinding 00000001400ee788     <common>
 0003:00027790       glad_glIsQuery             00000001400ee790     <common>
 0003:00027798       glad_glPopDebugGroupKHR    00000001400ee798     <common>
 0003:000277a0       glad_glDeleteQueries       00000001400ee7a0     <common>
 0003:000277a8       glad_glCopyTexSubImage3DOES 00000001400ee7a8     <common>
 0003:000277b0       GLAD_GL_ARB_shader_storage_buffer_object 00000001400ee7b0     <common>
 0003:000277b8       glad_glPushDebugGroupKHR   00000001400ee7b8     <common>
 0003:000277c0       GLAD_GL_ARB_shader_stencil_export 00000001400ee7c0     <common>
 0003:000277c4       GLAD_GL_ARB_shader_precision 00000001400ee7c4     <common>
 0003:000277c8       glad_glGenQueries          00000001400ee7c8     <common>
 0003:000277d0       glad_glGetShaderSourceARB  00000001400ee7d0     <common>
 0003:000277d8       GLAD_GL_VERSION_1_5        00000001400ee7d8     <common>
 0003:000277e0       glad_glBlendEquation       00000001400ee7e0     <common>
 0003:000277e8       glad_glGetDebugMessageLogKHR 00000001400ee7e8     <common>
 0003:000277f0       glad_glGetUniformivARB     00000001400ee7f0     <common>
 0003:000277f8       glad_glBlendColor          00000001400ee7f8     <common>
 0003:00027800       glad_glTexSubImage3DOES    00000001400ee800     <common>
 0003:00027808       glad_glGetUniformfvARB     00000001400ee808     <common>
 0003:00027810       glad_glWindowPos3sv        00000001400ee810     <common>
 0003:00027818       glad_glWindowPos3s         00000001400ee818     <common>
 0003:00027820       glad_glDebugMessageCallbackKHR 00000001400ee820     <common>
 0003:00027828       glad_glGetActiveUniformARB 00000001400ee828     <common>
 0003:00027830       glad_glDebugMessageInsertKHR 00000001400ee830     <common>
 0003:00027838       glad_glWindowPos3iv        00000001400ee838     <common>
 0003:00027840       glad_glWindowPos3i         00000001400ee840     <common>
 0003:00027848       glad_glTexImage3DOES       00000001400ee848     <common>
 0003:00027850       glad_glGetUniformLocationARB 00000001400ee850     <common>
 0003:00027858       glad_glWindowPos3fv        00000001400ee858     <common>
 0003:00027860       glad_glDebugMessageControlKHR 00000001400ee860     <common>
 0003:00027868       glad_glGetAttachedObjectsARB 00000001400ee868     <common>
 0003:00027870       glad_glWindowPos3f         00000001400ee870     <common>
 0003:00027878       glad_glWindowPos3dv        00000001400ee878     <common>
 0003:00027880       glad_glGetInfoLogARB       00000001400ee880     <common>
 0003:00027888       glad_glGetObjectPtrLabel   00000001400ee888     <common>
 0003:00027890       GLAD_GL_OES_texture_3D     00000001400ee890     <common>
 0003:00027898       glad_glPatchParameteriOES  00000001400ee898     <common>
 0003:000278a0       glad_glWindowPos3d         00000001400ee8a0     <common>
 0003:000278a8       GLAD_GL_OES_tessellation_shader 00000001400ee8a8     <common>
 0003:000278ac       GLAD_GL_OES_tessellation_point_size 00000001400ee8ac     <common>
 0003:000278b0       glad_glGetObjectParameterivARB 00000001400ee8b0     <common>
 0003:000278b8       glad_glObjectPtrLabel      00000001400ee8b8     <common>
 0003:000278c0       GLAD_GL_OES_surfaceless_context 00000001400ee8c0     <common>
 0003:000278c8       glad_glWindowPos2sv        00000001400ee8c8     <common>
 0003:000278d0       GLAD_GL_OES_stencil4       00000001400ee8d0     <common>
 0003:000278d4       GLAD_GL_OES_stencil1       00000001400ee8d4     <common>
 0003:000278d8       GLAD_GL_OES_standard_derivatives 00000001400ee8d8     <common>
 0003:000278dc       GLAD_GL_OES_shader_multisample_interpolation 00000001400ee8dc     <common>
 0003:000278e0       glad_glWindowPos2s         00000001400ee8e0     <common>
 0003:000278e8       GLAD_GL_OES_shader_io_blocks 00000001400ee8e8     <common>
 0003:000278ec       GLAD_GL_OES_shader_image_atomic 00000001400ee8ec     <common>
 0003:000278f0       glad_glGetObjectParameterfvARB 00000001400ee8f0     <common>
 0003:000278f8       GLAD_GL_OES_sample_variables 00000001400ee8f8     <common>
 0003:00027900       glad_glMinSampleShadingOES 00000001400ee900     <common>
 0003:00027908       glad_glGetObjectLabel      00000001400ee908     <common>
 0003:00027910       glad_glWindowPos2iv        00000001400ee910     <common>
 0003:00027918       GLAD_GL_OES_sample_shading 00000001400ee918     <common>
 0003:0002791c       GLAD_GL_OES_rgb8_rgba8     00000001400ee91c     <common>
 0003:00027920       GLAD_GL_OES_required_internalformat 00000001400ee920     <common>
 0003:00027928       glad_glWindowPos2i         00000001400ee928     <common>
 0003:00027930       glad_glPrimitiveBoundingBoxOES 00000001400ee930     <common>
 0003:00027938       glad_glUniformMatrix4fvARB 00000001400ee938     <common>
 0003:00027940       glad_glObjectLabel         00000001400ee940     <common>
 0003:00027948       glad_glWindowPos2fv        00000001400ee948     <common>
 0003:00027950       glad_glWindowPos2f         00000001400ee950     <common>
 0003:00027958       glad_glUniformMatrix3fvARB 00000001400ee958     <common>
 0003:00027960       glad_glPopDebugGroup       00000001400ee960     <common>
 0003:00027968       glad_glWindowPos2dv        00000001400ee968     <common>
 0003:00027970       glad_glPushDebugGroup      00000001400ee970     <common>
 0003:00027978       GLAD_GL_OES_primitive_bounding_box 00000001400ee978     <common>
 0003:0002797c       GLAD_GL_OES_packed_depth_stencil 00000001400ee97c     <common>
 0003:00027980       glad_glWindowPos2d         00000001400ee980     <common>
 0003:00027988       glad_glUniformMatrix2fvARB 00000001400ee988     <common>
 0003:00027990       glad_glGetBufferPointervOES 00000001400ee990     <common>
 0003:00027998       glad_glSecondaryColorPointer 00000001400ee998     <common>
 0003:000279a0       glad_glUnmapBufferOES      00000001400ee9a0     <common>
 0003:000279a8       glad_glGetDebugMessageLog  00000001400ee9a8     <common>
 0003:000279b0       glad_glUniform4ivARB       00000001400ee9b0     <common>
 0003:000279b8       glad_glMapBufferOES        00000001400ee9b8     <common>
 0003:000279c0       glad_glSecondaryColor3usv  00000001400ee9c0     <common>
 0003:000279c8       GLAD_GL_OES_mapbuffer      00000001400ee9c8     <common>
 0003:000279d0       glad_glUniform3ivARB       00000001400ee9d0     <common>
 0003:000279d8       GLAD_GL_OES_gpu_shader5    00000001400ee9d8     <common>
 0003:000279e0       glad_glSecondaryColor3us   00000001400ee9e0     <common>
 0003:000279e8       glad_glProgramBinaryOES    00000001400ee9e8     <common>
 0003:000279f0       glad_glDebugMessageCallback 00000001400ee9f0     <common>
 0003:000279f8       glad_glUniform2ivARB       00000001400ee9f8     <common>
 0003:00027a00       glad_glSecondaryColor3uiv  00000001400eea00     <common>
 0003:00027a08       glad_glGetProgramBinaryOES 00000001400eea08     <common>
 0003:00027a10       glad_glSecondaryColor3ui   00000001400eea10     <common>
 0003:00027a18       glad_glDebugMessageInsert  00000001400eea18     <common>
 0003:00027a20       glad_glUniform1ivARB       00000001400eea20     <common>
 0003:00027a28       glad_glSecondaryColor3ubv  00000001400eea28     <common>
 0003:00027a30       glad_glUniform4fvARB       00000001400eea30     <common>
 0003:00027a38       GLAD_GL_OES_get_program_binary 00000001400eea38     <common>
 0003:00027a40       glad_glSecondaryColor3ub   00000001400eea40     <common>
 0003:00027a48       glad_glFramebufferTextureOES 00000001400eea48     <common>
 0003:00027a50       glad_glDebugMessageControl 00000001400eea50     <common>
 0003:00027a58       glad_glUniform3fvARB       00000001400eea58     <common>
 0003:00027a60       glad_glSecondaryColor3sv   00000001400eea60     <common>
 0003:00027a68       GLAD_GL_OES_geometry_shader 00000001400eea68     <common>
 0003:00027a6c       GLAD_GL_OES_geometry_point_size 00000001400eea6c     <common>
 0003:00027a70       glad_glSecondaryColor3s    00000001400eea70     <common>
 0003:00027a78       GLAD_GL_OES_fragment_precision_high 00000001400eea78     <common>
 0003:00027a7c       GLAD_GL_OES_fbo_render_mipmap 00000001400eea7c     <common>
 0003:00027a80       GLAD_GL_OES_element_index_uint 00000001400eea80     <common>
 0003:00027a88       glad_glUniform2fvARB       00000001400eea88     <common>
 0003:00027a90       glad_glDrawElementsInstancedBaseVertexOES 00000001400eea90     <common>
 0003:00027a98       GLAD_GL_KHR_debug          00000001400eea98     <common>
 0003:00027a9c       GLAD_GL_KHR_context_flush_control 00000001400eea9c     <common>
 0003:00027aa0       GLAD_GL_KHR_blend_equation_advanced_coherent 00000001400eeaa0     <common>
 0003:00027aa8       glad_glSecondaryColor3iv   00000001400eeaa8     <common>
 0003:00027ab0       glad_glBlendBarrierKHR     00000001400eeab0     <common>
 0003:00027ab8       GLAD_GL_KHR_blend_equation_advanced 00000001400eeab8     <common>
 0003:00027ac0       glad_glUniform1fvARB       00000001400eeac0     <common>
 0003:00027ac8       glad_glGetPerfQueryInfoINTEL 00000001400eeac8     <common>
 0003:00027ad0       glad_glSecondaryColor3i    00000001400eead0     <common>
 0003:00027ad8       glad_glDrawRangeElementsBaseVertexOES 00000001400eead8     <common>
 0003:00027ae0       glad_glUniform4iARB        00000001400eeae0     <common>
 0003:00027ae8       glad_glSecondaryColor3fv   00000001400eeae8     <common>
 0003:00027af0       glad_glSecondaryColor3f    00000001400eeaf0     <common>
 0003:00027af8       glad_glGetPerfQueryIdByNameINTEL 00000001400eeaf8     <common>
 0003:00027b00       glad_glUniform3iARB        00000001400eeb00     <common>
 0003:00027b08       glad_glSecondaryColor3dv   00000001400eeb08     <common>
 0003:00027b10       glad_glDrawElementsBaseVertexOES 00000001400eeb10     <common>
 0003:00027b18       glad_glGetPerfQueryDataINTEL 00000001400eeb18     <common>
 0003:00027b20       glad_glSecondaryColor3d    00000001400eeb20     <common>
 0003:00027b28       glad_glUniform2iARB        00000001400eeb28     <common>
 0003:00027b30       glad_glSecondaryColor3bv   00000001400eeb30     <common>
 0003:00027b38       GLAD_GL_OES_draw_elements_base_vertex 00000001400eeb38     <common>
 0003:00027b40       glad_glGetPerfCounterInfoINTEL 00000001400eeb40     <common>
 0003:00027b48       glad_glIsEnablediOES       00000001400eeb48     <common>
 0003:00027b50       glad_glSecondaryColor3b    00000001400eeb50     <common>
 0003:00027b58       glad_glUniform1iARB        00000001400eeb58     <common>
 0003:00027b60       glad_glColorMaskiOES       00000001400eeb60     <common>
 0003:00027b68       glad_glUniform4fARB        00000001400eeb68     <common>
 0003:00027b70       glad_glFogCoordPointer     00000001400eeb70     <common>
 0003:00027b78       glad_glBlendFuncSeparateiOES 00000001400eeb78     <common>
 0003:00027b80       glad_glFogCoorddv          00000001400eeb80     <common>
 0003:00027b88       glad_glUniform3fARB        00000001400eeb88     <common>
 0003:00027b90       glad_glFogCoordd           00000001400eeb90     <common>
 0003:00027b98       glad_glGetNextPerfQueryIdINTEL 00000001400eeb98     <common>
 0003:00027ba0       glad_glFogCoordfv          00000001400eeba0     <common>
 0003:00027ba8       glad_glGetFirstPerfQueryIdINTEL 00000001400eeba8     <common>
 0003:00027bb0       glad_glFogCoordf           00000001400eebb0     <common>
 0003:00027bb8       glad_glBlendFunciOES       00000001400eebb8     <common>
 0003:00027bc0       glad_glUniform2fARB        00000001400eebc0     <common>
 0003:00027bc8       glad_glEndPerfQueryINTEL   00000001400eebc8     <common>
 0003:00027bd0       glad_glPointParameteriv    00000001400eebd0     <common>
 0003:00027bd8       glad_glBlendEquationSeparateiOES 00000001400eebd8     <common>
 0003:00027be0       glad_glDeletePerfQueryINTEL 00000001400eebe0     <common>
 0003:00027be8       glad_glUniform1fARB        00000001400eebe8     <common>
 0003:00027bf0       glad_glPointParameteri     00000001400eebf0     <common>
 0003:00027bf8       glad_glCreatePerfQueryINTEL 00000001400eebf8     <common>
 0003:00027c00       glad_glValidateProgramARB  00000001400eec00     <common>
 0003:00027c08       glad_glBlendEquationiOES   00000001400eec08     <common>
 0003:00027c10       glad_glPointParameterfv    00000001400eec10     <common>
 0003:00027c18       glad_glBeginPerfQueryINTEL 00000001400eec18     <common>
 0003:00027c20       glad_glUseProgramObjectARB 00000001400eec20     <common>
 0003:00027c28       glad_glPointParameterf     00000001400eec28     <common>
 0003:00027c30       glad_glDisableiOES         00000001400eec30     <common>
 0003:00027c38       GLAD_GL_INTEL_performance_query 00000001400eec38     <common>
 0003:00027c40       glad_glTexCoordPointervINTEL 00000001400eec40     <common>
 0003:00027c48       glad_glLinkProgramARB      00000001400eec48     <common>
 0003:00027c50       glad_glAttachObjectARB     00000001400eec50     <common>
 0003:00027c58       glad_glEnableiOES          00000001400eec58     <common>
 0003:00027c60       glad_glMultiDrawElements   00000001400eec60     <common>
 0003:00027c68       glad_glColorPointervINTEL  00000001400eec68     <common>
 0003:00027c70       glad_glCreateProgramObjectARB 00000001400eec70     <common>
 0003:00027c78       GLAD_GL_OES_draw_buffers_indexed 00000001400eec78     <common>
 0003:00027c7c       GLAD_GL_OES_depth_texture  00000001400eec7c     <common>
 0003:00027c80       glad_glCompileShaderARB    00000001400eec80     <common>
 0003:00027c88       GLAD_GL_OES_depth32        00000001400eec88     <common>
 0003:00027c8c       GLAD_GL_OES_depth24        00000001400eec8c     <common>
 0003:00027c90       glad_glCopyImageSubDataOES 00000001400eec90     <common>
 0003:00027c98       glad_glNormalPointervINTEL 00000001400eec98     <common>
 0003:00027ca0       glad_glMultiDrawArrays     00000001400eeca0     <common>
 0003:00027ca8       glad_glShaderSourceARB     00000001400eeca8     <common>
 0003:00027cb0       glad_glVertexPointervINTEL 00000001400eecb0     <common>
 0003:00027cb8       glad_glBlendFuncSeparate   00000001400eecb8     <common>
 0003:00027cc0       glad_glCreateShaderObjectARB 00000001400eecc0     <common>
 0003:00027cc8       GLAD_GL_INTEL_parallel_arrays 00000001400eecc8     <common>
 0003:00027cd0       glad_glDetachObjectARB     00000001400eecd0     <common>
 0003:00027cd8       glad_glMapTexture2DINTEL   00000001400eecd8     <common>
 0003:00027ce0       glad_glGetHandleARB        00000001400eece0     <common>
 0003:00027ce8       GLAD_GL_VERSION_1_4        00000001400eece8     <common>
 0003:00027cf0       glad_glMultTransposeMatrixd 00000001400eecf0     <common>
 0003:00027cf8       glad_glDeleteObjectARB     00000001400eecf8     <common>
 0003:00027d00       glad_glMultTransposeMatrixf 00000001400eed00     <common>
 0003:00027d08       glad_glUnmapTexture2DINTEL 00000001400eed08     <common>
 0003:00027d10       GLAD_GL_ARB_shader_objects 00000001400eed10     <common>
 0003:00027d18       glad_glLoadTransposeMatrixd 00000001400eed18     <common>
 0003:00027d20       GLAD_GL_ARB_shader_image_size 00000001400eed20     <common>
 0003:00027d24       GLAD_GL_OES_copy_image     00000001400eed24     <common>
 0003:00027d28       glad_glMemoryBarrier       00000001400eed28     <common>
 0003:00027d30       GLAD_GL_OES_compressed_ETC1_RGB8_texture 00000001400eed30     <common>
 0003:00027d34       GLAD_GL_OES_compressed_ETC1_RGB8_sub_texture 00000001400eed34     <common>
 0003:00027d38       glad_glSyncTextureINTEL    00000001400eed38     <common>
 0003:00027d40       GLAD_GL_OES_EGL_image_external_essl3 00000001400eed40     <common>
 0003:00027d48       glad_glLoadTransposeMatrixf 00000001400eed48     <common>
 0003:00027d50       GLAD_GL_OES_EGL_image_external 00000001400eed50     <common>
 0003:00027d58       glad_glBindImageTexture    00000001400eed58     <common>
 0003:00027d60       glad_glEGLImageTargetRenderbufferStorageOES 00000001400eed60     <common>
 0003:00027d68       GLAD_GL_INTEL_map_texture  00000001400eed68     <common>
 0003:00027d70       glad_glApplyFramebufferAttachmentCMAAINTEL 00000001400eed70     <common>
 0003:00027d78       glad_glMultiTexCoord4sv    00000001400eed78     <common>
 0003:00027d80       GLAD_GL_INTEL_framebuffer_CMAA 00000001400eed80     <common>
 0003:00027d84       GLAD_GL_INTEL_fragment_shader_ordering 00000001400eed84     <common>
 0003:00027d88       glad_glEGLImageTargetTexture2DOES 00000001400eed88     <common>
 0003:00027d90       GLAD_GL_INTEL_conservative_rasterization 00000001400eed90     <common>
 0003:00027d94       GLAD_GL_INGR_interlace_read 00000001400eed94     <common>
 0003:00027d98       glad_glMultiTexCoord4s     00000001400eed98     <common>
 0003:00027da0       GLAD_GL_INGR_color_clamp   00000001400eeda0     <common>
 0003:00027da8       glad_glBlendFuncSeparateINGR 00000001400eeda8     <common>
 0003:00027db0       GLAD_GL_OES_EGL_image      00000001400eedb0     <common>
 0003:00027db8       glad_glIsEnablediNV        00000001400eedb8     <common>
 0003:00027dc0       GLAD_GL_ARB_shader_image_load_store 00000001400eedc0     <common>
 0003:00027dc4       GLAD_GL_ARB_shader_group_vote 00000001400eedc4     <common>
 0003:00027dc8       GLAD_GL_ARB_shader_draw_parameters 00000001400eedc8     <common>
 0003:00027dcc       GLAD_GL_ARB_shader_clock   00000001400eedcc     <common>
 0003:00027dd0       glad_glDisableiNV          00000001400eedd0     <common>
 0003:00027dd8       GLAD_GL_ARB_shader_bit_encoding 00000001400eedd8     <common>
 0003:00027ddc       GLAD_GL_ARB_shader_ballot  00000001400eeddc     <common>
 0003:00027de0       glad_glMultiTexCoord4iv    00000001400eede0     <common>
 0003:00027de8       GLAD_GL_INGR_blend_func_separate 00000001400eede8     <common>
 0003:00027df0       glad_glGetActiveAtomicCounterBufferiv 00000001400eedf0     <common>
 0003:00027df8       glad_glVertexPointerListIBM 00000001400eedf8     <common>
 0003:00027e00       glad_glEnableiNV           00000001400eee00     <common>
 0003:00027e08       glad_glMultiTexCoord4i     00000001400eee08     <common>
 0003:00027e10       glad_glGetFloati_vNV       00000001400eee10     <common>
 0003:00027e18       GLAD_GL_ARB_shader_atomic_counters 00000001400eee18     <common>
 0003:00027e1c       GLAD_GL_ARB_shader_atomic_counter_ops 00000001400eee1c     <common>
 0003:00027e20       glad_glGetProgramPipelineInfoLog 00000001400eee20     <common>
 0003:00027e28       glad_glTexCoordPointerListIBM 00000001400eee28     <common>
 0003:00027e30       glad_glMultiTexCoord4fv    00000001400eee30     <common>
 0003:00027e38       glad_glDepthRangeIndexedfNV 00000001400eee38     <common>
 0003:00027e40       glad_glValidateProgramPipeline 00000001400eee40     <common>
 0003:00027e48       glad_glMultiTexCoord4f     00000001400eee48     <common>
 0003:00027e50       glad_glNormalPointerListIBM 00000001400eee50     <common>
 0003:00027e58       glad_glDepthRangeArrayfvNV 00000001400eee58     <common>
 0003:00027e60       glad_glProgramUniformMatrix4x3dv 00000001400eee60     <common>
 0003:00027e68       glad_glIndexPointerListIBM 00000001400eee68     <common>
 0003:00027e70       glad_glScissorIndexedvNV   00000001400eee70     <common>
 0003:00027e78       glad_glMultiTexCoord4dv    00000001400eee78     <common>
 0003:00027e80       glad_glProgramUniformMatrix3x4dv 00000001400eee80     <common>
 0003:00027e88       glad_glScissorIndexedNV    00000001400eee88     <common>
 0003:00027e90       glad_glMultiTexCoord4d     00000001400eee90     <common>
 0003:00027e98       glad_glFogCoordPointerListIBM 00000001400eee98     <common>
 0003:00027ea0       glad_glProgramUniformMatrix4x2dv 00000001400eeea0     <common>
 0003:00027ea8       glad_glScissorArrayvNV     00000001400eeea8     <common>
 0003:00027eb0       glad_glMultiTexCoord3sv    00000001400eeeb0     <common>
 0003:00027eb8       glad_glEdgeFlagPointerListIBM 00000001400eeeb8     <common>
 0003:00027ec0       glad_glMultiTexCoord3s     00000001400eeec0     <common>
 0003:00027ec8       glad_glViewportIndexedfvNV 00000001400eeec8     <common>
 0003:00027ed0       glad_glSecondaryColorPointerListIBM 00000001400eeed0     <common>
 0003:00027ed8       glad_glProgramUniformMatrix2x4dv 00000001400eeed8     <common>
 0003:00027ee0       glad_glViewportIndexedfNV  00000001400eeee0     <common>
 0003:00027ee8       glad_glMultiTexCoord3iv    00000001400eeee8     <common>
 0003:00027ef0       glad_glColorPointerListIBM 00000001400eeef0     <common>
 0003:00027ef8       glad_glProgramUniformMatrix3x2dv 00000001400eeef8     <common>
 0003:00027f00       glad_glMultiTexCoord3i     00000001400eef00     <common>
 0003:00027f08       glad_glViewportArrayvNV    00000001400eef08     <common>
 0003:00027f10       glad_glMultiTexCoord3fv    00000001400eef10     <common>
 0003:00027f18       GLAD_GL_NV_viewport_array  00000001400eef18     <common>
 0003:00027f1c       GLAD_GL_IBM_vertex_array_lists 00000001400eef1c     <common>
 0003:00027f20       glad_glProgramUniformMatrix2x3dv 00000001400eef20     <common>
 0003:00027f28       GLAD_GL_IBM_texture_mirrored_repeat 00000001400eef28     <common>
 0003:00027f2c       GLAD_GL_NV_texture_npot_2D_mipmap 00000001400eef2c     <common>
 0003:00027f30       glad_glFlushStaticDataIBM  00000001400eef30     <common>
 0003:00027f38       GLAD_GL_NV_texture_compression_s3tc_update 00000001400eef38     <common>
 0003:00027f3c       GLAD_GL_NV_texture_border_clamp 00000001400eef3c     <common>
 0003:00027f40       GLAD_GL_NV_shadow_samplers_cube 00000001400eef40     <common>
 0003:00027f48       glad_glMultiTexCoord3f     00000001400eef48     <common>
 0003:00027f50       GLAD_GL_NV_shadow_samplers_array 00000001400eef50     <common>
 0003:00027f54       GLAD_GL_NV_shader_noperspective_interpolation 00000001400eef54     <common>
 0003:00027f58       GLAD_GL_IBM_static_data    00000001400eef58     <common>
 0003:00027f5c       GLAD_GL_NV_sRGB_formats    00000001400eef5c     <common>
 0003:00027f60       GLAD_GL_IBM_rasterpos_clip 00000001400eef60     <common>
 0003:00027f64       GLAD_GL_NV_read_stencil    00000001400eef64     <common>
 0003:00027f68       glad_glMultiModeDrawElementsIBM 00000001400eef68     <common>
 0003:00027f70       GLAD_GL_NV_read_depth_stencil 00000001400eef70     <common>
 0003:00027f74       GLAD_GL_NV_read_depth      00000001400eef74     <common>
 0003:00027f78       GLAD_GL_NV_read_buffer_front 00000001400eef78     <common>
 0003:00027f80       glad_glReadBufferNV        00000001400eef80     <common>
 0003:00027f88       glad_glProgramUniformMatrix4x3fv 00000001400eef88     <common>
 0003:00027f90       glad_glMultiTexCoord3dv    00000001400eef90     <common>
 0003:00027f98       GLAD_GL_NV_read_buffer     00000001400eef98     <common>
 0003:00027fa0       glad_glPolygonModeNV       00000001400eefa0     <common>
 0003:00027fa8       glad_glMultiTexCoord3d     00000001400eefa8     <common>
 0003:00027fb0       glad_glMultiModeDrawArraysIBM 00000001400eefb0     <common>
 0003:00027fb8       GLAD_GL_NV_polygon_mode    00000001400eefb8     <common>
 0003:00027fc0       glad_glProgramUniformMatrix3x4fv 00000001400eefc0     <common>
 0003:00027fc8       GLAD_GL_NV_pixel_buffer_object 00000001400eefc8     <common>
 0003:00027fd0       glad_glUniformMatrix4x3fvNV 00000001400eefd0     <common>
 0003:00027fd8       glad_glMultiTexCoord2sv    00000001400eefd8     <common>
 0003:00027fe0       GLAD_GL_IBM_multimode_draw_arrays 00000001400eefe0     <common>
 0003:00027fe4       GLAD_GL_IBM_cull_vertex    00000001400eefe4     <common>
 0003:00027fe8       glad_glUniformMatrix3x4fvNV 00000001400eefe8     <common>
 0003:00027ff0       GLAD_GL_HP_texture_lighting 00000001400eeff0     <common>
 0003:00027ff8       glad_glProgramUniformMatrix4x2fv 00000001400eeff8     <common>
 0003:00028000       glad_glMultiTexCoord2s     00000001400ef000     <common>
 0003:00028008       GLAD_GL_HP_occlusion_test  00000001400ef008     <common>
 0003:00028010       glad_glGetImageTransformParameterfvHP 00000001400ef010     <common>
 0003:00028018       glad_glUniformMatrix4x2fvNV 00000001400ef018     <common>
 0003:00028020       glad_glMultiTexCoord2iv    00000001400ef020     <common>
 0003:00028028       glad_glGetImageTransformParameterivHP 00000001400ef028     <common>
 0003:00028030       glad_glProgramUniformMatrix2x4fv 00000001400ef030     <common>
 0003:00028038       glad_glMultiTexCoord2i     00000001400ef038     <common>
 0003:00028040       glad_glImageTransformParameterfvHP 00000001400ef040     <common>
 0003:00028048       glad_glUniformMatrix2x4fvNV 00000001400ef048     <common>
 0003:00028050       glad_glMultiTexCoord2fv    00000001400ef050     <common>
 0003:00028058       glad_glProgramUniformMatrix3x2fv 00000001400ef058     <common>
 0003:00028060       glad_glImageTransformParameterivHP 00000001400ef060     <common>
 0003:00028068       glad_glUniformMatrix3x2fvNV 00000001400ef068     <common>
 0003:00028070       glad_glMultiTexCoord2f     00000001400ef070     <common>
 0003:00028078       glad_glImageTransformParameterfHP 00000001400ef078     <common>
 0003:00028080       glad_glProgramUniformMatrix2x3fv 00000001400ef080     <common>
 0003:00028088       glad_glMultiTexCoord2dv    00000001400ef088     <common>
 0003:00028090       glad_glUniformMatrix2x3fvNV 00000001400ef090     <common>
 0003:00028098       glad_glImageTransformParameteriHP 00000001400ef098     <common>
 0003:000280a0       glad_glMultiTexCoord2d     00000001400ef0a0     <common>
 0003:000280a8       glad_glProgramUniformMatrix4dv 00000001400ef0a8     <common>
 0003:000280b0       GLAD_GL_NV_non_square_matrices 00000001400ef0b0     <common>
 0003:000280b4       GLAD_GL_HP_image_transform 00000001400ef0b4     <common>
 0003:000280b8       glad_glVertexAttribDivisorNV 00000001400ef0b8     <common>
 0003:000280c0       glad_glMultiTexCoord1sv    00000001400ef0c0     <common>
 0003:000280c8       GLAD_GL_HP_convolution_border_modes 00000001400ef0c8     <common>
 0003:000280d0       glad_glStringMarkerGREMEDY 00000001400ef0d0     <common>
 0003:000280d8       GLAD_GL_NV_instanced_arrays 00000001400ef0d8     <common>
 0003:000280e0       glad_glMultiTexCoord1s     00000001400ef0e0     <common>
 0003:000280e8       GLAD_GL_NV_image_formats   00000001400ef0e8     <common>
 0003:000280ec       GLAD_GL_GREMEDY_string_marker 00000001400ef0ec     <common>
 0003:000280f0       GLAD_GL_NV_generate_mipmap_sRGB 00000001400ef0f0     <common>
 0003:000280f8       glad_glFrameTerminatorGREMEDY 00000001400ef0f8     <common>
 0003:00028100       glad_glRenderbufferStorageMultisampleNV 00000001400ef100     <common>
 0003:00028108       glad_glProgramUniformMatrix3dv 00000001400ef108     <common>
 0003:00028110       GLAD_GL_GREMEDY_frame_terminator 00000001400ef110     <common>
 0003:00028118       glad_glImportSyncEXT       00000001400ef118     <common>
 0003:00028120       glad_glMultiTexCoord1iv    00000001400ef120     <common>
 0003:00028128       glad_glMultiTexCoord1i     00000001400ef128     <common>
 0003:00028130       GLAD_GL_NV_framebuffer_multisample 00000001400ef130     <common>
 0003:00028134       GLAD_GL_EXT_x11_sync_object 00000001400ef134     <common>
 0003:00028138       glad_glWindowRectanglesEXT 00000001400ef138     <common>
 0003:00028140       glad_glBlitFramebufferNV   00000001400ef140     <common>
 0003:00028148       glad_glProgramUniformMatrix2dv 00000001400ef148     <common>
 0003:00028150       glad_glMultiTexCoord1fv    00000001400ef150     <common>
 0003:00028158       GLAD_GL_EXT_window_rectangles 00000001400ef158     <common>
 0003:00028160       glad_glReleaseKeyedMutexWin32EXT 00000001400ef160     <common>
 0003:00028168       glad_glMultiTexCoord1f     00000001400ef168     <common>
 0003:00028170       glad_glProgramUniformMatrix4fv 00000001400ef170     <common>
 0003:00028178       glad_glMultiTexCoord1dv    00000001400ef178     <common>
 0003:00028180       glad_glAcquireKeyedMutexWin32EXT 00000001400ef180     <common>
 0003:00028188       glad_glMultiTexCoord1d     00000001400ef188     <common>
 0003:00028190       GLAD_GL_NV_framebuffer_blit 00000001400ef190     <common>
 0003:00028194       GLAD_GL_EXT_win32_keyed_mutex 00000001400ef194     <common>
 0003:00028198       GLAD_GL_NV_fbo_color_attachments 00000001400ef198     <common>
 0003:000281a0       glad_glVertexWeightPointerEXT 00000001400ef1a0     <common>
 0003:000281a8       glad_glProgramUniformMatrix3fv 00000001400ef1a8     <common>
 0003:000281b0       GLAD_GL_NV_explicit_attrib_location 00000001400ef1b0     <common>
 0003:000281b8       glad_glDrawElementsInstancedNV 00000001400ef1b8     <common>
 0003:000281c0       glad_glClientActiveTexture 00000001400ef1c0     <common>
 0003:000281c8       glad_glGetCompressedTexImage 00000001400ef1c8     <common>
 0003:000281d0       glad_glVertexWeightfvEXT   00000001400ef1d0     <common>
 0003:000281d8       glad_glProgramUniformMatrix2fv 00000001400ef1d8     <common>
 0003:000281e0       glad_glDrawArraysInstancedNV 00000001400ef1e0     <common>
 0003:000281e8       glad_glVertexWeightfEXT    00000001400ef1e8     <common>
 0003:000281f0       glad_glCompressedTexSubImage1D 00000001400ef1f0     <common>
 0003:000281f8       GLAD_GL_EXT_vertex_weighting 00000001400ef1f8     <common>
 0003:00028200       glad_glGetLocalConstantFloatvEXT 00000001400ef200     <common>
 0003:00028208       GLAD_GL_NV_draw_instanced  00000001400ef208     <common>
 0003:00028210       glad_glDrawBuffersNV       00000001400ef210     <common>
 0003:00028218       glad_glProgramUniform4uiv  00000001400ef218     <common>
 0003:00028220       glad_glGetLocalConstantIntegervEXT 00000001400ef220     <common>
 0003:00028228       GLAD_GL_NV_draw_buffers    00000001400ef228     <common>
 0003:00028230       glad_glCompressedTexSubImage2D 00000001400ef230     <common>
 0003:00028238       GLAD_GL_NV_depth_nonlinear 00000001400ef238     <common>
 0003:00028240       glad_glCoverageOperationNV 00000001400ef240     <common>
 0003:00028248       glad_glProgramUniform4ui   00000001400ef248     <common>
 0003:00028250       glad_glGetLocalConstantBooleanvEXT 00000001400ef250     <common>
 0003:00028258       glad_glCoverageMaskNV      00000001400ef258     <common>
 0003:00028260       GLAD_GL_NV_coverage_sample 00000001400ef260     <common>
 0003:00028268       glad_glCopyBufferSubDataNV 00000001400ef268     <common>
 0003:00028270       glad_glGetInvariantFloatvEXT 00000001400ef270     <common>
 0003:00028278       glad_glProgramUniform4dv   00000001400ef278     <common>
 0003:00028280       glad_glGetInvariantIntegervEXT 00000001400ef280     <common>
 0003:00028288       glad_glCompressedTexSubImage3D 00000001400ef288     <common>
 0003:00028290       GLAD_GL_NV_copy_buffer     00000001400ef290     <common>
 0003:00028294       GLAD_GL_IMG_texture_filter_cubic 00000001400ef294     <common>
 0003:00028298       GLAD_GL_IMG_texture_compression_pvrtc2 00000001400ef298     <common>
 0003:0002829c       GLAD_GL_IMG_texture_compression_pvrtc 00000001400ef29c     <common>
 0003:000282a0       GLAD_GL_IMG_shader_binary  00000001400ef2a0     <common>
 0003:000282a4       GLAD_GL_IMG_read_format    00000001400ef2a4     <common>
 0003:000282a8       glad_glProgramUniform4d    00000001400ef2a8     <common>
 0003:000282b0       GLAD_GL_IMG_program_binary 00000001400ef2b0     <common>
 0003:000282b8       glad_glGetInvariantBooleanvEXT 00000001400ef2b8     <common>
 0003:000282c0       glad_glFramebufferTexture2DMultisampleIMG 00000001400ef2c0     <common>
 0003:000282c8       glad_glGetVariantPointervEXT 00000001400ef2c8     <common>
 0003:000282d0       glad_glProgramUniform4fv   00000001400ef2d0     <common>
 0003:000282d8       glad_glRenderbufferStorageMultisampleIMG 00000001400ef2d8     <common>
 0003:000282e0       glad_glGetVariantFloatvEXT 00000001400ef2e0     <common>
 0003:000282e8       glad_glCompressedTexImage1D 00000001400ef2e8     <common>
 0003:000282f0       glad_glProgramUniform4f    00000001400ef2f0     <common>
 0003:000282f8       glad_glGetVariantIntegervEXT 00000001400ef2f8     <common>
 0003:00028300       GLAD_GL_IMG_multisampled_render_to_texture 00000001400ef300     <common>
 0003:00028308       glad_glFramebufferTextureLayerDownsampleIMG 00000001400ef308     <common>
 0003:00028310       glad_glCompressedTexImage2D 00000001400ef310     <common>
 0003:00028318       glad_glGetVariantBooleanvEXT 00000001400ef318     <common>
 0003:00028320       glad_glProgramUniform4iv   00000001400ef320     <common>
 0003:00028328       glad_glIsVariantEnabledEXT 00000001400ef328     <common>
 0003:00028330       glad_glFramebufferTexture2DDownsampleIMG 00000001400ef330     <common>
 0003:00028338       glad_glBindParameterEXT    00000001400ef338     <common>
 0003:00028340       glad_glProgramUniform4i    00000001400ef340     <common>
 0003:00028348       glad_glBindTextureUnitParameterEXT 00000001400ef348     <common>
 0003:00028350       glad_glCompressedTexImage3D 00000001400ef350     <common>
 0003:00028358       glad_glBindTexGenParameterEXT 00000001400ef358     <common>
 0003:00028360       GLAD_GL_IMG_framebuffer_downsample 00000001400ef360     <common>
 0003:00028368       glad_glProgramUniformHandleui64vIMG 00000001400ef368     <common>
 0003:00028370       glad_glProgramUniform3uiv  00000001400ef370     <common>
 0003:00028378       glad_glBindMaterialParameterEXT 00000001400ef378     <common>
 0003:00028380       glad_glBindLightParameterEXT 00000001400ef380     <common>
 0003:00028388       glad_glSampleCoverage      00000001400ef388     <common>
 0003:00028390       glad_glProgramUniform3ui   00000001400ef390     <common>
 0003:00028398       glad_glProgramUniformHandleui64IMG 00000001400ef398     <common>
 0003:000283a0       glad_glDisableVariantClientStateEXT 00000001400ef3a0     <common>
 0003:000283a8       glad_glActiveTexture       00000001400ef3a8     <common>
 0003:000283b0       glad_glUniformHandleui64vIMG 00000001400ef3b0     <common>
 0003:000283b8       glad_glEnableVariantClientStateEXT 00000001400ef3b8     <common>
 0003:000283c0       GLAD_GL_VERSION_1_3        00000001400ef3c0     <common>
 0003:000283c8       glad_glCopyTexSubImage3D   00000001400ef3c8     <common>
 0003:000283d0       glad_glProgramUniform3dv   00000001400ef3d0     <common>
 0003:000283d8       glad_glVariantPointerEXT   00000001400ef3d8     <common>
 0003:000283e0       glad_glUniformHandleui64IMG 00000001400ef3e0     <common>
 0003:000283e8       glad_glGetTextureSamplerHandleIMG 00000001400ef3e8     <common>
 0003:000283f0       glad_glProgramUniform3d    00000001400ef3f0     <common>
 0003:000283f8       glad_glVariantuivEXT       00000001400ef3f8     <common>
 0003:00028400       glad_glGetTextureHandleIMG 00000001400ef400     <common>
 0003:00028408       glad_glVariantusvEXT       00000001400ef408     <common>
 0003:00028410       glad_glTexSubImage3D       00000001400ef410     <common>
 0003:00028418       GLAD_GL_IMG_bindless_texture 00000001400ef418     <common>
 0003:0002841c       GLAD_GL_FJ_shader_binary_GCCSO 00000001400ef41c     <common>
 0003:00028420       GLAD_GL_EXT_unpack_subimage 00000001400ef420     <common>
 0003:00028428       glad_glProgramUniform3fv   00000001400ef428     <common>
 0003:00028430       glad_glVariantubvEXT       00000001400ef430     <common>
 0003:00028438       glad_glTextureViewEXT      00000001400ef438     <common>
 0003:00028440       glad_glVariantdvEXT        00000001400ef440     <common>
 0003:00028448       glad_glProgramUniform3f    00000001400ef448     <common>
 0003:00028450       glad_glVariantfvEXT        00000001400ef450     <common>
 0003:00028458       glad_glVariantivEXT        00000001400ef458     <common>
 0003:00028460       GLAD_GL_EXT_texture_view   00000001400ef460     <common>
 0003:00028468       glad_glTexImage3D          00000001400ef468     <common>
 0003:00028470       GLAD_GL_EXT_texture_JTYPE_2_10_10_10_REV 00000001400ef470     <common>
 0003:00028478       glad_glTexStorage3DEXT     00000001400ef478     <common>
 0003:00028480       glad_glProgramUniform3iv   00000001400ef480     <common>
 0003:00028488       glad_glVariantsvEXT        00000001400ef488     <common>
 0003:00028490       glad_glVariantbvEXT        00000001400ef490     <common>
 0003:00028498       glad_glProgramUniform3i    00000001400ef498     <common>
 0003:000284a0       glad_glTexStorage2DEXT     00000001400ef4a0     <common>
 0003:000284a8       glad_glSetLocalConstantEXT 00000001400ef4a8     <common>
 0003:000284b0       glad_glDrawRangeElements   00000001400ef4b0     <common>
 0003:000284b8       glad_glProgramUniform2uiv  00000001400ef4b8     <common>
